L251 LINKER/LOCATER V4.66.93.0                                                          12/18/2023  14:21:09  PAGE 1


L251 LINKER/LOCATER V4.66.93.0, INVOKED BY:
C:\KEIL_V5_C251\C251\BIN\L251.EXE .\obj\STARTUP251_RT569MP.obj, .\obj\main.obj, .\obj\rf_task_ctrl.obj, .\obj\intr_rf.ob
>> j, .\obj\sys_init.obj, .\obj\sys_task.obj, .\obj\isr_hdlr.obj, .\obj\sys_ctrl.obj, .\obj\sys_mem.obj, .\obj\sys_mem2.
>> obj, .\obj\sys_qctrl.obj, .\obj\sys_rtc.obj, .\obj\common_isr.obj, .\obj\common_cmd_hdlr.obj, .\obj\common_event_gen.
>> obj, .\obj\common_feature.obj, .\obj\bmu.obj, .\obj\bmu_cmd.obj, .\obj\bmu_common.obj, .\obj\bmu_rx.obj, .\obj\bmu_tx
>> .obj, .\obj\bmu_ble.obj, .\obj\mac.obj, .\obj\mac_frame_parse.obj, .\obj\mac_isr.obj, .\obj\mac_cmd_hdlr.obj, .\obj\m
>> ac_task_ctrl.obj, .\obj\ruci_data_parse.obj, .\obj\mac_event_gen.obj, .\obj\mac_RaaSchedule.obj, .\obj\mac_TarSchedul
>> e.obj, .\obj\mac_cad.obj, .\obj\mac_scheduler.obj, .\obj\mac_RfeRx.obj, .\obj\mac_RfeTx.obj, .\obj\mac_DtmRx.obj, .\o
>> bj\mac_DtmTx.obj, .\obj\mac_htrp_control.obj, .\obj\mac_htrp_rx.obj, .\obj\mac_htrp_tx.obj, .\obj\mac_srcmatch.obj, .
>> \obj\msg_ctrl.obj, .\obj\hal.obj, .\obj\hal_cfg.obj, .\obj\hal_mac.obj, .\obj\hal_para.obj, .\obj\hal_phy.obj, .\obj\
>> hal_pkt.obj, .\obj\hal_rf.obj, .\obj\hal_rfdb.obj, .\obj\hal_sec.obj, .\obj\hal_rfk.obj, .\obj\hal_io.obj, .\obj\hal_
>> init.obj, .\obj\hal_patch.obj, .\obj\hal_prtcl.obj, .\obj\hal_rt569mp_init.obj, .\obj\rt569mp_mem.obj, .\obj\rt569mp_
>> reg.obj, .\obj\hal_rt569mp_rfk.obj, .\obj\hal_rt569mp_rf.obj, .\obj\hal_rt569mp_tcon.obj, .\obj\hal_rt569mp_para.obj,
>>  .\obj\hal_rt569mp_pmu.obj, .\obj\Ruci.obj, .\obj\Ruci_Pci15p4MacCmd.obj, .\obj\Ruci_PciBleCmd.obj, .\obj\Ruci_PciCom
>> monCmd.obj, .\obj\Ruci_PciData.obj, .\obj\Ruci_PciEvent.obj, .\obj\Ruci_PciFskCmd.obj, .\obj\Ruci_PciOqpskCmd.obj, .\
>> obj\Ruci_PciSlinkCmd.obj, .\obj\Ruci_CmnEvent.obj, .\obj\Ruci_CmnHalCmd.obj, .\obj\Ruci_CmnSysCmd.obj TO .\obj\RT569 
>> NOOVERLAY REMOVEUNUSED CLASSES (DATA (0X0000-0X007F), IDATA (0X0080-0X0090), EDATA (0XA000-0XBFFF), CODE (0XFF0000-0X
>> FFFFFF), ECODE (0XFF0000-0XFFFFFF), HCONST (0XFF0000-0XFFFFFF))


CPU MODE:     251 SOURCE MODE
INTR FRAME:   4 BYTES SAVED ON INTERRUPT
MEMORY MODEL: XTINY [HUGE PTR]


INPUT MODULES INCLUDED:
  .\obj\STARTUP251_RT569MP.obj (?C_START)
         COMMENT TYPE 0: A251 V4.69.13.0
  .\obj\main.obj (main)
         COMMENT TYPE 0: C251 V5.60.0
  .\obj\rf_task_ctrl.obj (rf_task_ctrl)
         COMMENT TYPE 0: C251 V5.60.0
  .\obj\intr_rf.obj (intr_rf)
         COMMENT TYPE 0: C251 V5.60.0
  .\obj\sys_init.obj (sys_init)
         COMMENT TYPE 0: C251 V5.60.0
  .\obj\sys_task.obj (sys_task)
         COMMENT TYPE 0: C251 V5.60.0
  .\obj\isr_hdlr.obj (isr_hdlr)
         COMMENT TYPE 0: C251 V5.60.0
  .\obj\sys_ctrl.obj (sys_ctrl)
         COMMENT TYPE 0: C251 V5.60.0
  .\obj\sys_mem.obj (SYS_MEM)
         COMMENT TYPE 0: A251 V4.69.13.0
  .\obj\sys_mem2.obj (SYS_MEM2)
         COMMENT TYPE 0: A251 V4.69.13.0
  .\obj\sys_qctrl.obj (sys_qctrl)
         COMMENT TYPE 0: C251 V5.60.0
  .\obj\sys_rtc.obj (sys_rtc)
         COMMENT TYPE 0: C251 V5.60.0
  .\obj\common_isr.obj (common_isr)
         COMMENT TYPE 0: C251 V5.60.0
  .\obj\common_cmd_hdlr.obj (common_cmd_hdlr)
         COMMENT TYPE 0: C251 V5.60.0
  .\obj\common_event_gen.obj (common_event_gen)
         COMMENT TYPE 0: C251 V5.60.0
  .\obj\common_feature.obj (common_feature)
         COMMENT TYPE 0: C251 V5.60.0
  .\obj\bmu.obj (bmu)
         COMMENT TYPE 0: C251 V5.60.0
  .\obj\bmu_cmd.obj (bmu_cmd)
         COMMENT TYPE 0: C251 V5.60.0
  .\obj\bmu_common.obj (bmu_common)
         COMMENT TYPE 0: C251 V5.60.0
  .\obj\bmu_rx.obj (bmu_rx)
         COMMENT TYPE 0: C251 V5.60.0
L251 LINKER/LOCATER V4.66.93.0                                                        12/18/2023  14:21:09  PAGE 2


  .\obj\bmu_tx.obj (bmu_tx)
         COMMENT TYPE 0: C251 V5.60.0
  .\obj\bmu_ble.obj (bmu_ble)
         COMMENT TYPE 0: C251 V5.60.0
  .\obj\mac.obj (mac)
         COMMENT TYPE 0: C251 V5.60.0
  .\obj\mac_frame_parse.obj (mac_frame_parse)
         COMMENT TYPE 0: C251 V5.60.0
  .\obj\mac_isr.obj (mac_isr)
         COMMENT TYPE 0: C251 V5.60.0
  .\obj\mac_cmd_hdlr.obj (mac_cmd_hdlr)
         COMMENT TYPE 0: C251 V5.60.0
  .\obj\mac_task_ctrl.obj (mac_task_ctrl)
         COMMENT TYPE 0: C251 V5.60.0
  .\obj\ruci_data_parse.obj (ruci_data_parse)
         COMMENT TYPE 0: C251 V5.60.0
  .\obj\mac_event_gen.obj (mac_event_gen)
         COMMENT TYPE 0: C251 V5.60.0
  .\obj\mac_RaaSchedule.obj (mac_RaaSchedule)
         COMMENT TYPE 0: C251 V5.60.0
  .\obj\mac_TarSchedule.obj (mac_TarSchedule)
         COMMENT TYPE 0: C251 V5.60.0
  .\obj\mac_cad.obj (mac_cad)
         COMMENT TYPE 0: C251 V5.60.0
  .\obj\mac_scheduler.obj (mac_scheduler)
         COMMENT TYPE 0: C251 V5.60.0
  .\obj\mac_RfeRx.obj (mac_RfeRx)
         COMMENT TYPE 0: C251 V5.60.0
  .\obj\mac_RfeTx.obj (mac_RfeTx)
         COMMENT TYPE 0: C251 V5.60.0
  .\obj\mac_DtmRx.obj (mac_DtmRx)
         COMMENT TYPE 0: C251 V5.60.0
  .\obj\mac_DtmTx.obj (mac_DtmTx)
         COMMENT TYPE 0: C251 V5.60.0
  .\obj\mac_htrp_control.obj (mac_htrp_control)
         COMMENT TYPE 0: C251 V5.60.0
  .\obj\mac_htrp_rx.obj (mac_htrp_rx)
         COMMENT TYPE 0: C251 V5.60.0
  .\obj\mac_htrp_tx.obj (mac_htrp_tx)
         COMMENT TYPE 0: C251 V5.60.0
  .\obj\mac_srcmatch.obj (mac_srcmatch)
         COMMENT TYPE 0: C251 V5.60.0
  .\obj\msg_ctrl.obj (msg_ctrl)
         COMMENT TYPE 0: C251 V5.60.0
  .\obj\hal.obj (hal)
         COMMENT TYPE 0: C251 V5.60.0
  .\obj\hal_cfg.obj (hal_cfg)
         COMMENT TYPE 0: C251 V5.60.0
  .\obj\hal_mac.obj (hal_mac)
         COMMENT TYPE 0: C251 V5.60.0
  .\obj\hal_para.obj (hal_para)
         COMMENT TYPE 0: C251 V5.60.0
  .\obj\hal_phy.obj (hal_phy)
         COMMENT TYPE 0: C251 V5.60.0
  .\obj\hal_pkt.obj (hal_pkt)
         COMMENT TYPE 0: C251 V5.60.0
  .\obj\hal_rf.obj (hal_rf)
         COMMENT TYPE 0: C251 V5.60.0
  .\obj\hal_rfdb.obj (hal_rfdb)
         COMMENT TYPE 0: C251 V5.60.0
  .\obj\hal_sec.obj (hal_sec)
         COMMENT TYPE 0: C251 V5.60.0
  .\obj\hal_rfk.obj (hal_rfk)
         COMMENT TYPE 0: C251 V5.60.0
  .\obj\hal_io.obj (hal_io)
L251 LINKER/LOCATER V4.66.93.0                                                        12/18/2023  14:21:09  PAGE 3


         COMMENT TYPE 0: C251 V5.60.0
  .\obj\hal_init.obj (hal_init)
         COMMENT TYPE 0: C251 V5.60.0
  .\obj\hal_patch.obj (hal_patch)
         COMMENT TYPE 0: C251 V5.60.0
  .\obj\hal_prtcl.obj (hal_prtcl)
         COMMENT TYPE 0: C251 V5.60.0
  .\obj\hal_rt569mp_init.obj (hal_rt569mp_init)
         COMMENT TYPE 0: C251 V5.60.0
  .\obj\rt569mp_mem.obj (rt569mp_mem)
         COMMENT TYPE 0: C251 V5.60.0
  .\obj\rt569mp_reg.obj (rt569mp_reg)
         COMMENT TYPE 0: C251 V5.60.0
  .\obj\hal_rt569mp_rfk.obj (hal_rt569mp_rfk)
         COMMENT TYPE 0: C251 V5.60.0
  .\obj\hal_rt569mp_rf.obj (hal_rt569mp_rf)
         COMMENT TYPE 0: C251 V5.60.0
  .\obj\hal_rt569mp_tcon.obj (hal_rt569mp_tcon)
         COMMENT TYPE 0: C251 V5.60.0
  .\obj\hal_rt569mp_para.obj (hal_rt569mp_para)
         COMMENT TYPE 0: C251 V5.60.0
  .\obj\hal_rt569mp_pmu.obj (hal_rt569mp_pmu)
         COMMENT TYPE 0: C251 V5.60.0
  .\obj\Ruci.obj (Ruci)
         COMMENT TYPE 0: C251 V5.60.0
  .\obj\Ruci_Pci15p4MacCmd.obj (Ruci_Pci15p4MacCmd)
         COMMENT TYPE 0: C251 V5.60.0
  .\obj\Ruci_PciBleCmd.obj (Ruci_PciBleCmd)
         COMMENT TYPE 0: C251 V5.60.0
  .\obj\Ruci_PciCommonCmd.obj (Ruci_PciCommonCmd)
         COMMENT TYPE 0: C251 V5.60.0
  .\obj\Ruci_PciData.obj (Ruci_PciData)
         COMMENT TYPE 0: C251 V5.60.0
  .\obj\Ruci_PciEvent.obj (Ruci_PciEvent)
         COMMENT TYPE 0: C251 V5.60.0
  .\obj\Ruci_PciFskCmd.obj (Ruci_PciFskCmd)
         COMMENT TYPE 0: C251 V5.60.0
  .\obj\Ruci_PciOqpskCmd.obj (Ruci_PciOqpskCmd)
         COMMENT TYPE 0: C251 V5.60.0
  .\obj\Ruci_PciSlinkCmd.obj (Ruci_PciSlinkCmd)
         COMMENT TYPE 0: C251 V5.60.0
  .\obj\Ruci_CmnEvent.obj (Ruci_CmnEvent)
         COMMENT TYPE 0: C251 V5.60.0
  .\obj\Ruci_CmnHalCmd.obj (Ruci_CmnHalCmd)
         COMMENT TYPE 0: C251 V5.60.0
  .\obj\Ruci_CmnSysCmd.obj (Ruci_CmnSysCmd)
         COMMENT TYPE 0: C251 V5.60.0
  C:\KEIL_V5_C251\C251\LIB\C2SXT.LIB (?C?INITEDATA)
         COMMENT TYPE 0: A251 V4.69.6.0
  C:\KEIL_V5_C251\C251\LIB\C2SXT.LIB (?C?SIDIV)
         COMMENT TYPE 0: A251 V4.69.6.0
  C:\KEIL_V5_C251\C251\LIB\C2SXT.LIB (?C?LMUL)
         COMMENT TYPE 0: A251 V4.69.6.0
  C:\KEIL_V5_C251\C251\LIB\C2SXT.LIB (?C?LIMUL)
         COMMENT TYPE 0: A251 V4.69.6.0
  C:\KEIL_V5_C251\C251\LIB\C2SXT.LIB (?C?ULDIV)
         COMMENT TYPE 0: A251 V4.69.6.0
  C:\KEIL_V5_C251\C251\LIB\C2SXT.LIB (memcpy)
         COMMENT TYPE 0: C251 V5.58.7
  C:\KEIL_V5_C251\C251\LIB\C2SXT.LIB (memset)
         COMMENT TYPE 0: C251 V5.58.7
  C:\KEIL_V5_C251\C251\LIB\C2SXT.LIB (hmemcpy)
         COMMENT TYPE 0: C251 V5.58.7
  C:\KEIL_V5_C251\C251\LIB\C2SXT.LIB (?C?INITEDATA_END)
         COMMENT TYPE 0: A251 V4.69.6.0
L251 LINKER/LOCATER V4.66.93.0                                                        12/18/2023  14:21:09  PAGE 4




ACTIVE MEMORY CLASSES OF MODULE:  .\obj\RT569 (?C_START)

BASE        START       END         USED      MEMORY CLASS
==========================================================
000000H     000000H     00007FH     000010H   DATA
000000H     000080H     000090H               IDATA
000000H     00A000H     00BFFFH     0018F3H   EDATA
FF0000H     FF0000H     FFFFFFH     00BB48H   CODE
000000H     FF0000H     FFFFFFH               ECODE
000000H     FF0000H     FFFFFFH     00118DH   HCONST
000000H     008000H     00FFFFH     000004H   NCONST


MEMORY MAP OF MODULE:  .\obj\RT569 (?C_START)


START     STOP      LENGTH    ALIGN  RELOC    MEMORY CLASS   SEGMENT NAME
=========================================================================
000000H   000007H   000008H   ---    AT..     DATA           "REG BANK 0"
000008H   00000FH   000008H   ---    AT..     DATA           "REG BANK 1"
000010H   0000FFH   0000F0H   ---    ---      **GAP**
000100H   0003FFH   000300H   BYTE   AT..     EDATA          ?STACK
000400H   007FFFH   007C00H   ---    ---      **GAP**
008000H   008001H   000002H   BYTE   UNIT     NCONST         ?NC?MAC_RAASCHEDULE
008002H   008003H   000002H   BYTE   UNIT     NCONST         ?NC?MAC_TARSCHEDULE
008004H   009FFFH   001FFCH   ---    ---      **GAP**
00A000H   00A929H   00092AH   BYTE   UNIT     EDATA          ?ED?MAC_TARSCHEDULE
00A92AH   00AC4AH   000321H   BYTE   UNIT     EDATA          ?ED?MAC_SRCMATCH
00AC4BH   00AEE0H   000296H   BYTE   UNIT     EDATA          ?ED?SYS_QCTRL
00AEE1H   00B0B7H   0001D7H   BYTE   UNIT     EDATA          ?ED?HAL_INIT
00B0B8H   00B1F4H   00013DH   BYTE   UNIT     EDATA          ?ED?MAC_HTRP_CONTROL
00B1F5H   00B282H   00008EH   BYTE   UNIT     EDATA          ?ED?COMMON_ISR
00B283H   00B2B7H   000035H   BYTE   UNIT     EDATA          ?ED?MAC
00B2B8H   00B2E9H   000032H   BYTE   UNIT     EDATA          ?ED?MAC_RAASCHEDULE
00B2EAH   00B30EH   000025H   BYTE   UNIT     EDATA          ?ED?MAC_TAR_CHECK_DATA_REQUST?MAC_TARSCHEDULE
00B30FH   00B330H   000022H   BYTE   UNIT     EDATA          ?ED?HALRFK_CALIBRATION?HAL_RFK
00B331H   00B350H   000020H   BYTE   UNIT     EDATA          ?ED?MAC_HTRP_RX_HANDLER?MAC_HTRP_RX
00B351H   00B36DH   00001DH   BYTE   UNIT     EDATA          ?ED?MAC_CMD_HDLR
00B36EH   00B386H   000019H   BYTE   UNIT     EDATA          ?ED?MAC_RFERX
00B387H   00B39DH   000017H   BYTE   UNIT     EDATA          ?ED?T2RTASK_SET?MAC_TASK_CTRL
00B39EH   00B3B0H   000013H   BYTE   UNIT     EDATA          ?ED?HALRF_FREQSUBGCFG?HAL_RT569MP_RF
00B3B1H   00B3C2H   000012H   BYTE   UNIT     EDATA          ?ED?TRTTASK_SET?MAC_TASK_CTRL
00B3C3H   00B3D4H   000012H   BYTE   UNIT     EDATA          ?ED?TXCONTTASK_SET?MAC_TASK_CTRL
00B3D5H   00B3E6H   000012H   BYTE   UNIT     EDATA          ?ED?MAC_HTRP_TX_HANDLER?MAC_HTRP_TX
00B3E7H   00B3F7H   000011H   BYTE   UNIT     EDATA          ?ED?MAC_RFETX
00B3F8H   00B408H   000011H   BYTE   UNIT     EDATA          ?ED?RUCI_ENDIANCONVERT?RUCI
00B409H   00B418H   000010H   BYTE   UNIT     EDATA          ?ED?INTR_RF
00B419H   00B427H   00000FH   BYTE   UNIT     EDATA          ?ED?MAC_HTRP_RX_SET_NEXT_TASK_AND_CHANNEL?MAC_HTRP_RX
00B428H   00B436H   00000FH   BYTE   UNIT     EDATA          ?ED?MAC_HTRP_TX_SLOT_RX_DONE?MAC_HTRP_TX
00B437H   00B445H   00000FH   BYTE   UNIT     EDATA          ?ED?MAC_HTRP_TX_PERIOD_BURST_RX_DONE?MAC_HTRP_TX
00B446H   00B453H   00000EH   BYTE   UNIT     EDATA          ?ED?RXTASK_ALWAYSON_SET?MAC_TASK_CTRL
00B454H   00B461H   00000EH   BYTE   UNIT     EDATA          ?ED?R2TTASK_SET?MAC_TASK_CTRL
00B462H   00B46FH   00000EH   BYTE   UNIT     EDATA          ?ED?RXTASK_TIMEOUT_SET?MAC_TASK_CTRL
00B470H   00B47DH   00000EH   BYTE   UNIT     EDATA          ?ED?TXTASK_SET?MAC_TASK_CTRL
00B47EH   00B48BH   00000EH   BYTE   UNIT     EDATA          ?ED?TXRTCTASK_SET?MAC_TASK_CTRL
00B48CH   00B499H   00000EH   BYTE   UNIT     EDATA          ?ED?MAC_HTRP_RX_SET_RF_TASK?MAC_HTRP_RX
00B49AH   00B4A7H   00000EH   BYTE   UNIT     EDATA          ?ED?MAC_HTRP_TX_SET_RF_TASK?MAC_HTRP_TX
00B4A8H   00B4B3H   00000CH   BYTE   UNIT     EDATA          ?ED?COMMON_ISRBMUCHECKTX?COMMON_ISR
00B4B4H   00B4BFH   00000CH   BYTE   UNIT     EDATA          ?ED?BMU_TRXQUEUEGET?BMU_COMMON
00B4C0H   00B4CBH   00000CH   BYTE   UNIT     EDATA          ?ED?BMU_TRXQUEUESET?BMU_COMMON
00B4CCH   00B4D7H   00000CH   BYTE   UNIT     EDATA          ?ED?MAC_RFETXSCHEDULE?MAC_RFETX
00B4D8H   00B4E3H   00000CH   BYTE   UNIT     EDATA          ?ED?MAC_HTRP_RX_SET_PERIOD_NEXT_TASK?MAC_HTRP_RX
00B4E4H   00B4EDH   00000AH   BYTE   UNIT     EDATA          ?ED?MAC_HTRP_RX_PERIOD_TX_DONE?MAC_HTRP_RX
L251 LINKER/LOCATER V4.66.93.0                                                        12/18/2023  14:21:09  PAGE 5


00B4EEH   00B4F7H   00000AH   BYTE   UNIT     EDATA          ?ED?MAC_HTRP_TX_BURST_TX_DONE?MAC_HTRP_TX
00B4F8H   00B501H   00000AH   BYTE   UNIT     EDATA          ?ED?MAC_HTRP_TX_PERIOD_BURST_TX_DONE?MAC_HTRP_TX
00B502H   00B50BH   00000AH   BYTE   UNIT     EDATA          ?ED?HALRF_FREQ2GCFG?HAL_RT569MP_RF
00B50CH   00B514H   000009H   BYTE   UNIT     EDATA          ?ED?HALRFK_TXSBK?HAL_RT569MP_RFK
00B515H   00B51CH   000008H   BYTE   UNIT     EDATA          ?ED?Q_QPUSHBACK?SYS_QCTRL
00B51DH   00B524H   000008H   BYTE   UNIT     EDATA          ?ED?BMU_RX
00B525H   00B52CH   000008H   BYTE   UNIT     EDATA          ?ED?MAC_ISR
00B52DH   00B534H   000008H   BYTE   UNIT     EDATA          ?ED?MAC_GETCSLPHASE?MAC_RAASCHEDULE
00B535H   00B53CH   000008H   BYTE   UNIT     EDATA          ?ED?MAC_RAA_SCHCONFIGHDLR?MAC_RAASCHEDULE
00B53DH   00B544H   000008H   BYTE   UNIT     EDATA          ?ED?MAC_TAR_SCHCONFIGHDLR?MAC_TARSCHEDULE
00B545H   00B54CH   000008H   BYTE   UNIT     EDATA          ?ED?MAC_RFERXSCHEDULE?MAC_RFERX
00B54DH   00B553H   000007H   BYTE   UNIT     EDATA          ?ED?HALPHY_RXBWSET?HAL_PHY
00B554H   00B559H   000006H   BYTE   UNIT     EDATA          ?ED?SYS_CTRL
00B55AH   00B55FH   000006H   BYTE   UNIT     EDATA          ?ED?SYS_RAND?SYS_CTRL
00B560H   00B565H   000006H   BYTE   UNIT     EDATA          ?ED?Q_QPUSHFRONT?SYS_QCTRL
00B566H   00B56BH   000006H   BYTE   UNIT     EDATA          ?ED?SYS_RTC
00B56CH   00B571H   000006H   BYTE   UNIT     EDATA          ?ED?HALRFK_RXFILTK?HAL_RT569MP_RFK
00B572H   00B576H   000005H   BYTE   UNIT     EDATA          ?ED?SYS_TASK
00B577H   00B57BH   000005H   BYTE   UNIT     EDATA          ?ED?MAC_HTRP_RELAY_DATA_TO_SW_RXQ?MAC_HTRP_CONTROL
00B57CH   00B580H   000005H   BYTE   UNIT     EDATA          ?ED?MSG_CTRL
00B581H   00B584H   000004H   BYTE   UNIT     EDATA          ?ED?RTC_UDELAY?SYS_RTC
00B585H   00B588H   000004H   BYTE   UNIT     EDATA          ?ED?BMU_MEMALLOCATE?BMU
00B589H   00B58CH   000004H   BYTE   UNIT     EDATA          ?ED?BMU_PRIVACYIRKSINGLESEARCH?BMU_BLE
00B58DH   00B590H   000004H   BYTE   UNIT     EDATA          ?ED?PCI_SETRFFREQ?MAC_CMD_HDLR
00B591H   00B594H   000004H   BYTE   UNIT     EDATA          ?ED?MAC_TASK_CTRL
00B595H   00B598H   000004H   BYTE   UNIT     EDATA          ?ED?MAC_GENENHACK?MAC_RAASCHEDULE
00B599H   00B59CH   000004H   BYTE   UNIT     EDATA          ?ED?MAC_SECLBHWSET?MAC_TARSCHEDULE
00B59DH   00B5A0H   000004H   BYTE   UNIT     EDATA          ?ED?MAC_CCASTART?MAC_TARSCHEDULE
00B5A1H   00B5A4H   000004H   BYTE   UNIT     EDATA          ?ED?HALSEC_AESSET?HAL_SEC
00B5A5H   00B5A8H   000004H   BYTE   UNIT     EDATA          ?ED?HAL_HWINIT?HAL_RT569MP_INIT
00B5A9H   00B5ACH   000004H   BYTE   UNIT     EDATA          ?ED?HAL_RT569MP_RFK
00B5ADH   00B5B0H   000004H   BYTE   UNIT     EDATA          ?ED?HALRFK_TXLOK?HAL_RT569MP_RFK
00B5B1H   00B5B4H   000004H   BYTE   UNIT     EDATA          ?ED?HALRF_IFCHECK?HAL_RT569MP_RF
00B5B5H   00B5B7H   000003H   BYTE   UNIT     EDATA          ?ED?Q_QCHAGETYPE?SYS_QCTRL
00B5B8H   00B5BAH   000003H   BYTE   UNIT     EDATA          ?ED?COMMON_ISRBMUTXQPCIGET?COMMON_ISR
00B5BBH   00B5BDH   000003H   BYTE   UNIT     EDATA          ?ED?PANIDPRESENT?MAC_FRAME_PARSE
00B5BEH   00B5C0H   000003H   BYTE   UNIT     EDATA          ?ED?PCI_SETWAKEONRADIO?MAC_CMD_HDLR
00B5C1H   00B5C3H   000003H   BYTE   UNIT     EDATA          ?ED?MAC_TXHWSET?MAC_TARSCHEDULE
00B5C4H   00B5C6H   000003H   BYTE   UNIT     EDATA          ?ED?MAC_HTRP_RX
00B5C7H   00B5C9H   000003H   BYTE   UNIT     EDATA          ?ED?HALRFK_RINGPLLSET?HAL_RT569MP_RFK
00B5CAH   00B5CBH   000002H   BYTE   UNIT     EDATA          ?ED?BMU_HWINIT?BMU
00B5CCH   00B5CDH   000002H   BYTE   UNIT     EDATA          ?ED?BMU_COMMON
00B5CEH   00B5CFH   000002H   BYTE   UNIT     EDATA          ?ED?BMU_LRXSHAREQISFULL?BMU_RX
00B5D0H   00B5D1H   000002H   BYTE   UNIT     EDATA          ?ED?PCI_SETPHR?MAC_CMD_HDLR
00B5D2H   00B5D3H   000002H   BYTE   UNIT     EDATA          ?ED?PCI_PARSET15P4SMENTRYCTRL?MAC_CMD_HDLR
00B5D4H   00B5D5H   000002H   BYTE   UNIT     EDATA          ?ED?MAC_GENACK?MAC_RAASCHEDULE
00B5D6H   00B5D7H   000002H   BYTE   UNIT     EDATA          ?ED?MAC_ACKFRAMECHECK?MAC_TARSCHEDULE
00B5D8H   00B5D9H   000002H   BYTE   UNIT     EDATA          ?ED?MAC_RFEDATAGEN?MAC_RFETX
00B5DAH   00B5DBH   000002H   BYTE   UNIT     EDATA          ?ED?MAC_HTRP_CLEAR_RX_QUEUE?MAC_HTRP_CONTROL
00B5DCH   00B5DDH   000002H   BYTE   UNIT     EDATA          ?ED?MAC_HTRP_SET_TX_QUEUE?MAC_HTRP_CONTROL
00B5DEH   00B5DFH   000002H   BYTE   UNIT     EDATA          ?ED?MAC_HTRP_TX
00B5E0H   00B5E1H   000002H   BYTE   UNIT     EDATA          ?ED?MAC_SRCMATCH_LISTCLEAR?MAC_SRCMATCH
00B5E2H   00B5E3H   000002H   BYTE   UNIT     EDATA          ?ED?MSG_INMSGPROC?MSG_CTRL
00B5E4H   00B5E5H   000002H   BYTE   UNIT     EDATA          ?ED?HAL_RF
00B5E6H   00B5E6H   000001H   BYTE   UNIT     EDATA          ?ED?BMU_H2MCMDGET?BMU_CMD
00B5E7H   00B5E7H   000001H   BYTE   UNIT     EDATA          ?ED?BMU_PRIVACYLOCALRPAGEN?BMU_BLE
00B5E8H   00B5E8H   000001H   BYTE   UNIT     EDATA          ?ED?MAC_TRXPAR_INIT?MAC
00B5E9H   00B5E9H   000001H   BYTE   UNIT     EDATA          ?ED?GET_PAN_NUMBER?MAC_CMD_HDLR
00B5EAH   00B5EAH   000001H   BYTE   UNIT     EDATA          ?ED?PCI_SETCLOCKMODE?MAC_CMD_HDLR
00B5EBH   00B5EBH   000001H   BYTE   UNIT     EDATA          ?ED?MAC_CMDQUEUEPARSE?MAC_CMD_HDLR
00B5ECH   00B5ECH   000001H   BYTE   UNIT     EDATA          ?ED?MAC_BACKOFFTIMECAL?MAC_TARSCHEDULE
00B5EDH   00B5EDH   000001H   BYTE   UNIT     EDATA          ?ED?MAC_TAR_SCHWAITCCADONEHDLR?MAC_TARSCHEDULE
00B5EEH   00B5EEH   000001H   BYTE   UNIT     EDATA          ?ED?MAC_RFERXDATACONFIRM?MAC_RFERX
00B5EFH   00B5EFH   000001H   BYTE   UNIT     EDATA          ?ED?MAC_SRCMATCH_LISTINIT?MAC_SRCMATCH
00B5F0H   00B5F0H   000001H   BYTE   UNIT     EDATA          ?ED?MAC_SRCMATCH_LISTADDSHORT?MAC_SRCMATCH
L251 LINKER/LOCATER V4.66.93.0                                                        12/18/2023  14:21:09  PAGE 6


00B5F1H   00B5F1H   000001H   BYTE   UNIT     EDATA          ?ED?MAC_SRCMATCH_LISTADDEXTENDED?MAC_SRCMATCH
00B5F2H   00B5F2H   000001H   BYTE   UNIT     EDATA          ?ED?HALRFK_RSSIGET?HAL_RT569MP_RFK
00B5F3H   FEFFFFH   FE4A0DH   ---    ---      **GAP**
FF0000H   FF0002H   000003H   ---    OFFS..   CODE           ?CO?STARTUP251_RT569MP?4
FF0003H   FF0005H   000003H   ---    OFFS..   CODE           ?PR?IV?0
FF0006H   FF0007H   000002H   BYTE   UNIT     HCONST         ?HC?RT569MP_REG
FF0008H   FF000AH   000003H   BYTE   INSEG    CODE           ?PR?ALLTASK_STOP?MAC_TASK_CTRL
FF000BH   FF000DH   000003H   ---    OFFS..   CODE           ?PR?IV?1
FF000EH   FF00ACH   00009FH   BYTE   UNIT     CODE           ?C?LIB_CODE
FF00ADH   FF010BH   00005FH   BYTE   UNIT     CODE           ?PR?ASM_MEMCPY??SYS_MEM2
FF010CH   FF0122H   000017H   BYTE   UNIT     CODE           ?C_C51STARTUP
FF0123H   FF014BH   000029H   BYTE   UNIT     CODE           ?C_C51STARTUP?2
FF014CH   FF014EH   000003H   BYTE   UNIT     CODE           ?C_C51STARTUP?3
FF014FH   FF018FH   000041H   BYTE   UNIT     CODE           ?PR?ASM_MEMSET??SYS_MEM
FF0190H   FF01AEH   00001FH   BYTE   INSEG    CODE           ?PR?MEMCPY?_?MEMCPY
FF01AFH   FF01CDH   00001FH   BYTE   INSEG    CODE           ?PR?HMEMCPY?_?HMEMCPY
FF01CEH   FF01E1H   000014H   BYTE   INSEG    CODE           ?PR?MEMSET?_?MEMSET
FF01E2H   FF082AH   000649H   BYTE   UNIT     HCONST         ?HC?HAL_RT569MP_PARA
FF082BH   FF0CDDH   0004B3H   BYTE   UNIT     HCONST         ?HC?HAL_PARA
FF0CDEH   FF0F94H   0002B7H   BYTE   UNIT     HCONST         ?C_INITEDATA
FF0F95H   FF109AH   000106H   BYTE   UNIT     HCONST         ?HC?MAC_RFETX
FF109BH   FF114AH   0000B0H   BYTE   UNIT     HCONST         ?HC?HAL_CFG
FF114BH   FF11A6H   00005CH   BYTE   UNIT     HCONST         ?HC?RUCI_PCICOMMONCMD
FF11A7H   FF11F7H   000051H   BYTE   UNIT     HCONST         ?HC?MAC_CMD_HDLR
FF11F8H   FF123BH   000044H   BYTE   UNIT     HCONST         ?HC?HAL_INIT
FF123CH   FF127FH   000044H   BYTE   UNIT     HCONST         ?HC?RUCI_PCI15P4MACCMD
FF1280H   FF12A9H   00002AH   BYTE   UNIT     HCONST         ?HC?RUCI_PCIBLECMD
FF12AAH   FF12D0H   000027H   BYTE   UNIT     HCONST         ?HC?HAL_PRTCL
FF12D1H   FF12F4H   000024H   BYTE   UNIT     HCONST         ?HC?RUCI_CMNEVENT
FF12F5H   FF130EH   00001AH   BYTE   UNIT     HCONST         ?HC?RUCI_CMNHALCMD
FF130FH   FF1326H   000018H   BYTE   UNIT     HCONST         ?HC?HAL_RT569MP_RF
FF1327H   FF133CH   000016H   BYTE   UNIT     HCONST         ?HC?RUCI_PCIDATA
FF133DH   FF134EH   000012H   BYTE   UNIT     HCONST         ?HC?RUCI_PCIEVENT
FF134FH   FF135EH   000010H   BYTE   UNIT     HCONST         ?HC?BMU_COMMON
FF135FH   FF1366H   000008H   BYTE   UNIT     HCONST         ?HC?RUCI_PCIFSKCMD
FF1367H   FF136CH   000006H   BYTE   UNIT     HCONST         ?HC?RT569MP_MEM
FF136DH   FF1373H   000007H   BYTE   INSEG    CODE           ?PR?MAIN?MAIN
FF1374H   FF13ACH   000039H   BYTE   INSEG    CODE           ?PR?SYS_INIT?SYS_INIT
FF13ADH   FF13B9H   00000DH   BYTE   INSEG    CODE           ?PR?SYS_IDLETASKINIT?SYS_CTRL
FF13BAH   FF13CCH   000013H   BYTE   INSEG    CODE           ?PR?MSG_HDLRINIT?MSG_CTRL
FF13CDH   FF13D8H   00000CH   BYTE   INSEG    CODE           ?PR?SYS_IDLETASKINTINIT?SYS_CTRL
FF13D9H   FF1425H   00004DH   BYTE   INSEG    CODE           ?PR?INTR_RF_REGISTER?INTR_RF
FF1426H   FF1434H   00000FH   BYTE   INSEG    CODE           ?PR?COMMON_ISR_INIT?COMMON_ISR
FF1435H   FF146EH   00003AH   BYTE   INSEG    CODE           ?PR?MAC_INIT?MAC
FF146FH   FF14B0H   000042H   BYTE   INSEG    CODE           ?PR?RF_TASK_ALLSTOP?RF_TASK_CTRL
FF14B1H   FF16E1H   000231H   BYTE   INSEG    CODE           ?PR?MAC_RFETXSCHEDULE?MAC_RFETX
FF16E2H   FF1728H   000047H   BYTE   INSEG    CODE           ?PR?SYS_TRAP?SYS_CTRL
FF1729H   FF177FH   000057H   BYTE   INSEG    CODE           ?PR?MSG_INMSGPROC?MSG_CTRL
FF1780H   FF179AH   00001BH   BYTE   INSEG    CODE           ?PR?Q_MEMGET?SYS_QCTRL
FF179BH   FF17C1H   000027H   BYTE   INSEG    CODE           ?PR?MAC_HTRP_RX_INIT?MAC_HTRP_RX
FF17C2H   FF17CDH   00000CH   BYTE   INSEG    CODE           ?PR?MAC_ISRINIT?MAC_ISR
FF17CEH   FF17E4H   000017H   BYTE   INSEG    CODE           ?PR?MSG_HDLR?MSG_CTRL
FF17E5H   FF17E9H   000005H   BYTE   INSEG    CODE           ?PR?INTR_ENABLE?INTR_RF
FF17EAH   FF17EEH   000005H   BYTE   INSEG    CODE           ?PR?MAC_HTRP_RX_SET_STATE?MAC_HTRP_RX
FF17EFH   FF17F4H   000006H   BYTE   INSEG    CODE           ?PR?MAC_HTRP_TX_INIT?MAC_HTRP_TX
FF17F5H   FF1813H   00001FH   BYTE   INSEG    CODE           ?PR?Q_MEMALLOC?SYS_QCTRL
FF1814H   FF1855H   000042H   BYTE   INSEG    CODE           ?PR?RF_TASK_EN?RF_TASK_CTRL
FF1856H   FF18FFH   0000AAH   BYTE   INSEG    CODE           ?PR?TRTTASK_SET?MAC_TASK_CTRL
FF1900H   FF19ADH   0000AEH   BYTE   INSEG    CODE           ?PR?RF_TASK_SET?RF_TASK_CTRL
FF19AEH   FF1AD1H   000124H   BYTE   INSEG    CODE           ?PR?T2RTASK_SET?MAC_TASK_CTRL
FF1AD2H   FF1B8EH   0000BDH   BYTE   INSEG    CODE           ?PR?MAC_HTRP_RX_SET_RF_TASK?MAC_HTRP_RX
FF1B8FH   FF1DA6H   000218H   BYTE   INSEG    CODE           ?PR?MAC_HTRP_RX_SET_PERIOD_NEXT_TASK?MAC_HTRP_RX
FF1DA7H   FF1DBEH   000018H   BYTE   INSEG    CODE           ?PR?MAC_HTRP_CTRL_CHANNEL_SET?MAC_HTRP_CONTROL
FF1DBFH   FF1DD9H   00001BH   BYTE   INSEG    CODE           ?PR?RTC_CLKGET?_?SYS_RTC
FF1DDAH   FF1E60H   000087H   BYTE   INSEG    CODE           ?PR?MAC_HTRP_RX_CAL_DRIFT_TIME?MAC_HTRP_RX
L251 LINKER/LOCATER V4.66.93.0                                                        12/18/2023  14:21:09  PAGE 7


FF1E61H   FF1F1EH   0000BEH   BYTE   INSEG    CODE           ?PR?MAC_HTRP_RX_SET_NEXT_TASK_AND_CHANNEL?MAC_HTRP_RX
FF1F1FH   FF1F36H   000018H   BYTE   INSEG    CODE           ?PR?RTC_TICKGAPCOUNT?SYS_RTC
FF1F37H   FF1FF4H   0000BEH   BYTE   INSEG    CODE           ?PR?MAC_HTRP_TX_SET_RF_TASK?MAC_HTRP_TX
FF1FF5H   FF1FF9H   000005H   BYTE   INSEG    CODE           ?PR?MAC_HTRP_RX_GET_STATE?MAC_HTRP_RX
FF1FFAH   FF2028H   00002FH   BYTE   INSEG    CODE           ?PR?MAC_HTRP_CTRL_INCREASE_CHANNEL_INDEX?MAC_HTRP_CONTROL
FF2029H   FF2051H   000029H   BYTE   INSEG    CODE           ?PR?INTR_CLEAR?INTR_RF
FF2052H   FF2062H   000011H   BYTE   INSEG    CODE           ?PR?INTR_CLEARRTCGRP?INTR_RF
FF2063H   FF2071H   00000FH   BYTE   INSEG    CODE           ?PR?INTR_RF_HDLR?INTR_RF
FF2072H   FF20F8H   000087H   BYTE   INSEG    CODE           ?PR?ISR_0_HDLR?ISR_HDLR
FF20F9H   FF20F9H   000001H   BYTE   INSEG    CODE           ?PR?INTR_RF_NULLHDLR?INTR_RF
FF20FAH   FF2135H   00003CH   BYTE   INSEG    CODE           ?PR?SYS_INFOREGINIT?SYS_INIT
FF2136H   FF2160H   00002BH   BYTE   INSEG    CODE           ?PR?SYS_TASK_BLOCK?SYS_TASK
FF2161H   FF23B9H   000259H   BYTE   INSEG    CODE           ?PR?MAC_HTRP_TX_HANDLER?MAC_HTRP_TX
FF23BAH   FF23BEH   000005H   BYTE   INSEG    CODE           ?PR?MAC_HTRP_TX_SET_STATE?MAC_HTRP_TX
FF23BFH   FF24AEH   0000F0H   BYTE   INSEG    CODE           ?PR?MAC_HTRP_SET_TX_QUEUE?MAC_HTRP_CONTROL
FF24AFH   FF24B7H   000009H   BYTE   INSEG    CODE           ?PR?MAC_HTRP_REG_ISR_CB?MAC_HTRP_CONTROL
FF24B8H   FF24CBH   000014H   BYTE   INSEG    CODE           ?PR?MAC_HTRP_GET_TX_DATA?MAC_HTRP_CONTROL
FF24CCH   FF24F8H   00002DH   BYTE   INSEG    CODE           ?PR?MAC_FUNEVENTQGET?_?MAC
FF24F9H   FF252AH   000032H   BYTE   INSEG    CODE           ?PR?SYS_TASK_UNBLOCK?SYS_TASK
FF252BH   FF2559H   00002FH   BYTE   INSEG    CODE           ?PR?HALMAC_PHRSET?HAL_MAC
FF255AH   FF25A6H   00004DH   BYTE   INSEG    CODE           ?PR?HALPKT_TXQDONESET?HAL_PKT
FF25A7H   FF25D8H   000032H   BYTE   INSEG    CODE           ?PR?MAC_INTEVENTQUEUECLEARTXDATA?MAC
FF25D9H   FF2614H   00003CH   BYTE   INSEG    CODE           ?PR?MAC_INTEVENTQADD?_?MAC
FF2615H   FF26BEH   0000AAH   BYTE   INSEG    CODE           ?PR?MAC_TXGETBMUDATA?MAC_TARSCHEDULE
FF26BFH   FF26F7H   000039H   BYTE   INSEG    CODE           ?PR?MAC_HTRP_ISR_TX_DONE_HANDLER?MAC_HTRP_CONTROL
FF26F8H   FF2733H   00003CH   BYTE   INSEG    CODE           ?PR?MAC_FUNEVENTQADD?_?MAC
FF2734H   FF2781H   00004EH   BYTE   INSEG    CODE           ?PR?MAC_RAA_SCHWAITRXDONEHDLR?MAC_RAASCHEDULE
FF2782H   FF2786H   000005H   BYTE   INSEG    CODE           ?PR?MAC_HTRP_TX_GET_STATE?MAC_HTRP_TX
FF2787H   FF2792H   00000CH   BYTE   INSEG    CODE           ?PR?MAC_RAACLEARACKQANDGENRXDATA?MAC_RAASCHEDULE
FF2793H   FF28A9H   000117H   BYTE   INSEG    CODE           ?PR?MAC_RXDONEEVENTGEN?_?MAC_RAASCHEDULE
FF28AAH   FF2900H   000057H   BYTE   INSEG    CODE           ?PR?HALPKT_RXQDONESET?HAL_PKT
FF2901H   FF29EDH   0000EDH   BYTE   INSEG    CODE           ?PR?MAC_TAR_SCHWAITACKRXDONEHDLR?MAC_TARSCHEDULE
FF29EEH   FF2A61H   000074H   BYTE   INSEG    CODE           ?PR?MAC_RXHWSET?MAC_TARSCHEDULE
FF2A62H   FF2E3BH   0003DAH   BYTE   INSEG    CODE           ?PR?MAC_HTRP_RX_HANDLER?MAC_HTRP_RX
FF2E3CH   FF2EC6H   00008BH   BYTE   INSEG    CODE           ?PR?BMU_RXCONFIG?BMU_RX
FF2EC7H   FF2ECFH   000009H   BYTE   INSEG    CODE           ?PR?HALMAC_MAXPAYLOADDFTGET?HAL_MAC
FF2ED0H   FF2F1DH   00004EH   BYTE   INSEG    CODE           ?PR?PCICNFEVENTSENDTOMSGQUEUE?MAC_EVENT_GEN
FF2F1EH   FF2F65H   000048H   BYTE   INSEG    CODE           ?PR?PCI_BLEPHY_GETHTRP_STATUS?MAC_CMD_HDLR
FF2F66H   FF2FDCH   000077H   BYTE   INSEG    CODE           ?PR?MAC_HTRP_CLEAR_RX_QUEUE?MAC_HTRP_CONTROL
FF2FDDH   FF2FEBH   00000FH   BYTE   INSEG    CODE           ?PR?MAC_HTRP_SET_RX_QUEUE?MAC_HTRP_CONTROL
FF2FECH   FF303AH   00004FH   BYTE   INSEG    CODE           ?PR?MAC_HTRP_SET_RX_HW_QUEUE?MAC_HTRP_CONTROL
FF303BH   FF3069H   00002FH   BYTE   INSEG    CODE           ?PR?SYS_TASK_REGISTER?SYS_TASK
FF306AH   FF3097H   00002EH   BYTE   INSEG    CODE           ?PR?SYS_TASK_RUN?SYS_TASK
FF3098H   FF3098H   000001H   BYTE   INSEG    CODE           ?PR?SYS_NULL_TASK?SYS_TASK
FF3099H   FF30A9H   000011H   BYTE   INSEG    CODE           ?PR?ISR_CLEAR_MAC_STATUS?ISR_HDLR
FF30AAH   FF30B3H   00000AH   BYTE   INSEG    CODE           ?PR?MAC_FATALCLEAR?MAC
FF30B4H   FF3182H   0000CFH   BYTE   INSEG    CODE           ?PR?SETRFIDLE?MAC_CMD_HDLR
FF3183H   FF3191H   00000FH   BYTE   INSEG    CODE           ?PR?MAC_FUNEVENTQUEUEEXIST?MAC
FF3192H   FF31ABH   00001AH   BYTE   INSEG    CODE           ?PR?PCI_SETRFERXDISABLECMD?MAC_CMD_HDLR
FF31ACH   FF31C7H   00001CH   BYTE   INSEG    CODE           ?PR?PCI_SETFSKPREAMBLE?MAC_CMD_HDLR
FF31C8H   FF31D2H   00000BH   BYTE   INSEG    CODE           ?PR?HALPHY_PREAMNUMSET?HAL_PHY
FF31D3H   FF31DEH   00000CH   BYTE   UNIT     CODE           ?L?COM001B
FF31DFH   FF3200H   000022H   BYTE   INSEG    CODE           ?PR?PCI_BLECMDINITBLE?MAC_CMD_HDLR
FF3201H   FF3232H   000032H   BYTE   INSEG    CODE           ?PR?PCI_PARARESET?MAC_CMD_HDLR
FF3233H   FF3260H   00002EH   BYTE   INSEG    CODE           ?PR?PCI_PARSEFSKCMD?MAC_CMD_HDLR
FF3261H   FF3299H   000039H   BYTE   INSEG    CODE           ?PR?PCI_INITFSK?MAC_CMD_HDLR
FF329AH   FF32E5H   00004CH   BYTE   INSEG    CODE           ?PR?PCI_SETFSKSFD?MAC_CMD_HDLR
FF32E6H   FF3334H   00004FH   BYTE   INSEG    CODE           ?PR?PCI_SETFSKMAC?MAC_CMD_HDLR
FF3335H   FF333DH   000009H   BYTE   INSEG    CODE           ?PR?HALMAC_WHITENINITDFTGET?HAL_MAC
FF333EH   FF338CH   00004FH   BYTE   INSEG    CODE           ?PR?PCI_OQPSKCMDSETOQPSKMAC?MAC_CMD_HDLR
FF338DH   FF33A7H   00001BH   BYTE   INSEG    CODE           ?PR?HALMAC_CRCINITDFTGET?HAL_MAC
FF33A8H   FF33B9H   000012H   BYTE   INSEG    CODE           ?PR?PCI_SETFSKTYPE?MAC_CMD_HDLR
FF33BAH   FF33C4H   00000BH   BYTE   INSEG    CODE           ?PR?HALPHY_GAUSSIANFILTSET?HAL_PHY
FF33C5H   FF33D0H   00000CH   BYTE   UNIT     CODE           ?L?COM000D
FF33D1H   FF33E4H   000014H   BYTE   INSEG    CODE           ?PR?HALMAC_TXSFDSET?HAL_MAC
L251 LINKER/LOCATER V4.66.93.0                                                        12/18/2023  14:21:09  PAGE 8


FF33E5H   FF33ECH   000008H   BYTE   UNIT     CODE           ?L?COM001D
FF33EDH   FF3733H   000347H   BYTE   INSEG    CODE           ?PR?MAC_GENENHACK?MAC_RAASCHEDULE
FF3734H   FF3791H   00005EH   BYTE   INSEG    CODE           ?PR?MAC_ENDIANCONVERT?MAC_RAASCHEDULE
FF3792H   FF37A4H   000013H   BYTE   INSEG    CODE           ?PR?MAC_RSSIINFOCALC?MAC_RAASCHEDULE
FF37A5H   FF37C0H   00001CH   BYTE   INSEG    CODE           ?PR?MAC_SRCMATCH_ENABLESTATUSGET?MAC_SRCMATCH
FF37C1H   FF37E3H   000023H   BYTE   INSEG    CODE           ?PR?HALMAC_WHITENSET?HAL_MAC
FF37E4H   FF37EBH   000008H   BYTE   UNIT     CODE           ?L?COM0046
FF37ECH   FF37F6H   00000BH   BYTE   INSEG    CODE           ?PR?HALMAC_RXMHRRPTLENSET?HAL_MAC
FF37F7H   FF3835H   00003FH   BYTE   INSEG    CODE           ?PR?HALMAC_CRCSET?HAL_MAC
FF3836H   FF3844H   00000FH   BYTE   INSEG    CODE           ?PR?ISR_GET_MAC_STATUS?ISR_HDLR
FF3845H   FF3855H   000011H   BYTE   INSEG    CODE           ?PR?MAC_CHECKISRRXRECEIVED?MAC
FF3856H   FF38D1H   00007CH   BYTE   INSEG    CODE           ?PR?MAC_CCASTATUSGET?MAC_TARSCHEDULE
FF38D2H   FF38F6H   000025H   BYTE   INSEG    CODE           ?PR?MAC_CHECKRXBUSY?MAC
FF38F7H   FF3971H   00007BH   BYTE   INSEG    CODE           ?PR?PCIHTRPHWSTATUSEVENTDONEEVENTSENDTOMSGQUEUE?MAC_EVENT_
                                                             -GEN
FF3972H   FF3A43H   0000D2H   BYTE   INSEG    CODE           ?PR?MAC_TAR_SCHWAITCCADONEHDLR?MAC_TARSCHEDULE
FF3A44H   FF3A54H   000011H   BYTE   INSEG    CODE           ?PR?MAC_TXSTART?MAC_TARSCHEDULE
FF3A55H   FF3A70H   00001CH   BYTE   INSEG    CODE           ?PR?MAC_TXTASKSET?MAC_TARSCHEDULE
FF3A71H   FF3ABBH   00004BH   BYTE   INSEG    CODE           ?PR?MAC_CCASTART?MAC_TARSCHEDULE
FF3ABCH   FF3ACBH   000010H   BYTE   INSEG    CODE           ?PR?MAC_WAITFORRXTASKREADY?MAC_TARSCHEDULE
FF3ACCH   FF3AD0H   000005H   BYTE   INSEG    CODE           ?PR?MAC_TAR_CCA_SETUP?MAC_TARSCHEDULE
FF3AD1H   FF3BCCH   0000FCH   BYTE   INSEG    CODE           ?PR?MAC_TAR_SCHWAITNORMALRXMSGHDLR?MAC_TARSCHEDULE
FF3BCDH   FF3C4FH   000083H   BYTE   INSEG    CODE           ?PR?MAC_TXDONEEVENTGEN?MAC_TARSCHEDULE
FF3C50H   FF3C65H   000016H   BYTE   INSEG    CODE           ?PR?SYS_ISCLKAPASSOVERCLKB?SYS_CTRL
FF3C66H   FF3C99H   000034H   BYTE   INSEG    CODE           ?PR?MAC_TAR_SCHWAITNORMALACKDONEHDLR?MAC_TARSCHEDULE
FF3C9AH   FF3D16H   00007DH   BYTE   INSEG    CODE           ?PR?MAC_TAR_SCHCONFIGHDLR?MAC_TARSCHEDULE
FF3D17H   FF3D85H   00006FH   BYTE   INSEG    CODE           ?PR?MAC_TXHWSET?MAC_TARSCHEDULE
FF3D86H   FF3E16H   000091H   BYTE   INSEG    CODE           ?PR?PCI_SETPHR?MAC_CMD_HDLR
FF3E17H   FF3EB0H   00009AH   BYTE   INSEG    CODE           ?PR?BMU_TXCONFIG?BMU_TX
FF3EB1H   FF3EBEH   00000EH   BYTE   UNIT     CODE           ?L?COM0018
FF3EBFH   FF3ED7H   000019H   BYTE   INSEG    CODE           ?PR?HALMAC_CRCLENCFGGET?HAL_MAC
FF3ED8H   FF3F38H   000061H   BYTE   INSEG    CODE           ?PR?MAC_SECLBHWSET?MAC_TARSCHEDULE
FF3F39H   FF3F71H   000039H   BYTE   INSEG    CODE           ?PR?MAC_BACKOFFTIMECAL?MAC_TARSCHEDULE
FF3F72H   FF3FC8H   000057H   BYTE   INSEG    CODE           ?PR?HALMAC_RXPAYLOADLENGET?HAL_MAC
FF3FC9H   FF3FD0H   000008H   BYTE   INSEG    CODE           ?PR?HAL_HWMODEGET?HAL
FF3FD1H   FF3FDDH   00000DH   BYTE   INSEG    CODE           ?PR?MAC_ISR_REG_CB?MAC_ISR
FF3FDEH   FF3FEFH   000012H   BYTE   INSEG    CODE           ?PR?MAC_TARPARINIT?MAC_TARSCHEDULE
FF3FF0H   FF4067H   000078H   BYTE   INSEG    CODE           ?PR?HALSEC_AESSET?HAL_SEC
FF4068H   FF4068H   000001H   BYTE   INSEG    CODE           ?PR?ISR_1_HDLR?ISR_HDLR
FF4069H   FF40FFH   000097H   BYTE   INSEG    CODE           ?PR?SYS_RAND?SYS_CTRL
FF4100H   FF4110H   000011H   BYTE   INSEG    CODE           ?PR?SYS_TIMERINIT?SYS_CTRL
FF4111H   FF4185H   000075H   BYTE   INSEG    CODE           ?PR?SYS_SLEEP?SYS_CTRL
FF4186H   FF41B5H   000030H   BYTE   INSEG    CODE           ?PR?SYS_ENTERSLEEPCHECK?SYS_CTRL
FF41B6H   FF41E3H   00002EH   BYTE   INSEG    CODE           ?PR?MSG_IDLE?MSG_CTRL
FF41E4H   FF424DH   00006AH   BYTE   INSEG    CODE           ?PR?MAC_SLEEPCHECK?MAC
FF424EH   FF4252H   000005H   BYTE   INSEG    CODE           ?PR?SYS_SLEEPMINTIMEGET?SYS_CTRL
FF4253H   FF4257H   000005H   BYTE   INSEG    CODE           ?PR?MAC_HTRP_READY_TO_SLEEP?MAC_HTRP_CONTROL
FF4258H   FF425FH   000008H   BYTE   UNIT     CODE           ?L?COM004F
FF4260H   FF435AH   0000FBH   BYTE   INSEG    CODE           ?PR?PCI_SETWAKEONRADIO?MAC_CMD_HDLR
FF435BH   FF4427H   0000CDH   BYTE   INSEG    CODE           ?PR?PCI_PARSECOMMONCMD?MAC_CMD_HDLR
FF4428H   FF4433H   00000CH   BYTE   INSEG    CODE           ?PR?PCI_GETCRCCOUNT?MAC_CMD_HDLR
FF4434H   FF4491H   00005EH   BYTE   INSEG    CODE           ?PR?PCIGETCRCEVENTSENDTOMSGQUEUE?MAC_EVENT_GEN
FF4492H   FF449DH   00000CH   BYTE   INSEG    CODE           ?PR?PCI_GETRSSI?MAC_CMD_HDLR
FF449EH   FF44FAH   00005DH   BYTE   INSEG    CODE           ?PR?PCIGETRSSIEVENTSENDTOMSGQUEUE?MAC_EVENT_GEN
FF44FBH   FF4506H   00000CH   BYTE   INSEG    CODE           ?PR?PCI_GETPHYSTATUS?MAC_CMD_HDLR
FF4507H   FF458CH   000086H   BYTE   INSEG    CODE           ?PR?PCIGETPHYSTATUSEVENTSENDTOMSGQUEUE?MAC_EVENT_GEN
FF458DH   FF4661H   0000D5H   BYTE   INSEG    CODE           ?PR?Q_QPUSHBACK?SYS_QCTRL
FF4662H   FF469FH   00003EH   BYTE   INSEG    CODE           ?PR?PCI_ENABLESINGLETONE?MAC_CMD_HDLR
FF46A0H   FF46E6H   000047H   BYTE   INSEG    CODE           ?PR?PCI_SETRFESECURITYCMD?MAC_CMD_HDLR
FF46E7H   FF4710H   00002AH   BYTE   INSEG    CODE           ?PR?HALSEC_AESKEYSET?HAL_SEC
FF4711H   FF4759H   000049H   BYTE   INSEG    CODE           ?PR?PCI_SETRXTASKPARA?MAC_CMD_HDLR
FF475AH   FF47B3H   00005AH   BYTE   INSEG    CODE           ?PR?CMN_GETVOLTAGERPTEVENTSEND?COMMON_EVENT_GEN
FF47B4H   FF48A3H   0000F0H   BYTE   INSEG    CODE           ?PR?RUCI_ENDIANCONVERT?RUCI
FF48A4H   FF48B9H   000016H   BYTE   INSEG    CODE           ?PR?SYS_ENTERSLEEPGUARD?SYS_CTRL
FF48BAH   FF48CAH   000011H   BYTE   INSEG    CODE           ?PR?SYS_IDLE_TASK?SYS_CTRL
L251 LINKER/LOCATER V4.66.93.0                                                        12/18/2023  14:21:09  PAGE 9


FF48CBH   FF48DFH   000015H   BYTE   INSEG    CODE           ?PR?MAC_INTEVENTQUEUEHANDLER?MAC
FF48E0H   FF48F0H   000011H   BYTE   INSEG    CODE           ?PR?PCIQUEUEGETANDMACINTQUEUEADD?MAC
FF48F1H   FF496BH   00007BH   BYTE   INSEG    CODE           ?PR?COMMON_ISRBMUCHECKTX?COMMON_ISR
FF496CH   FF49C8H   00005DH   BYTE   INSEG    CODE           ?PR?BMU_TXQUEUEGET?BMU_TX
FF49C9H   FF4B54H   00018CH   BYTE   INSEG    CODE           ?PR?MAC_CMDQUEUEPARSE?MAC_CMD_HDLR
FF4B55H   FF4B62H   00000EH   BYTE   INSEG    CODE           ?PR?PCI_PARSECMNSYSCMD?MAC_CMD_HDLR
FF4B63H   FF4B6DH   00000BH   BYTE   INSEG    CODE           ?PR?CMN_CMDSYS_GETRFBFWVER?COMMON_CMD_HDLR
FF4B6EH   FF4BE0H   000073H   BYTE   INSEG    CODE           ?PR?CMN_GETFWVEREVENTSEND?COMMON_EVENT_GEN
FF4BE1H   FF4BF1H   000011H   BYTE   INSEG    CODE           ?PR?Q_QNUMGET?SYS_QCTRL
FF4BF2H   FF4C0EH   00001DH   BYTE   INSEG    CODE           ?PR?Q_QFREE?SYS_QCTRL
FF4C0FH   FF4C2BH   00001DH   BYTE   INSEG    CODE           ?PR?PCI_PARSEOQPSKCMD?MAC_CMD_HDLR
FF4C2CH   FF4C54H   000029H   BYTE   INSEG    CODE           ?PR?MSG_OUTMSGTOBMU?MSG_CTRL
FF4C55H   FF4C7EH   00002AH   BYTE   INSEG    CODE           ?PR?MSG_OUTMSGPROC?MSG_CTRL
FF4C7FH   FF4C87H   000009H   BYTE   INSEG    CODE           ?PR?MSG_OUTSTATESET?MSG_CTRL
FF4C88H   FF4C9DH   000016H   BYTE   INSEG    CODE           ?PR?Q_QGET?SYS_QCTRL
FF4C9EH   FF4CE4H   000047H   BYTE   INSEG    CODE           ?PR?CMD_CNFEVENTSEND?COMMON_EVENT_GEN
FF4CE5H   FF4CEFH   00000BH   BYTE   INSEG    CODE           ?PR?CMN_CMDHAL_GETTEMPERATURERPT?COMMON_CMD_HDLR
FF4CF0H   FF4D4DH   00005EH   BYTE   INSEG    CODE           ?PR?CMN_GETTEMPERATURERPTEVENTSEND?COMMON_EVENT_GEN
FF4D4EH   FF4DC7H   00007AH   BYTE   INSEG    CODE           ?PR?PCI_PARSECMNHALCMD?MAC_CMD_HDLR
FF4DC8H   FF4DD8H   000011H   BYTE   INSEG    CODE           ?PR?CMN_CMDHAL_SETCALIBRATIONENABLE?COMMON_CMD_HDLR
FF4DD9H   FF4E2CH   000054H   BYTE   INSEG    CODE           ?PR?CMN_SETCALIBRATIONENABLEEVENTSEND?COMMON_EVENT_GEN
FF4E2DH   FF4E41H   000015H   BYTE   INSEG    CODE           ?PR?CMN_CMDHAL_SETTXPWRCHCOMP?COMMON_CMD_HDLR
FF4E42H   FF4E57H   000016H   BYTE   INSEG    CODE           ?PR?CMN_CMDHAL_SETTXPWRCHSEGMENT?COMMON_CMD_HDLR
FF4E58H   FF4E74H   00001DH   BYTE   INSEG    CODE           ?PR?CMN_CMDHAL_SETTXPWRCOMP?COMMON_CMD_HDLR
FF4E75H   FF4E7DH   000009H   BYTE   INSEG    CODE           ?PR?CMN_CMDHAL_SETPMUMPKSETTING?COMMON_CMD_HDLR
FF4E7EH   FF4E89H   00000CH   BYTE   INSEG    CODE           ?PR?CMN_CMDHAL_GETVOLTAGERPT?COMMON_CMD_HDLR
FF4E8AH   FF4EA2H   000019H   BYTE   INSEG    CODE           ?PR?CMN_CMDHAL_SETPMUOPMODE?COMMON_CMD_HDLR
FF4EA3H   FF4EBDH   00001BH   BYTE   INSEG    CODE           ?PR?CMN_CMDHAL_SETRSSIOFFSET?COMMON_CMD_HDLR
FF4EBEH   FF4EE0H   000023H   BYTE   INSEG    CODE           ?PR?CMN_CMDHAL_SETAGC?COMMON_CMD_HDLR
FF4EE1H   FF4F03H   000023H   BYTE   INSEG    CODE           ?PR?HALRF_TXPWRCOMPSET?HAL_RF
FF4F04H   FF4F4EH   00004BH   BYTE   INSEG    CODE           ?PR?HALRF_TXPWRCOMPUPDATE?HAL_RF
FF4F4FH   FF4F73H   000025H   BYTE   INSEG    CODE           ?PR?CMN_CMDHAL_SETTXPOWERBY?COMMON_CMD_HDLR
FF4F74H   FF4F9CH   000029H   BYTE   INSEG    CODE           ?PR?HALRF_TXPWRCHCOMPSET?HAL_RF
FF4F9DH   FF4FCFH   000033H   BYTE   INSEG    CODE           ?PR?CMN_CMDHAL_SETCALIBRATIONSETTING?COMMON_CMD_HDLR
FF4FD0H   FF4FDFH   000010H   BYTE   INSEG    CODE           ?PR?MSG_OUTMSGFORCEHANDLE?MSG_CTRL
FF4FE0H   FF4FF5H   000016H   BYTE   INSEG    CODE           ?PR?Q_QLENGET?SYS_QCTRL
FF4FF6H   FF502DH   000038H   BYTE   INSEG    CODE           ?PR?Q_INIT?SYS_QCTRL
FF502EH   FF5047H   00001AH   BYTE   INSEG    CODE           ?PR?Q_MEMFREECOUNT?SYS_QCTRL
FF5048H   FF5054H   00000DH   BYTE   INSEG    CODE           ?PR?Q_MEMFREE?SYS_QCTRL
FF5055H   FF5112H   0000BEH   BYTE   INSEG    CODE           ?PR?Q_QPUSHFRONT?SYS_QCTRL
FF5113H   FF5192H   000080H   BYTE   INSEG    CODE           ?PR?Q_QMOVEBACK?SYS_QCTRL
FF5193H   FF51CDH   00003BH   BYTE   INSEG    CODE           ?PR?Q_QCHAGETYPE?SYS_QCTRL
FF51CEH   FF5269H   00009CH   BYTE   INSEG    CODE           ?PR?Q_QREMOVE?SYS_QCTRL
FF526AH   FF5290H   000027H   BYTE   INSEG    CODE           ?PR?RTC_UDELAY?SYS_RTC
FF5291H   FF52FFH   00006FH   BYTE   INSEG    CODE           ?PR?HALRFK_LBTRXENABLE?HAL_RT569MP_RFK
FF5300H   FF53A1H   0000A2H   BYTE   INSEG    CODE           ?PR?HALRFK_CALIBRATION?HAL_RFK
FF53A2H   FF53AEH   00000DH   BYTE   INSEG    CODE           ?PR?HALRFK_SINGLETONEDISABLE?HAL_RT569MP_RFK
FF53AFH   FF53CCH   00001EH   BYTE   INSEG    CODE           ?PR?HALRFK_LBTRXDISABLE?HAL_RT569MP_RFK
FF53CDH   FF53EDH   000021H   BYTE   INSEG    CODE           ?PR?HALRFK_SINGLETONEENABLE?HAL_RT569MP_RFK
FF53EEH   FF5463H   000076H   BYTE   INSEG    CODE           ?PR?HALRFK_RSSIGET?HAL_RT569MP_RFK
FF5464H   FF5507H   0000A4H   BYTE   INSEG    CODE           ?PR?HALRFK_RXFILTK?HAL_RT569MP_RFK
FF5508H   FF5526H   00001FH   BYTE   INSEG    CODE           ?PR?HALRFK_PLLFORLOKSET?HAL_RT569MP_RFK
FF5527H   FF5545H   00001FH   BYTE   INSEG    CODE           ?PR?HALRFK_PLLFORSIDEBANDKSET?HAL_RT569MP_RFK
FF5546H   FF558FH   00004AH   BYTE   INSEG    CODE           ?PR?HALRFK_RFGAINCFG?HAL_RT569MP_RFK
FF5590H   FF55A2H   000013H   BYTE   UNIT     CODE           ?L?COM0008
FF55A3H   FF55F5H   000053H   BYTE   INSEG    CODE           ?PR?HALRFK_PLLFORFILTKSET?HAL_RT569MP_RFK
FF55F6H   FF56B8H   0000C3H   BYTE   INSEG    CODE           ?PR?HALRFK_RFTXCFG?HAL_RT569MP_RFK
FF56B9H   FF5723H   00006BH   BYTE   INSEG    CODE           ?PR?HALRFK_RFPLLCFG?HAL_RT569MP_RFK
FF5724H   FF57B6H   000093H   BYTE   INSEG    CODE           ?PR?HALRF_AGCSET2HW?HAL_RT569MP_RF
FF57B7H   FF57E4H   00002EH   BYTE   UNIT     CODE           ?L?COM0006
FF57E5H   FF57F0H   00000CH   BYTE   UNIT     CODE           ?L?COM0036
FF57F1H   FF57FCH   00000CH   BYTE   UNIT     CODE           ?L?COM0037
FF57FDH   FF586CH   000070H   BYTE   INSEG    CODE           ?PR?RTC_TIMERCONFIG?SYS_RTC
FF586DH   FF587FH   000013H   BYTE   INSEG    CODE           ?PR?RTC_TIMERWAKEUPDISABLE?SYS_RTC
FF5880H   FF58EEH   00006FH   BYTE   INSEG    CODE           ?PR?PCI_SET15P4CSLRECEIVERCTRL?MAC_CMD_HDLR
L251 LINKER/LOCATER V4.66.93.0                                                        12/18/2023  14:21:09  PAGE 10


FF58EFH   FF5969H   00007BH   BYTE   INSEG    CODE           ?PR?PCI_PARSE15P4SWMACCMD?MAC_CMD_HDLR
FF596AH   FF5975H   00000CH   BYTE   INSEG    CODE           ?PR?PCI_GET15P4CSLACCURACY?MAC_CMD_HDLR
FF5976H   FF599FH   00002AH   BYTE   INSEG    CODE           ?PR?PCICSLACCURACYEVENTSENDTOMSGQUEUE?MAC_EVENT_GEN
FF59A0H   FF59ABH   00000CH   BYTE   INSEG    CODE           ?PR?PCI_GET15P4CSLUNCERTAINTY?MAC_CMD_HDLR
FF59ACH   FF59D5H   00002AH   BYTE   INSEG    CODE           ?PR?PCICSLUNCERTAINTYEVENTSENDTOMSGQUEUE?MAC_EVENT_GEN
FF59D6H   FF59E5H   000010H   BYTE   INSEG    CODE           ?PR?PCI_PARSE15P4SMENABLE?MAC_CMD_HDLR
FF59E6H   FF59F4H   00000FH   BYTE   INSEG    CODE           ?PR?MAC_SRCMATCH_ENABLE?MAC_SRCMATCH
FF59F5H   FF5A21H   00002DH   BYTE   INSEG    CODE           ?PR?PCI_PARSE15P4PENDINGBIT?MAC_CMD_HDLR
FF5A22H   FF5A58H   000037H   BYTE   INSEG    CODE           ?PR?GET_PAN_NUMBER?MAC_CMD_HDLR
FF5A59H   FF5B0FH   0000B7H   BYTE   INSEG    CODE           ?PR?PCI_PARSE15P4ADDRESSFILTER?MAC_CMD_HDLR
FF5B10H   FF5B32H   000023H   BYTE   INSEG    CODE           ?PR?REVERSE_UINT32CPY?MAC_CMD_HDLR
FF5B33H   FF5BD0H   00009EH   BYTE   INSEG    CODE           ?PR?PCI_PARSET15P4SMENTRYCTRL?MAC_CMD_HDLR
FF5BD1H   FF5E51H   000281H   BYTE   INSEG    CODE           ?PR?MAC_SRCMATCH_LISTCLEAR?MAC_SRCMATCH
FF5E52H   FF5E72H   000021H   BYTE   INSEG    CODE           ?PR?MAC_SRCMATCH_LISTFINDIDX?MAC_SRCMATCH
FF5E73H   FF5E97H   000025H   BYTE   INSEG    CODE           ?PR?MAC_SRCMATCH_LISTFIND?MAC_SRCMATCH
FF5E98H   FF5EA9H   000012H   BYTE   INSEG    CODE           ?PR?PCI_PARSE15P4AUTOACK?MAC_CMD_HDLR
FF5EAAH   FF5EC7H   00001EH   BYTE   INSEG    CODE           ?PR?MAC_SRCMATCH_LISTMODIFY?MAC_SRCMATCH
FF5EC8H   FF5EE8H   000021H   BYTE   INSEG    CODE           ?PR?MAC_SRCMATCH_LISTADD?MAC_SRCMATCH
FF5EE9H   FF5F21H   000039H   BYTE   INSEG    CODE           ?PR?PCI_PARSE15P4PHYPIB?MAC_CMD_HDLR
FF5F22H   FF5F5CH   00003BH   BYTE   INSEG    CODE           ?PR?PCI_UPDATE15P4CSLSAMPLETIME?MAC_CMD_HDLR
FF5F5DH   FF5F9DH   000041H   BYTE   INSEG    CODE           ?PR?PCI_PARSE15P4MACPIB?MAC_CMD_HDLR
FF5F9EH   FF5FA7H   00000AH   BYTE   INSEG    CODE           ?PR?RTC_WAITFORTRIGGERED?SYS_RTC
FF5FA8H   FF5FCDH   000026H   BYTE   INSEG    CODE           ?PR?RTC_TRIGGERWITHINUS?SYS_RTC
FF5FCEH   FF5FE9H   00001CH   BYTE   INSEG    CODE           ?PR?RTC_ISRHDLRINIT?SYS_RTC
FF5FEAH   FF603CH   000053H   BYTE   INSEG    CODE           ?PR?RTC_INIT?SYS_RTC
FF603DH   FF603DH   000001H   BYTE   INSEG    CODE           ?PR?RTC_NULLHDLR?SYS_RTC
FF603EH   FF604AH   00000DH   BYTE   INSEG    CODE           ?PR?RTC_ISRHDLR?SYS_RTC
FF604BH   FF6108H   0000BEH   BYTE   INSEG    CODE           ?PR?COMMON_ISRBMUTXQADD?_?COMMON_ISR
FF6109H   FF61B4H   0000ACH   BYTE   INSEG    CODE           ?PR?COMMON_ISRBMUTXQGETBYHANDLE?_?COMMON_ISR
FF61B5H   FF6259H   0000A5H   BYTE   INSEG    CODE           ?PR?COMMON_ISRBMUTXQPCIGET?COMMON_ISR
FF625AH   FF63C8H   00016FH   BYTE   INSEG    CODE           ?PR?COMMON_ISRBMUTXQDELETEALLBYCONDITION?_?COMMON_ISR
FF63C9H   FF6452H   00008AH   BYTE   INSEG    CODE           ?PR?COMMON_ISRBMUTXQDELETEBYPTR?_?COMMON_ISR
FF6453H   FF6469H   000017H   BYTE   INSEG    CODE           ?PR?MACTXFREEBMUDATA?MAC_TARSCHEDULE
FF646AH   FF6474H   00000BH   BYTE   INSEG    CODE           ?PR?MAC_HTRP_SEND_TX_DONE?MAC_HTRP_CONTROL
FF6475H   FF6488H   000014H   BYTE   INSEG    CODE           ?PR?MAC_HTRP_CLEAR_TX_QUEUE?MAC_HTRP_CONTROL
FF6489H   FF64F8H   000070H   BYTE   INSEG    CODE           ?PR?COMMON_ISRBMUTXQINIT?COMMON_ISR
FF64F9H   FF6502H   00000AH   BYTE   INSEG    CODE           ?PR?COMMON_ISRBMUHANDLER?COMMON_ISR
FF6503H   FF6537H   000035H   BYTE   INSEG    CODE           ?PR?CMN_CMDHAL_SETTXPOWER?COMMON_CMD_HDLR
FF6538H   FF656EH   000037H   BYTE   INSEG    CODE           ?PR?CMN_CMDHAL_SETTXPOWEROQPSK?COMMON_CMD_HDLR
FF656FH   FF663AH   0000CCH   BYTE   INSEG    CODE           ?PR?BMU_MEMALLOCATE?BMU
FF663BH   FF6662H   000028H   BYTE   INSEG    CODE           ?PR?BMU_LRXHWBUFCONFIG?BMU_RX
FF6663H   FF66E5H   000083H   BYTE   INSEG    CODE           ?PR?BMU_LRXSHAREQCONFIG?BMU_RX
FF66E6H   FF6772H   00008DH   BYTE   INSEG    CODE           ?PR?BMU_HWRESET?BMU
FF6773H   FF6816H   0000A4H   BYTE   INSEG    CODE           ?PR?BMU_HWINIT?BMU
FF6817H   FF6860H   00004AH   BYTE   INSEG    CODE           ?PR?BMU_FREQFLOWCTRLSET?BMU
FF6861H   FF68D8H   000078H   BYTE   INSEG    CODE           ?PR?BMU_H2MCMDGET?BMU_CMD
FF68D9H   FF695CH   000084H   BYTE   INSEG    CODE           ?PR?BMU_M2HCMDSET?BMU_CMD
FF695DH   FF6A6AH   00010EH   BYTE   INSEG    CODE           ?PR?BMU_TRXQUEUEGET?BMU_COMMON
FF6A6BH   FF6ACCH   000062H   BYTE   INSEG    CODE           ?PR?BMU_RXQUEUEGET?BMU_RX
FF6ACDH   FF6B03H   000037H   BYTE   INSEG    CODE           ?PR?HALPKT_PHYSTATUSGET?HAL_PKT
FF6B04H   FF6B87H   000084H   BYTE   INSEG    CODE           ?PR?MAC_HTRP_RELAY_DATA_TO_SW_RXQ?MAC_HTRP_CONTROL
FF6B88H   FF6B89H   000002H   BYTE   INSEG    CODE           ?PR?MAC_HTRP_GET_RX_SW_QUEUE_WO_ADDR?MAC_HTRP_CONTROL
FF6B8AH   FF6BB7H   00002EH   BYTE   INSEG    CODE           ?PR?BMU_LRXSHAREQWOGET?BMU_RX
FF6BB8H   FF6BD2H   00001BH   BYTE   INSEG    CODE           ?PR?BMU_LRXSHAREQWOUPDATE?BMU_RX
FF6BD3H   FF6C9BH   0000C9H   BYTE   INSEG    CODE           ?PR?MAC_RFERXDATACONFIRM?MAC_RFERX
FF6C9CH   FF6FA1H   000306H   BYTE   INSEG    CODE           ?PR?MAC_RFERXSCHEDULE?MAC_RFERX
FF6FA2H   FF6FB0H   00000FH   BYTE   INSEG    CODE           ?PR?MAC_RFERXAONTASKDISABLE?MAC_RFERX
FF6FB1H   FF6FE6H   000036H   BYTE   INSEG    CODE           ?PR?RXTASK_ALWAYSON_SET?MAC_TASK_CTRL
FF6FE7H   FF6FF4H   00000EH   BYTE   UNIT     CODE           ?L?COM001E
FF6FF5H   FF706CH   000078H   BYTE   INSEG    CODE           ?PR?BMU_LOCALRXQUEUEGET?BMU_RX
FF706DH   FF717AH   00010EH   BYTE   INSEG    CODE           ?PR?BMU_TRXQUEUESET?BMU_COMMON
FF717BH   FF71C7H   00004DH   BYTE   INSEG    CODE           ?PR?BMU_RXQUEUESET?BMU_RX
FF71C8H   FF7310H   000149H   BYTE   INSEG    CODE           ?PR?MAC_RXQ_CPY?_?MAC_RAASCHEDULE
FF7311H   FF7332H   000022H   BYTE   INSEG    CODE           ?PR?BMU_LOCALRXQSTARTADDGET?BMU_RX
FF7333H   FF7354H   000022H   BYTE   INSEG    CODE           ?PR?BMU_RXQSTARTADDGET?BMU_RX
L251 LINKER/LOCATER V4.66.93.0                                                        12/18/2023  14:21:09  PAGE 11


FF7355H   FF7355H   000001H   BYTE   INSEG    CODE           ?PR?BMU_LRXHWBUFSTATUSUPDATE?BMU_RX
FF7356H   FF7359H   000004H   BYTE   INSEG    CODE           ?PR?MAC_HTRP_UPDATE_LRX_BUF_STATUS?MAC_HTRP_CONTROL
FF735AH   FF7365H   00000CH   BYTE   INSEG    CODE           ?PR?BMU_LRXHWBUFSET?BMU_RX
FF7366H   FF7408H   0000A3H   BYTE   INSEG    CODE           ?PR?MAC_HTRP_TX_SLOT_RX_DONE?MAC_HTRP_TX
FF7409H   FF742EH   000026H   BYTE   INSEG    CODE           ?PR?MAC_HTRP_CTRL_INCREASE_SLOT_INDEX?MAC_HTRP_CONTROL
FF742FH   FF74F0H   0000C2H   BYTE   INSEG    CODE           ?PR?MAC_HTRP_TX_PERIOD_BURST_RX_DONE?MAC_HTRP_TX
FF74F1H   FF7507H   000017H   BYTE   INSEG    CODE           ?PR?MAC_HTRP_SET_RX_SW_QUEUE?MAC_HTRP_CONTROL
FF7508H   FF752DH   000026H   BYTE   INSEG    CODE           ?PR?MAC_HTRP_RX_BURST_RX_DONE?MAC_HTRP_RX
FF752EH   FF7535H   000008H   BYTE   UNIT     CODE           ?L?COM0048
FF7536H   FF7568H   000033H   BYTE   INSEG    CODE           ?PR?MAC_HTRP_RX_SLOT_RX_DONE?MAC_HTRP_RX
FF7569H   FF7570H   000008H   BYTE   UNIT     CODE           ?L?COM0039
FF7571H   FF75BDH   00004DH   BYTE   INSEG    CODE           ?PR?MAC_HTRP_TX_BURST_TX_DONE?MAC_HTRP_TX
FF75BEH   FF763EH   000081H   BYTE   INSEG    CODE           ?PR?MAC_HTRP_TX_PERIOD_BURST_TX_DONE?MAC_HTRP_TX
FF763FH   FF7647H   000009H   BYTE   INSEG    CODE           ?PR?MAC_HTRP_TX_SLOT_TX_DONE?MAC_HTRP_TX
FF7648H   FF7669H   000022H   BYTE   INSEG    CODE           ?PR?MAC_HTRP_CTRL_INCREASE_CUR_BLOCK?MAC_HTRP_CONTROL
FF766AH   FF76C3H   00005AH   BYTE   INSEG    CODE           ?PR?MAC_HTRP_RX_PERIOD_RX_DONE?MAC_HTRP_RX
FF76C4H   FF7714H   000051H   BYTE   INSEG    CODE           ?PR?MAC_HTRP_CHECK_RX_VALID?MAC_HTRP_CONTROL
FF7715H   FF77CFH   0000BBH   BYTE   INSEG    CODE           ?PR?MAC_SRCMATCH_LISTFINDEXTENDED?_?MAC_SRCMATCH
FF77D0H   FF77EEH   00001FH   BYTE   INSEG    CODE           ?PR?BMU_LRXHWRXDONEBUFGET?BMU_RX
FF77EFH   FF783EH   000050H   BYTE   INSEG    CODE           ?PR?BMU_LRXSHAREQISFULL?BMU_RX
FF783FH   FF7860H   000022H   BYTE   INSEG    CODE           ?PR?BMU_LOCALTXQSTARTADDGET?BMU_TX
FF7861H   FF7883H   000023H   BYTE   INSEG    CODE           ?PR?BMU_TXQSTARTADDGET?BMU_TX
FF7884H   FF789AH   000017H   BYTE   INSEG    CODE           ?PR?BMU_TXQSTATUSUPD?BMU_TX
FF789BH   FF78BEH   000024H   BYTE   INSEG    CODE           ?PR?BMU_TXQSTATUSRECOVERY?BMU_TX
FF78BFH   FF78F6H   000038H   BYTE   INSEG    CODE           ?PR?BMU_TXQPKTSEARCH?BMU_TX
FF78F7H   FF798FH   000099H   BYTE   INSEG    CODE           ?PR?BMU_TXPKTLENGTHGET?BMU_TX
FF7990H   FF79C9H   00003AH   BYTE   INSEG    CODE           ?PR?BMU_LOCALTXQUEUEGET?BMU_TX
FF79CAH   FF7A54H   00008BH   BYTE   INSEG    CODE           ?PR?BMU_LOCALTXQUEUESET?BMU_TX
FF7A55H   FF7AEDH   000099H   BYTE   INSEG    CODE           ?PR?MAC_RFETXPARINIT?MAC_RFETX
FF7AEEH   FF7B8CH   00009FH   BYTE   INSEG    CODE           ?PR?PCI_SETRFETXENABLECMD?MAC_CMD_HDLR
FF7B8DH   FF7C45H   0000B9H   BYTE   INSEG    CODE           ?PR?PCI_RFETXPARACHECK?MAC_CMD_HDLR
FF7C46H   FF7C70H   00002BH   BYTE   INSEG    CODE           ?PR?HALMAC_MAXPAYLOADLENGET?HAL_MAC
FF7C71H   FF7D3CH   0000CCH   BYTE   INSEG    CODE           ?PR?MAC_ACKSET?MAC_RAASCHEDULE
FF7D3DH   FF7FA5H   000269H   BYTE   INSEG    CODE           ?PR?MAC_RAARXDONEHANDLE?_?MAC_RAASCHEDULE
FF7FA6H   FF7FB8H   000013H   BYTE   INSEG    CODE           ?PR?HAL_ISBLEHW?HAL
FF7FB9H   FF7FD1H   000019H   BYTE   INSEG    CODE           ?PR?HALSEC_NONCEONLYSET?HAL_SEC
FF7FD2H   FF7FE7H   000016H   BYTE   INSEG    CODE           ?PR?HALSEC_AESKEYONLYSET?HAL_SEC
FF7FE8H   FF806CH   000085H   BYTE   INSEG    CODE           ?PR?BMU_TXQUEUECLEAR?BMU_TX
FF806DH   FF80DDH   000071H   BYTE   INSEG    CODE           ?PR?BMU_PRIVACYIRKCLR?BMU_BLE
FF80DEH   FF8116H   000039H   BYTE   INSEG    CODE           ?PR?BMU_PRIVACYIRKSET?BMU_BLE
FF8117H   FF81A4H   00008EH   BYTE   INSEG    CODE           ?PR?BMU_PRIVACYLOCALRPAGEN?BMU_BLE
FF81A5H   FF81DDH   000039H   BYTE   INSEG    CODE           ?PR?BMU_PRIVACYIRKSINGLESEARCH?BMU_BLE
FF81DEH   FF8212H   000035H   BYTE   INSEG    CODE           ?PR?BMU_PRIVACYIRKGET?BMU_BLE
FF8213H   FF8294H   000082H   BYTE   INSEG    CODE           ?PR?BMU_PRIVACYIRKFULLSEARCH?BMU_BLE
FF8295H   FF82C1H   00002DH   BYTE   INSEG    CODE           ?PR?MAC_INTEVENTQGET?_?MAC
FF82C2H   FF82CCH   00000BH   BYTE   INSEG    CODE           ?PR?MAC_TIMEOUTHDLR?MAC
FF82CDH   FF8302H   000036H   BYTE   INSEG    CODE           ?PR?MAC?MAC
FF8303H   FF8316H   000014H   BYTE   INSEG    CODE           ?PR?MAC_RAASCHEDULE?MAC_RAASCHEDULE
FF8317H   FF832AH   000014H   BYTE   INSEG    CODE           ?PR?MAC_TARSCHEDULE?MAC_TARSCHEDULE
FF832BH   FF835EH   000034H   BYTE   INSEG    CODE           ?PR?MAC_CHECKBMUERR?MAC
FF835FH   FF836AH   00000CH   BYTE   INSEG    CODE           ?PR?MAC_FUNEVENTQINIT?MAC
FF836BH   FF8376H   00000CH   BYTE   INSEG    CODE           ?PR?MAC_INTEVENTQINIT?MAC
FF8377H   FF8565H   0001EFH   BYTE   INSEG    CODE           ?PR?MAC_TRXPAR_INIT?MAC
FF8566H   FF8574H   00000FH   BYTE   INSEG    CODE           ?PR?MAC_INTEVENTQUEUEEXIST?MAC
FF8575H   FF861AH   0000A6H   BYTE   INSEG    CODE           ?PR?PANIDPRESENT?MAC_FRAME_PARSE
FF861BH   FF8814H   0001FAH   BYTE   INSEG    CODE           ?PR?MAC_PARSEHDR?MAC_FRAME_PARSE
FF8815H   FF88A5H   000091H   BYTE   INSEG    CODE           ?PR?MAC_ISRHANDLER?MAC_ISR
FF88A6H   FF88B1H   00000CH   BYTE   INSEG    CODE           ?PR?MAC_BMUISRINIT?MAC_ISR
FF88B2H   FF89A0H   0000EFH   BYTE   INSEG    CODE           ?PR?PCI_SETRFFREQ?MAC_CMD_HDLR
FF89A1H   FF89B6H   000016H   BYTE   INSEG    CODE           ?PR?PCI_SETRFETXDISABLECMD?MAC_CMD_HDLR
FF89B7H   FF8A72H   0000BCH   BYTE   INSEG    CODE           ?PR?PCI_SETRFERXENABLECMD?MAC_CMD_HDLR
FF8A73H   FF8ABEH   00004CH   BYTE   INSEG    CODE           ?PR?PCI_RFERXPARACHECK?MAC_CMD_HDLR
FF8ABFH   FF8B30H   000072H   BYTE   INSEG    CODE           ?PR?MAC_RFERXPARINIT?MAC_RFERX
FF8B31H   FF8B4FH   00001FH   BYTE   INSEG    CODE           ?PR?PCI_SETRFSLEEP?MAC_CMD_HDLR
FF8B50H   FF8B65H   000016H   BYTE   INSEG    CODE           ?PR?PCI_SETRFIDLE?MAC_CMD_HDLR
L251 LINKER/LOCATER V4.66.93.0                                                        12/18/2023  14:21:09  PAGE 12


FF8B66H   FF8BB1H   00004CH   BYTE   INSEG    CODE           ?PR?PCI_SETCLOCKMODE?MAC_CMD_HDLR
FF8BB2H   FF8C2BH   00007AH   BYTE   INSEG    CODE           ?PR?PCI_SETRFBAUTOSTATE?MAC_CMD_HDLR
FF8C2CH   FF8C35H   00000AH   BYTE   INSEG    CODE           ?PR?PCI_SETRFEMODE?MAC_CMD_HDLR
FF8C36H   FF8C48H   000013H   BYTE   INSEG    CODE           ?PR?PCI_SETGAUSSIANFILTERTYPE?MAC_CMD_HDLR
FF8C49H   FF8C8AH   000042H   BYTE   INSEG    CODE           ?PR?PCI_SETFSKMODEM?MAC_CMD_HDLR
FF8C8BH   FF8D3EH   0000B4H   BYTE   INSEG    CODE           ?PR?PCI_BLECMDSETBLEMODEM?MAC_CMD_HDLR
FF8D3FH   FF8DA5H   000067H   BYTE   INSEG    CODE           ?PR?PCI_PARSEBLECMD?MAC_CMD_HDLR
FF8DA6H   FF8DC2H   00001DH   BYTE   INSEG    CODE           ?PR?PCI_BLEPHY_SETHTRP_DISABLE?MAC_CMD_HDLR
FF8DC3H   FF8DE0H   00001EH   BYTE   INSEG    CODE           ?PR?PCI_BLEPHY_SETHTRP_RX_ENABLE?MAC_CMD_HDLR
FF8DE1H   FF8E10H   000030H   BYTE   INSEG    CODE           ?PR?PCI_BLEPHY_SETHTRP_SEC?MAC_CMD_HDLR
FF8E11H   FF8E48H   000038H   BYTE   INSEG    CODE           ?PR?PCI_BLEPHY_SETHTRP_MAP_CHANNEL?MAC_CMD_HDLR
FF8E49H   FF8ECEH   000086H   BYTE   INSEG    CODE           ?PR?PCI_BLECMDSETBLEMAC?MAC_CMD_HDLR
FF8ECFH   FF8F85H   0000B7H   BYTE   INSEG    CODE           ?PR?HALMAC_RXSFDSET?HAL_MAC
FF8F86H   FF8F91H   00000CH   BYTE   UNIT     CODE           ?L?COM0038
FF8F92H   FF8FA1H   000010H   BYTE   INSEG    CODE           ?PR?MAC_HTRP_RESET_RX_CONN_STATUS?MAC_HTRP_CONTROL
FF8FA2H   FF8FB1H   000010H   BYTE   INSEG    CODE           ?PR?HALMAC_TXPREAMBLESET?HAL_MAC
FF8FB2H   FF8FC1H   000010H   BYTE   INSEG    CODE           ?PR?HALMAC_RXPREAMBLESET?HAL_MAC
FF8FC2H   FF8FD5H   000014H   BYTE   INSEG    CODE           ?PR?MAC_HTRP_SET_DISABLE?MAC_HTRP_CONTROL
FF8FD6H   FF8FF6H   000021H   BYTE   INSEG    CODE           ?PR?MAC_HTRP_SET_SEC_PARA?MAC_HTRP_CONTROL
FF8FF7H   FF9099H   0000A3H   BYTE   INSEG    CODE           ?PR?PCI_BLEPHY_SETHTRP_PARA?MAC_CMD_HDLR
FF909AH   FF90BEH   000025H   BYTE   INSEG    CODE           ?PR?PCI_BLEPHY_SETHTRP_TX_ENABLE?MAC_CMD_HDLR
FF90BFH   FF9101H   000043H   BYTE   INSEG    CODE           ?PR?PCI_BLEPHY_SETHTRP_INITIATE?MAC_CMD_HDLR
FF9102H   FF9174H   000073H   BYTE   INSEG    CODE           ?PR?PCI_INITZIGBEE?MAC_CMD_HDLR
FF9175H   FF91B1H   00003DH   BYTE   INSEG    CODE           ?PR?PCI_OQPSKCMDINITOQPSK?MAC_CMD_HDLR
FF91B2H   FF91EFH   00003EH   BYTE   INSEG    CODE           ?PR?PCI_OQPSKCMDSETOQPSKMODEM?MAC_CMD_HDLR
FF91F0H   FF9259H   00006AH   BYTE   INSEG    CODE           ?PR?R2TTASK_SET?MAC_TASK_CTRL
FF925AH   FF930AH   0000B1H   BYTE   INSEG    CODE           ?PR?MAC_RAA_SCHCONFIGHDLR?MAC_RAASCHEDULE
FF930BH   FF9357H   00004DH   BYTE   INSEG    CODE           ?PR?RXTASK_TIMEOUT_SET?MAC_TASK_CTRL
FF9358H   FF9365H   00000EH   BYTE   INSEG    CODE           ?PR?RXTASK_RXTIMER_SET?MAC_TASK_CTRL
FF9366H   FF93D3H   00006EH   BYTE   INSEG    CODE           ?PR?TXCONTTASK_SET?MAC_TASK_CTRL
FF93D4H   FF93DFH   00000CH   BYTE   UNIT     CODE           ?L?COM003D
FF93E0H   FF9425H   000046H   BYTE   INSEG    CODE           ?PR?MAC_RFETXTASKSET?MAC_RFETX
FF9426H   FF946AH   000045H   BYTE   INSEG    CODE           ?PR?TXTASK_SET?MAC_TASK_CTRL
FF946BH   FF949EH   000034H   BYTE   INSEG    CODE           ?PR?TXRTCTASK_SET?MAC_TASK_CTRL
FF949FH   FF9541H   0000A3H   BYTE   INSEG    CODE           ?PR?PCIDATACONTROLFIELDPARSE?RUCI_DATA_PARSE
FF9542H   FF9572H   000031H   BYTE   INSEG    CODE           ?PR?PCIBURSTTXDONEEVENTSENDTOMSGQUEUE?MAC_EVENT_GEN
FF9573H   FF95ABH   000039H   BYTE   INSEG    CODE           ?PR?PCIHTRPCONNTOEVENTDONEEVENTSENDTOMSGQUEUE?MAC_EVENT_GE
                                                             -N
FF95ACH   FF95F0H   000045H   BYTE   INSEG    CODE           ?PR?PCIHTRPPEREVENTDONEEVENTSENDTOMSGQUEUE?MAC_EVENT_GEN
FF95F1H   FF9622H   000032H   BYTE   INSEG    CODE           ?PR?PCIHTRPGETRSSIEVENTSENDTOMSGQUEUE?MAC_EVENT_GEN
FF9623H   FF96C2H   0000A0H   BYTE   INSEG    CODE           ?PR?PCIHTRPFWSTATUSEVENTDONEEVENTSENDTOMSGQUEUE?MAC_EVENT_
                                                             -GEN
FF96C3H   FF96C3H   000001H   BYTE   INSEG    CODE           ?PR?MAC_RAA_SCHINITHDLR?MAC_RAASCHEDULE
FF96C4H   FF975DH   00009AH   BYTE   INSEG    CODE           ?PR?MAC_RAA_SCHWAITMHRHDLR?MAC_RAASCHEDULE
FF975EH   FF978EH   000031H   BYTE   INSEG    CODE           ?PR?MAC_RAA_SCHWAITTXDONEHDLR?MAC_RAASCHEDULE
FF978FH   FF978FH   000001H   BYTE   INSEG    CODE           ?PR?MAC_RAA_SCHWAITRESUMEHDLR?MAC_RAASCHEDULE
FF9790H   FF97ADH   00001EH   BYTE   INSEG    CODE           ?PR?MAC_RAA_SCHENDHDLR?MAC_RAASCHEDULE
FF97AEH   FF97AEH   000001H   BYTE   INSEG    CODE           ?PR?MAC_RAA_SCHRESERVEDHDLR?MAC_RAASCHEDULE
FF97AFH   FF97CBH   00001DH   BYTE   INSEG    CODE           ?PR?MAC_ORG_MHR_DONE_HANDLER?MAC_RAASCHEDULE
FF97CCH   FF97F0H   000025H   BYTE   INSEG    CODE           ?PR?MAC_ORG_RX_DONE_HANDLER?MAC_RAASCHEDULE
FF97F1H   FF97FBH   00000BH   BYTE   INSEG    CODE           ?PR?MAC_MHRPARSE?MAC_RAASCHEDULE
FF97FCH   FF9840H   000045H   BYTE   INSEG    CODE           ?PR?MAC_GENACK?MAC_RAASCHEDULE
FF9841H   FF98A7H   000067H   BYTE   INSEG    CODE           ?PR?MAC_GENACKFRMCTRL?MAC_RAASCHEDULE
FF98A8H   FF98B2H   00000BH   BYTE   INSEG    CODE           ?PR?MOD_REPLACE?MAC_RAASCHEDULE
FF98B3H   FF98F3H   000041H   BYTE   INSEG    CODE           ?PR?MAC_GETCSLPHASE?MAC_RAASCHEDULE
FF98F4H   FF9964H   000071H   BYTE   INSEG    CODE           ?PR?MAC_NONCEGEN?MAC_RAASCHEDULE
FF9965H   FF9B62H   0001FEH   BYTE   INSEG    CODE           ?PR?MAC_FILTER?_?MAC_RAASCHEDULE
FF9B63H   FF9B6DH   00000BH   BYTE   UNIT     CODE           ?L?COM003F
FF9B6EH   FF9B6EH   000001H   BYTE   INSEG    CODE           ?PR?MAC_TAR_SCHINITHDLR?MAC_TARSCHEDULE
FF9B6FH   FF9BE0H   000072H   BYTE   INSEG    CODE           ?PR?MAC_TAR_SCHWAITTXDONEHDLR?MAC_TARSCHEDULE
FF9BE1H   FF9C33H   000053H   BYTE   INSEG    CODE           ?PR?MAC_TAR_SCHWAITACKRXMHRHDLR?MAC_TARSCHEDULE
FF9C34H   FF9C63H   000030H   BYTE   INSEG    CODE           ?PR?MAC_TAR_SCHENDHDLR?MAC_TARSCHEDULE
FF9C64H   FF9C64H   000001H   BYTE   INSEG    CODE           ?PR?MAC_TAR_SCHRESERVEDHDLR?MAC_TARSCHEDULE
FF9C65H   FF9C6BH   000007H   BYTE   INSEG    CODE           ?PR?MAC_ORG_TX_DONE_HANDLER?MAC_TARSCHEDULE
FF9C6CH   FF9C84H   000019H   BYTE   INSEG    CODE           ?PR?MAC_ORG_CCA_DONE_HANDLER?MAC_TARSCHEDULE
L251 LINKER/LOCATER V4.66.93.0                                                        12/18/2023  14:21:09  PAGE 13


FF9C85H   FF9DADH   000129H   BYTE   INSEG    CODE           ?PR?MAC_ACKFRAMECHECK?MAC_TARSCHEDULE
FF9DAEH   FF9E69H   0000BCH   BYTE   INSEG    CODE           ?PR?MAC_TAR_CHECK_DATA_REQUST?MAC_TARSCHEDULE
FF9E6AH   FF9EB2H   000049H   BYTE   INSEG    CODE           ?PR?MAC_RFERXDISABLE?MAC_RFERX
FF9EB3H   FF9EC5H   000013H   BYTE   INSEG    CODE           ?PR?MAC_RFERXRPTGET?MAC_RFERX
FF9EC6H   FF9F29H   000064H   BYTE   INSEG    CODE           ?PR?MAC_RFESECLBHWSET?MAC_RFERX
FF9F2AH   FF9F9CH   000073H   BYTE   INSEG    CODE           ?PR?MAC_RFETXPKTLENUPDATE?MAC_RFETX
FF9F9DH   FF9FECH   000050H   BYTE   INSEG    CODE           ?PR?MAC_RFETXHWSECSET?MAC_RFETX
FF9FEDH   FFA085H   000099H   BYTE   INSEG    CODE           ?PR?MAC_RFEDATAGEN?MAC_RFETX
FFA086H   FFA0D2H   00004DH   BYTE   INSEG    CODE           ?PR?MAC_HTRP_CTRL_SET_CHANNEL_MAP_FROM_BMU?MAC_HTRP_CONTRO
                                                             -L
FFA0D3H   FFA0DDH   00000BH   BYTE   INSEG    CODE           ?PR?MAC_HTRP_CTRL_GET_CHANNEL?MAC_HTRP_CONTROL
FFA0DEH   FFA10FH   000032H   BYTE   INSEG    CODE           ?PR?MAC_HTRP_CTRL_CLEAR_PKT_CNT?MAC_HTRP_CONTROL
FFA110H   FFA171H   000062H   BYTE   INSEG    CODE           ?PR?MAC_HTRP_CTRL_INCREASE_PKT_CNT?MAC_HTRP_CONTROL
FFA172H   FFA19BH   00002AH   BYTE   INSEG    CODE           ?PR?MAC_HTRP_CTRL_SLOT_SYNC?MAC_HTRP_CONTROL
FFA19CH   FFA1BFH   000024H   BYTE   INSEG    CODE           ?PR?MAC_HTRP_ISR_RX_DONE_HANDLER?MAC_HTRP_CONTROL
FFA1C0H   FFA1DEH   00001FH   BYTE   INSEG    CODE           ?PR?MAC_HTRP_CHECK_RX_CONN_STATUS?MAC_HTRP_CONTROL
FFA1DFH   FFA201H   000023H   BYTE   INSEG    CODE           ?PR?MAC_HTRP_CTRL_INIT?MAC_HTRP_CONTROL
FFA202H   FFA222H   000021H   BYTE   INSEG    CODE           ?PR?MAC_HTRP_SLEEP_INIT?MAC_HTRP_CONTROL
FFA223H   FFA228H   000006H   BYTE   INSEG    CODE           ?PR?MAC_HTRP_RTC_ISR_HANDLER?MAC_HTRP_CONTROL
FFA229H   FFA269H   000041H   BYTE   INSEG    CODE           ?PR?MAC_HTRP_IS_ALLOW_SLEEP_STATE?MAC_HTRP_CONTROL
FFA26AH   FFA2AAH   000041H   BYTE   INSEG    CODE           ?PR?MAC_HTRP_SLEEP_CTRL?MAC_HTRP_CONTROL
FFA2ABH   FFA2B3H   000009H   BYTE   INSEG    CODE           ?PR?MAC_HTRP_RX_SLOT_TX_DONE?MAC_HTRP_RX
FFA2B4H   FFA302H   00004FH   BYTE   INSEG    CODE           ?PR?MAC_HTRP_RX_PERIOD_TX_DONE?MAC_HTRP_RX
FFA303H   FFA36AH   000068H   BYTE   INSEG    CODE           ?PR?MAC_SRCMATCH_LISTINIT?MAC_SRCMATCH
FFA36BH   FFA3FFH   000095H   BYTE   INSEG    CODE           ?PR?MAC_SRCMATCH_LISTFINDSHORT?_?MAC_SRCMATCH
FFA400H   FFA4A0H   0000A1H   BYTE   INSEG    CODE           ?PR?MAC_SRCMATCH_LISTADDSHORT?MAC_SRCMATCH
FFA4A1H   FFA511H   000071H   BYTE   INSEG    CODE           ?PR?MAC_SRCMATCH_LISTMODIFYSHORT?MAC_SRCMATCH
FFA512H   FFA5B5H   0000A4H   BYTE   INSEG    CODE           ?PR?MAC_SRCMATCH_LISTADDEXTENDED?MAC_SRCMATCH
FFA5B6H   FFA626H   000071H   BYTE   INSEG    CODE           ?PR?MAC_SRCMATCH_LISTMODIFYEXTENDED?MAC_SRCMATCH
FFA627H   FFA671H   00004BH   BYTE   INSEG    CODE           ?PR?MSG_ISR?_?MSG_CTRL
FFA672H   FFA682H   000011H   BYTE   INSEG    CODE           ?PR?MSG_EVENTCLR?MSG_CTRL
FFA683H   FFA697H   000015H   BYTE   INSEG    CODE           ?PR?HAL_ISWISUNHW?HAL
FFA698H   FFA6ACH   000015H   BYTE   INSEG    CODE           ?PR?HAL_ISZIGBEEHW?HAL
FFA6ADH   FFA6DBH   00002FH   BYTE   INSEG    CODE           ?PR?HAL_ISSUBGRF?HAL
FFA6DCH   FFA70DH   000032H   BYTE   INSEG    CODE           ?PR?HALRF_ALLPATHDISABLE?HAL_RF
FFA70EH   FFA78BH   00007EH   BYTE   INSEG    CODE           ?PR?HALRFK_RXENABLE?HAL_RT569MP_RFK
FFA78CH   FFA7DAH   00004FH   BYTE   INSEG    CODE           ?PR?HALRF_TXPWRCOMPSET2HW?HAL_RT569MP_RF
FFA7DBH   FFA7E6H   00000CH   BYTE   UNIT     CODE           ?L?COM0023
FFA7E7H   FFA7F5H   00000FH   BYTE   INSEG    CODE           ?PR?HAL_IS2GRF?HAL
FFA7F6H   FFA83DH   000048H   BYTE   INSEG    CODE           ?PR?HAL_CLKMODESET?HAL
FFA83EH   FFA9F6H   0001B9H   BYTE   INSEG    CODE           ?PR?HAL_HWMODEINIT?_?HAL
FFA9F7H   FFAC64H   00026EH   BYTE   INSEG    CODE           ?PR?HAL_HWINIT?HAL_RT569MP_INIT
FFAC65H   FFACA6H   000042H   BYTE   INSEG    CODE           ?PR?HALRF_TXPWRSET2HW?HAL_RT569MP_RF
FFACA7H   FFAD10H   00006AH   BYTE   INSEG    CODE           ?PR?HALRF_TXGAINTABLECFG?HAL_RT569MP_RF
FFAD11H   FFAD2FH   00001FH   BYTE   INSEG    CODE           ?PR?HALMAC_RXMAXPKTLENSET?HAL_MAC
FFAD30H   FFAD50H   000021H   BYTE   INSEG    CODE           ?PR?HAL_DFTPARAGET?HAL_INIT
FFAD51H   FFAD7AH   00002AH   BYTE   INSEG    CODE           ?PR?HALMAC_PKTBITENDIANSET?HAL_MAC
FFAD7BH   FFADBBH   000041H   BYTE   INSEG    CODE           ?PR?HALRF_TXPWRSET?HAL_RF
FFADBCH   FFADC4H   000009H   BYTE   UNIT     CODE           ?L?COM0040
FFADC5H   FFAE29H   000065H   BYTE   INSEG    CODE           ?PR?HAL_PKTTYPESET?HAL
FFAE2AH   FFAE94H   00006BH   BYTE   INSEG    CODE           ?PR?HALRF_TXPWRRPTGET?HAL_RF
FFAE95H   FFAF21H   00008DH   BYTE   INSEG    CODE           ?PR?HALRFK_KVALUESET2HW?HAL_RFK
FFAF22H   FFAF79H   000058H   BYTE   INSEG    CODE           ?PR?HALRFK_KVALUESET?_?HAL_RFK
FFAF7AH   FFAF7AH   000001H   BYTE   INSEG    CODE           ?PR?HAL_WATCHDOG?HAL
FFAF7BH   FFAF83H   000009H   BYTE   INSEG    CODE           ?PR?HALMAC_WHITENDFTGET?HAL_MAC
FFAF84H   FFAFA5H   000022H   BYTE   INSEG    CODE           ?PR?HALMAC_PHRLENCFGGET?HAL_MAC
FFAFA6H   FFAFBCH   000017H   BYTE   INSEG    CODE           ?PR?HALMAC_SFDDFTGET?HAL_MAC
FFAFBDH   FFB039H   00007DH   BYTE   INSEG    CODE           ?PR?HALMAC_TXTYPESET?HAL_MAC
FFB03AH   FFB09BH   000062H   BYTE   INSEG    CODE           ?PR?HALMAC_IFST2T?HAL_MAC
FFB09CH   FFB0C5H   00002AH   BYTE   INSEG    CODE           ?PR?HALTCON_TXTAILDELAYGET?HAL_RT569MP_TCON
FFB0C6H   FFB127H   000062H   BYTE   INSEG    CODE           ?PR?HALMAC_IFST2R?HAL_MAC
FFB128H   FFB15CH   000035H   BYTE   INSEG    CODE           ?PR?HALMAC_IFSR2R?HAL_MAC
FFB15DH   FFB1A9H   00004DH   BYTE   INSEG    CODE           ?PR?HALTCON_RXTAILDELAYGET?HAL_RT569MP_TCON
FFB1AAH   FFB1DEH   000035H   BYTE   INSEG    CODE           ?PR?HALMAC_IFSR2T?HAL_MAC
FFB1DFH   FFB257H   000079H   BYTE   INSEG    CODE           ?PR?HALPHY_DFESET?HAL_PHY
L251 LINKER/LOCATER V4.66.93.0                                                        12/18/2023  14:21:09  PAGE 14


FFB258H   FFB401H   0001AAH   BYTE   INSEG    CODE           ?PR?HALPHY_PARASET?HAL_PHY
FFB402H   FFB41BH   00001AH   BYTE   INSEG    CODE           ?PR?HALPHY_RXDISABLE?HAL_PHY
FFB41CH   FFB459H   00003EH   BYTE   INSEG    CODE           ?PR?HALPHY_RXENABLE?HAL_PHY
FFB45AH   FFB4C8H   00006FH   BYTE   INSEG    CODE           ?PR?HALRF_PLLCFG?HAL_RT569MP_RF
FFB4C9H   FFB69CH   0001D4H   BYTE   INSEG    CODE           ?PR?HALPHY_TXENABLE?HAL_PHY
FFB69DH   FFB959H   0002BDH   BYTE   INSEG    CODE           ?PR?HALPHY_TXBWSET?HAL_PHY
FFB95AH   FFBD22H   0003C9H   BYTE   INSEG    CODE           ?PR?HALPHY_RXBWSET?HAL_PHY
FFBD23H   FFBD76H   000054H   BYTE   INSEG    CODE           ?PR?HALPHY_BLERXPARASET?HAL_PHY
FFBD77H   FFBD87H   000011H   BYTE   UNIT     CODE           ?L?COM002B
FFBD88H   FFBDA8H   000021H   BYTE   INSEG    CODE           ?PR?HALPHY_MODIDXSET?HAL_PHY
FFBDA9H   FFBDE3H   00003BH   BYTE   INSEG    CODE           ?PR?HALPHY_FSKRXPARASET?HAL_PHY
FFBDE4H   FFBE6EH   00008BH   BYTE   INSEG    CODE           ?PR?HALPHY_INPUTPWRGET?HAL_PHY
FFBE6FH   FFBE81H   000013H   BYTE   INSEG    CODE           ?PR?HALRF_AGCSET?HAL_RF
FFBE82H   FFBED3H   000052H   BYTE   INSEG    CODE           ?PR?HALRF_TXPWRCOMPCHUPDAT?HAL_RF
FFBED4H   FFBF96H   0000C3H   BYTE   INSEG    CODE           ?PR?HALRF_FREQ2GCFG?HAL_RT569MP_RF
FFBF97H   FFBFB6H   000020H   BYTE   INSEG    CODE           ?PR?HALRF_TXPWRCHSEGSET?HAL_RF
FFBFB7H   FFBFCDH   000017H   BYTE   INSEG    CODE           ?PR?HALRF_TEMPERATURERPTGET?HAL_RF
FFBFCEH   FFBFE4H   000017H   BYTE   INSEG    CODE           ?PR?HALRF_VOLTAGERPTGET?HAL_RF
FFBFE5H   FFBFFBH   000017H   BYTE   INSEG    CODE           ?PR?HALRF_RSSIOFFSETSET?HAL_RF
FFBFFCH   FFC025H   00002AH   BYTE   INSEG    CODE           ?PR?HALSEC_AESLEVELONLYSET?HAL_SEC
FFC026H   FFC040H   00001BH   BYTE   INSEG    CODE           ?PR?HALSEC_AESTXSET?HAL_SEC
FFC041H   FFC094H   000054H   BYTE   INSEG    CODE           ?PR?HALRFK_KVALUEGET?_?HAL_RFK
FFC095H   FFC0C1H   00002DH   BYTE   INSEG    CODE           ?PR?HALIO_DIOSET?HAL_IO
FFC0C2H   FFC1AAH   0000E9H   BYTE   INSEG    CODE           ?PR?HAL_PARAINIT?HAL_INIT
FFC1ABH   FFC1CBH   000021H   BYTE   INSEG    CODE           ?PR?HAL_COLDINIT?HAL_INIT
FFC1CCH   FFC2C7H   0000FCH   BYTE   INSEG    CODE           ?PR?HALRFK_PARABACKUP?HAL_RT569MP_RFK
FFC2C8H   FFC33CH   000075H   BYTE   INSEG    CODE           ?PR?HALRFK_RXBWCFG?HAL_RT569MP_RFK
FFC33DH   FFC3D0H   000094H   BYTE   INSEG    CODE           ?PR?HALRFK_PARARECOVER?HAL_RT569MP_RFK
FFC3D1H   FFC3E8H   000018H   BYTE   UNIT     CODE           ?L?COM0014
FFC3E9H   FFC49EH   0000B6H   BYTE   INSEG    CODE           ?PR?HALRFK_LBPATHENABLE?HAL_RT569MP_RFK
FFC49FH   FFC58EH   0000F0H   BYTE   INSEG    CODE           ?PR?HALRFK_RINGPLLSET?HAL_RT569MP_RFK
FFC58FH   FFC612H   000084H   BYTE   INSEG    CODE           ?PR?HALRFK_TXLOK?HAL_RT569MP_RFK
FFC613H   FFC6E0H   0000CEH   BYTE   INSEG    CODE           ?PR?HALRFK_TXSBK?HAL_RT569MP_RFK
FFC6E1H   FFC707H   000027H   BYTE   INSEG    CODE           ?PR?HALRFK_LBPATHDISABLE?HAL_RT569MP_RFK
FFC708H   FFC777H   000070H   BYTE   INSEG    CODE           ?PR?HALRFK_RXPATHENABLE?HAL_RT569MP_RFK
FFC778H   FFC7A2H   00002BH   BYTE   INSEG    CODE           ?PR?HALRFK_RXPATHDISABLE?HAL_RT569MP_RFK
FFC7A3H   FFC7C0H   00001EH   BYTE   INSEG    CODE           ?PR?HALRFK_RXDISABLE?HAL_RT569MP_RFK
FFC7C1H   FFC977H   0001B7H   BYTE   INSEG    CODE           ?PR?HALRF_FREQSUBGCFG?HAL_RT569MP_RF
FFC978H   FFC9E2H   00006BH   BYTE   INSEG    CODE           ?PR?HALRF_AGCINIT?HAL_RT569MP_RF
FFC9E3H   FFC9E3H   000001H   BYTE   INSEG    CODE           ?PR?HALRF_TEMPERATUREMEASURE?HAL_RT569MP_RF
FFC9E4H   FFC9E4H   000001H   BYTE   INSEG    CODE           ?PR?HALRF_VOLTAGEMEASURE?HAL_RT569MP_RF
FFC9E5H   FFC9E5H   000001H   BYTE   INSEG    CODE           ?PR?HALRF_EXTFEMINIT?HAL_RT569MP_RF
FFC9E6H   FFCA84H   00009FH   BYTE   INSEG    CODE           ?PR?HALRF_IFCHECK?HAL_RT569MP_RF
FFCA85H   FFCAEEH   00006AH   BYTE   INSEG    CODE           ?PR?HALRF_FREQ2GCAL?HAL_RT569MP_RF
FFCAEFH   FFCC18H   00012AH   BYTE   INSEG    CODE           ?PR?HALTCON_INIT?HAL_RT569MP_TCON
FFCC19H   FFCC6DH   000055H   BYTE   INSEG    CODE           ?PR?HALTCON_PRETXTIMESET?HAL_RT569MP_TCON
FFCC6EH   FFCC9AH   00002DH   BYTE   INSEG    CODE           ?PR?HALPMU_PWRMODESET?HAL_RT569MP_PMU
FFCC9BH   FFCCB7H   00001DH   BYTE   INSEG    CODE           ?PR?HALPMU_PWRMODEGET?HAL_RT569MP_PMU
FFCCB8H   FFCCD4H   00001DH   BYTE   UNIT     CODE           ?L?COM001A



PUBLIC SYMBOLS OF MODULE:  .\obj\RT569 (?C_START)


      VALUE       CLASS    TYPE      PUBLIC SYMBOL NAME
      =================================================
      000000FFH   NUMBER   ---       ?C?CODESEG
      00FF0123H   CODE     ---       ?C?INITEDATA
      00FF0F93H   HCONST   WORD      ?C?INITEDATA_END
      00FF0051H   CODE     ---       ?C?LIMUL
      00FF0040H   CODE     ---       ?C?LMUL
      00FF000EH   CODE     ---       ?C?SIDIV
      00FF0000H   CODE     ---       ?C?STARTUP
      00FF005CH   CODE     NEAR LAB  ?C?ULDIV
L251 LINKER/LOCATER V4.66.93.0                                                        12/18/2023  14:21:09  PAGE 15


      00FF005AH   CODE     NEAR LAB  ?C?ULIDIV
      00000001H   NUMBER   ---       ?C?XDATASEG
      00FF0000H   CODE     ---       ?C_STARTUP
      0000B5A9H   EDATA    BYTE      ?HALRF_IfCheck?BYTE
      0000B5BEH   EDATA    BYTE      ?HALRFK_RingPllSet?BYTE
      0000B598H   EDATA    BYTE      ?HALSEC_AesSet?BYTE
      0000B3F1H   EDATA    BYTE      ?RUCI_endianConvert?BYTE
      0000B384H   EDATA    BYTE      ?T2RTask_Set?BYTE
*SFR* 000000D0H.6 DATA     BIT       AC
*SFR* 000000E0H   DATA     BYTE      ACC
*SFR* 0000009DH   DATA     BYTE      ACON
      00FF0008H   CODE     ---       AllTask_Stop
      00FF00ADH   CODE     ---       ASM_MEMCPY
      00FF014FH   CODE     ---       ASM_MEMSET
*SFR* 000000F0H   DATA     BYTE      B
      00FF6817H   CODE     ---       BMU_FreqFlowCtrlSet
      00FF6861H   CODE     ---       BMU_H2MCmdGet
      00FF6773H   CODE     ---       BMU_HwInit
      00FF66E6H   CODE     ---       BMU_HwReset
      00FF7311H   CODE     ---       BMU_LocalRxqStartAddGet
      00FF6FF5H   CODE     ---       BMU_LocalRxQueueGet
      00FF783FH   CODE     ---       BMU_LocalTxqStartAddGet
      00FF7990H   CODE     ---       BMU_LocalTxQueueGet
      00FF79CAH   CODE     ---       BMU_LocalTxQueueSet
      00FF663BH   CODE     ---       BMU_LrxHwBufConfig
      00FF735AH   CODE     ---       BMU_LrxHwBufSet
      00FF7355H   CODE     ---       BMU_LrxHwBufStatusUpdate
      00FF77D0H   CODE     ---       BMU_LrxHwRxDoneBufGet
      00FF6663H   CODE     ---       BMU_LrxShareQConfig
      00FF77EFH   CODE     ---       BMU_LrxShareQIsFull
      00FF6B8AH   CODE     ---       BMU_LrxShareQWoGet
      00FF6BB8H   CODE     ---       BMU_LrxShareQWoUpdate
      00FF68D9H   CODE     ---       BMU_M2HCmdSet
      00FF656FH   CODE     ---       BMU_MemAllocate
      00FF806DH   CODE     ---       BMU_PrivacyIrkClr
      00FF8213H   CODE     ---       BMU_PrivacyIrkFullSearch
      00FF81DEH   CODE     ---       BMU_PrivacyIrkGet
      00FF80DEH   CODE     ---       BMU_PrivacyIrkSet
      00FF81A5H   CODE     ---       BMU_PrivacyIrkSingleSearch
      00FF8117H   CODE     ---       BMU_PrivacyLocalRpaGen
      00FF2E3CH   CODE     ---       BMU_RxConfig
      00FF7333H   CODE     ---       BMU_RxqStartAddGet
      00FF6A6BH   CODE     ---       BMU_RxQueueGet
      00FF717BH   CODE     ---       BMU_RxQueueSet
      00FF695DH   CODE     ---       BMU_TrxQueueGet
      00FF706DH   CODE     ---       BMU_TrxQueueSet
      00FF3E1EH   CODE     ---       BMU_TxConfig
      00FF78F7H   CODE     ---       BMU_TxPktLengthGet
      00FF78BFH   CODE     ---       BMU_TxqPktSearch
      00FF7861H   CODE     ---       BMU_TxqStartAddGet
      00FF789BH   CODE     ---       BMU_TxqStatusRecovery
      00FF7884H   CODE     ---       BMU_TxqStatusUpd
      00FF7FE8H   CODE     ---       BMU_TxQueueClear
      00FF496CH   CODE     ---       BMU_TxQueueGet
      0000B522H   EDATA    BYTE      bmuLrxManualCfg
      0000B51DH   EDATA    ---       bmuLrxSwqCtrl
      00FF134FH   HCONST   ---       bmuMemSizeHwRxq
      00FF1357H   HCONST   ---       bmuMemSizeHwSwRxq
*SFR* 000000C8H.1 DATA     BIT       C_T2
*SFR* 000000CEH   DATA     BYTE      CCEN
*SFR* 000000D8H.0 DATA     BIT       CCF0
*SFR* 000000D8H.1 DATA     BIT       CCF1
*SFR* 000000D8H.2 DATA     BIT       CCF2
*SFR* 000000D8H.3 DATA     BIT       CCF3
*SFR* 000000D8H.4 DATA     BIT       CCF4
L251 LINKER/LOCATER V4.66.93.0                                                        12/18/2023  14:21:09  PAGE 16


*SFR* 000000C3H   DATA     BYTE      CCH1
*SFR* 000000C5H   DATA     BYTE      CCH2
*SFR* 000000C7H   DATA     BYTE      CCH3
*SFR* 000000C2H   DATA     BYTE      CCL1
*SFR* 000000C4H   DATA     BYTE      CCL2
*SFR* 000000C6H   DATA     BYTE      CCL3
*SFR* 00000090H.3 DATA     BIT       CEX0
*SFR* 00000090H.4 DATA     BIT       CEX1
*SFR* 00000090H.5 DATA     BIT       CEX2
*SFR* 00000090H.6 DATA     BIT       CEX3
*SFR* 00000090H.7 DATA     BIT       CEX4
*SFR* 000000D8H.7 DATA     BIT       CF
*SFR* 0000008EH   DATA     BYTE      CKCON
      00FF4C9EH   CODE     ---       CMD_CnfEventSend
      00FF4CE5H   CODE     ---       CMN_CmdHal_GetTemperatureRpt
      00FF4E7EH   CODE     ---       CMN_CmdHal_GetVoltageRpt
      00FF4EBEH   CODE     ---       CMN_CmdHal_SetAgc
      00FF4DC8H   CODE     ---       CMN_CmdHal_SetCalibrationEnable
      00FF4F9DH   CODE     ---       CMN_CmdHal_SetCalibrationSetting
      00FF4E75H   CODE     ---       CMN_CmdHal_SetPmuMpkSetting
      00FF4E8AH   CODE     ---       CMN_CmdHal_SetPmuOpMode
      00FF4EA3H   CODE     ---       CMN_CmdHal_SetRssiOffset
      00FF6503H   CODE     ---       CMN_CmdHal_SetTxPower
      00FF4F4FH   CODE     ---       CMN_CmdHal_SetTxPowerBy
      00FF6538H   CODE     ---       CMN_CmdHal_SetTxPowerOqpsk
      00FF4E2DH   CODE     ---       CMN_CmdHal_SetTxPwrChComp
      00FF4E42H   CODE     ---       CMN_CmdHal_SetTxPwrChSegment
      00FF4E58H   CODE     ---       CMN_CmdHal_SetTxPwrComp
      00FF4B63H   CODE     ---       CMN_CmdSys_GetRfbFwVer
      00FF4B6EH   CODE     ---       CMN_GetFwVerEventSend
      00FF4CF0H   CODE     ---       CMN_GetTemperatureRptEventSend
      00FF475AH   CODE     ---       CMN_GetVoltageRptEventSend
      00FF4DD9H   CODE     ---       CMN_SetCalibrationEnableEventSend
      00FF1426H   CODE     ---       common_isr_init
      00FF48F1H   CODE     ---       common_isrBmuCheckTx
      00FF64F9H   CODE     ---       common_isrBmuHandler
      00FF604BH   CODE     ---       Common_IsrBmuTxQAdd?_
      00FF625AH   CODE     ---       Common_IsrBmuTxQDeleteAllByCondition?_
      00FF63C9H   CODE     ---       Common_IsrBmuTxQDeleteByPtr?_
      00FF6109H   CODE     ---       Common_IsrBmuTxQGetByHandle?_
      00FF6489H   CODE     ---       Common_IsrBmuTxQInit
      00FF61C1H   CODE     ---       Common_IsrBmuTxQPciGet
*SFR* 000000C8H.0 DATA     BIT       CP_RL2
*SFR* 000000D8H.7 DATA     BIT       CPUSRF
*SFR* 000000D8H.6 DATA     BIT       CR
*SFR* 000000CBH   DATA     BYTE      CRCH
*SFR* 000000CAH   DATA     BYTE      CRCL
*SFR* 000000D0H.7 DATA     BIT       CY
*SFR* 000000CFH   DATA     BYTE      DEVICR
*SFR* 0000008FH   DATA     BYTE      DMAIR
*SFR* 00000083H   DATA     BYTE      DPH
*SFR* 00000083H   DATA     BYTE      DPH1
*SFR* 00000082H   DATA     BYTE      DPL
*SFR* 00000082H   DATA     BYTE      DPL1
*SFR* 00000086H   DATA     BYTE      DPS
*SFR* 00000084H   DATA     BYTE      DPX1
*SFR* 00000084H   DATA     BYTE      DPXL
*SFR* 000000A8H.7 DATA     BIT       EA
*SFR* 000000A8H.6 DATA     BIT       EC
*SFR* 00000090H.2 DATA     BIT       ECI
*SFR* 000000E8H   DATA     BYTE      EIE
*SFR* 00000091H   DATA     BYTE      EIF
*SFR* 000000F8H   DATA     BYTE      EIP
*SFR* 000000B6H   DATA     BYTE      EIPH
*SFR* 000000B6H   DATA     BYTE      EIPH0
L251 LINKER/LOCATER V4.66.93.0                                                        12/18/2023  14:21:09  PAGE 17


*SFR* 000000F8H   DATA     BYTE      EIPL
*SFR* 000000A8H.4 DATA     BIT       ES
*SFR* 000000A8H.4 DATA     BIT       ES0
*SFR* 000000A8H.6 DATA     BIT       ES1
*SFR* 000000A8H.1 DATA     BIT       ET0
*SFR* 000000A8H.3 DATA     BIT       ET1
*SFR* 000000A8H.5 DATA     BIT       ET2
*SFR* 000000D8H.1 DATA     BIT       EWT
*SFR* 000000A8H.0 DATA     BIT       EX0
*SFR* 000000A8H.2 DATA     BIT       EX1
*SFR* 000000C8H.3 DATA     BIT       EXEN2
*SFR* 000000C8H.6 DATA     BIT       EXF2
*SFR* 000000D0H.5 DATA     BIT       F0
*SFR* 00000098H.7 DATA     BIT       FE
      0000B352H   EDATA    ---       g15p4Mac
      0000B365H   EDATA    ---       g15p4Phy
      0000B0B8H   EDATA    ---       g_mac_htrp_ctrl
      0000B1EAH   EDATA    BYTE      g_mac_htrp_rx_commit_type
      0000B5C5H   EDATA    BYTE      g_mac_htrp_rx_set_ch_time
      0000B5C4H   EDATA    BYTE      g_mac_htrp_rx_state
      0000B5C6H   EDATA    BYTE      g_mac_htrp_rx_sync_time
      0000B1EBH   EDATA    ---       g_mac_htrp_tx_local_data
      0000B5DFH   EDATA    BYTE      g_mac_htrp_tx_set_ch_time
      0000B5DEH   EDATA    BYTE      g_mac_htrp_tx_state
      0000B525H   EDATA    ---       g_mac_isr_cb_handle
      0000A915H   EDATA    BYTE      gBackoffExpIdx
      0000B20BH   EDATA    ---       gBmuDataList
      0000B207H   EDATA    ---       gBmuDataListHead
      0000B209H   EDATA    ---       gBmuDataListTail
      0000B1FCH   EDATA    ---       gBmuDataTxCtrlField
      0000B1F5H   EDATA    ---       gBmuDataTxQList
      00FF11EAH   HCONST   ---       gCmnHalCmdLen
      00FF11E8H   HCONST   ---       gCmnSysCmdLen
      0000A914H   EDATA    BYTE      gCsmacaRetry
      00FF5A22H   CODE     ---       get_pan_number
      0000B409H   EDATA    ---       gIntrRegMask
      0000B411H   EDATA    ---       gIntrRfHdlrTable
      0000B554H   EDATA    DWORD     gLastWakeTick
      0000B591H   EDATA    DWORD     gMac_Frame_Pending_Rx_Time
      0000B1F3H   EDATA    ---       gMac_htrp_rx_done_hdl
      0000B1F1H   EDATA    ---       gMac_htrp_tx_done_hdl
      0000A0D6H   EDATA    ---       gMacBuf
      0000B283H   EDATA    ---       gMacFunCtrl
      0000B284H   EDATA    ---       gMacFunEventQ
      0000A093H   EDATA    ---       gMacHdr
      0000B29EH   EDATA    ---       gMacIntEventQ
      0000B2BAH   EDATA    ---       gMacPib
      0000B2B8H   EDATA    INT       gMacRaaState
      0000B37FH   EDATA    ---       gMacRfeRpt
      0000B370H   EDATA    ---       gMacRfeRxCtrl
      0000B36EH   EDATA    INT       gMacRfeRxState
      0000B3E9H   EDATA    ---       gMacRfeTxCtrl
      0000B3E7H   EDATA    INT       gMacRfeTxState
      0000A028H   EDATA    ---       gMacRxPar
      0000A92AH   EDATA    ---       gMacSrcCtrl
      0000A000H   EDATA    INT       gMacTarState
      0000A002H   EDATA    ---       gMacTxPar
      00FF11D7H   HCONST   ---       gPci15p4MacCmdLen
      00FF11CCH   HCONST   ---       gPciBleCmdLen
      00FF11A7H   HCONST   ---       gPciCommonCmdLen
      00FF11C6H   HCONST   ---       gPciFskCmdLen
      00FF11E4H   HCONST   ---       gPciOqpskCmdLen
      0000A90EH   EDATA    ---       gPhyStatus
      0000B2DAH   EDATA    ---       gRaa_Sch_Handler_Entry
      0000A913H   EDATA    BYTE      gRetransmissionCount
L251 LINKER/LOCATER V4.66.93.0                                                        12/18/2023  14:21:09  PAGE 18


      0000B351H   EDATA    BYTE      gSleepEnable
      0000B558H   EDATA    ---       gSysEntry_Sleep
      0000B566H   EDATA    ---       gSysRtcHdlrTable
      0000A916H   EDATA    ---       gTar_ScheHandler_Entry
      0000B572H   EDATA    BYTE      gTaskMask
      0000B573H   EDATA    ---       gTaskTable
      00FFA7F6H   CODE     ---       HAL_ClkModeSet
      00FFC1ABH   CODE     ---       HAL_ColdInit
      00FFAD30H   CODE     ---       HAL_DftParaGet
      00FFA9F7H   CODE     ---       HAL_HwInit
      00FF3FC9H   CODE     ---       HAL_HwModeGet
      00FFA83EH   CODE     ---       HAL_HwModeInit?_
      00FFA7E7H   CODE     ---       HAL_Is2gRf
      00FF7FA6H   CODE     ---       HAL_IsBleHw
      00FFA6CEH   CODE     ---       HAL_IsSubgRf
      00FFA683H   CODE     ---       HAL_IsWisunHw
      00FFA698H   CODE     ---       HAL_IsZigbeeHw
      00FFC0C2H   CODE     ---       HAL_ParaInit
      00FFADC5H   CODE     ---       HAL_PktTypeSet
      00FFAF7AH   CODE     ---       HAL_Watchdog
      00FFC095H   CODE     ---       HALIO_dioSet
      00FF3391H   CODE     ---       HALMAC_CrcInitDftGet
      00FF3EBFH   CODE     ---       HALMAC_CrcLenCfgGet
      00FF37F7H   CODE     ---       HALMAC_CrcSet
      00FFB128H   CODE     ---       HALMAC_IfsR2R
      00FFB1AAH   CODE     ---       HALMAC_IfsR2T
      00FFB0C6H   CODE     ---       HALMAC_IfsT2R
      00FFB03AH   CODE     ---       HALMAC_IfsT2T
      00FF2EC7H   CODE     ---       HALMAC_MaxPayloadDftGet
      00FF7C46H   CODE     ---       HALMAC_MaxPayloadLenGet
      00FFAF84H   CODE     ---       HALMAC_PhrLenCfgGet
      00FF2539H   CODE     ---       HALMAC_PhrSet
      00FFAD51H   CODE     ---       HALMAC_PktBitEndianSet
      00FFAD11H   CODE     ---       HALMAC_RxMaxPktLenSet
      00FF37ECH   CODE     ---       HALMAC_RxMhrRptLenSet
      00FF3F72H   CODE     ---       HALMAC_RxPayloadLenGet
      00FF8FB2H   CODE     ---       HALMAC_RxPreambleSet
      00FF8ECFH   CODE     ---       HALMAC_RxSfdSet
      00FFAFA6H   CODE     ---       HALMAC_SfdDftGet
      00FF8FA2H   CODE     ---       HALMAC_TxPreambleSet
      00FF33D1H   CODE     ---       HALMAC_TxSfdSet
      00FFAFC1H   CODE     ---       HALMAC_TxTypeSet
      00FFAF7BH   CODE     ---       HALMAC_WhitenDftGet
      00FF3335H   CODE     ---       HALMAC_WhitenInitDftGet
      00FF37C1H   CODE     ---       HALMAC_WhitenSet
      00FFBD23H   CODE     ---       HALPHY_BleRxParaSet
      00FFB1DFH   CODE     ---       HALPHY_DfeSet
      00FFBDA9H   CODE     ---       HALPHY_FskRxParaSet
      00FF33BAH   CODE     ---       HALPHY_GaussianFiltSet
      00FFBDE4H   CODE     ---       HALPHY_InputPwrGet
      00FFBD88H   CODE     ---       HALPHY_ModIdxSet
      00FFB258H   CODE     ---       HALPHY_ParaSet
      00FF31C8H   CODE     ---       HALPHY_PreamNumSet
      00FFB95AH   CODE     ---       HALPHY_RxBwSet
      00FFB402H   CODE     ---       HALPHY_RxDisable
      00FFB41CH   CODE     ---       HALPHY_RxEnable
      00FFB69DH   CODE     ---       HALPHY_TxBwSet
      00FFB4C9H   CODE     ---       HALPHY_TxEnable
      00FF6AD2H   CODE     ---       HALPKT_PhyStatusGet
      00FF28B0H   CODE     ---       HALPKT_RxqDoneSet
      00FF2563H   CODE     ---       HALPKT_TxqDoneSet
      00FFCC9BH   CODE     ---       HALPMU_PwrModeGet
      00FFCC6EH   CODE     ---       HALPMU_PwrModeSet
      00FFC978H   CODE     ---       HALRF_AgcInit
      00FFBE6FH   CODE     ---       HALRF_AgcSet
L251 LINKER/LOCATER V4.66.93.0                                                        12/18/2023  14:21:09  PAGE 19


      00FF5724H   CODE     ---       HALRF_AgcSet2Hw
      00FFA6DCH   CODE     ---       HALRF_AllPathDisable
      00FFC9E5H   CODE     ---       HALRF_ExtFemInit
      00FFCA85H   CODE     ---       HALRF_Freq2gCal
      00FFBED4H   CODE     ---       HALRF_Freq2gCfg
      00FFC7C1H   CODE     ---       HALRF_FreqSubgCfg
      00FFC9E6H   CODE     ---       HALRF_IfCheck
      00FFB45AH   CODE     ---       HALRF_PllCfg
      00FFBFE5H   CODE     ---       HALRF_RssiOffsetSet
      00FFC9E3H   CODE     ---       HALRF_TemperatureMeasure
      00FFBFB7H   CODE     ---       HALRF_TemperatureRptGet
      00FFACA7H   CODE     ---       HALRF_TxGainTableCfg
      00FF4F74H   CODE     ---       HALRF_TxPwrChCompSet
      00FFBF97H   CODE     ---       HALRF_TxPwrChSegSet
      00FFBE82H   CODE     ---       HALRF_TxPwrCompChUpdat
      00FF4EE1H   CODE     ---       HALRF_TxPwrCompSet
      00FFA78CH   CODE     ---       HALRF_TxPwrCompSet2Hw
      00FF4F04H   CODE     ---       HALRF_TxPwrCompUpdate
      00FFAE2AH   CODE     ---       HALRF_TxPwrRptGet
      00FFAD7BH   CODE     ---       HALRF_TxPwrSet
      00FFAC65H   CODE     ---       HALRF_TxPwrSet2Hw
      00FFC9E4H   CODE     ---       HALRF_VoltageMeasure
      00FFBFCEH   CODE     ---       HALRF_VoltageRptGet
      00FF5300H   CODE     ---       HALRFK_Calibration
      00FFC041H   CODE     ---       HALRFK_kValueGet?_
      00FFAE95H   CODE     ---       HALRFK_kValueSet2Hw
      00FFAF22H   CODE     ---       HALRFK_kValueSet?_
      00FFC6E1H   CODE     ---       HALRFK_LbPathDisable
      00FFC3E9H   CODE     ---       HALRFK_LbPathEnable
      00FF53AFH   CODE     ---       HALRFK_LbTrxDisable
      00FF5291H   CODE     ---       HALRFK_LbTrxEnable
      00FFC1CCH   CODE     ---       HALRFK_ParaBackUp
      00FFC33DH   CODE     ---       HALRFK_ParaRecover
      00FF55A3H   CODE     ---       HALRFK_PllForFiltKSet
      00FF5508H   CODE     ---       HALRFK_PllForLokSet
      00FF5527H   CODE     ---       HALRFK_PllForSideBandKSet
      00FF554DH   CODE     ---       HALRFK_RfGainCfg
      00FF56B9H   CODE     ---       HALRFK_RfPllCfg
      00FF560AH   CODE     ---       HALRFK_RfTxCfg
      00FFC49FH   CODE     ---       HALRFK_RingPllSet
      00FF53FAH   CODE     ---       HALRFK_RssiGet
      00FFC2C8H   CODE     ---       HALRFK_RxBwCfg
      00FFC7A3H   CODE     ---       HALRFK_RxDisable
      00FFA70EH   CODE     ---       HALRFK_RxEnable
      00FF5464H   CODE     ---       HALRFK_RxFiltK
      00FFC778H   CODE     ---       HALRFK_RxPathDisable
      00FFC708H   CODE     ---       HALRFK_RxPathEnable
      00FF53A2H   CODE     ---       HALRFK_SingleToneDisable
      00FF53D1H   CODE     ---       HALRFK_SingleToneEnable
      00FFC58FH   CODE     ---       HALRFK_TxLok
      00FFC613H   CODE     ---       HALRFK_TxSbk
      00FF7FD2H   CODE     ---       HALSEC_AesKeyOnlySet
      00FF46E7H   CODE     ---       HALSEC_AesKeySet
      00FFBFFCH   CODE     ---       HALSEC_AesLevelOnlySet
      00FF3FF0H   CODE     ---       HALSEC_AesSet
      00FFC026H   CODE     ---       HALSEC_AesTxSet
      00FF7FC5H   CODE     ---       HALSEC_NonceOnlySet
      00FFCAEFH   CODE     ---       HALTCON_Init
      00FFCC19H   CODE     ---       HALTCON_PreTxTimeSet
      00FFB161H   CODE     ---       HALTCON_RxTailDelayGet
      00FFB09CH   CODE     ---       HALTCON_TxTailDelayGet
      00FF01AFH   CODE     ---       hmemcpy?_
*SFR* 000000F6H   DATA     BYTE      I2CM_BUF
*SFR* 000000F5H   DATA     BYTE      I2CM_CR
*SFR* 000000F4H   DATA     BYTE      I2CM_SA
L251 LINKER/LOCATER V4.66.93.0                                                        12/18/2023  14:21:09  PAGE 20


*SFR* 000000F7H   DATA     BYTE      I2CM_TP
*SFR* 000000F1H   DATA     BYTE      I2CS_ADDR
*SFR* 000000F3H   DATA     BYTE      I2CS_BUF
*SFR* 000000F2H   DATA     BYTE      I2CS_CR
*SFR* 000000C8H.5 DATA     BIT       I2FR
*SFR* 000000C8H.6 DATA     BIT       I3FR
*SFR* 000000A8H   DATA     BYTE      IE
*SFR* 00000088H.1 DATA     BIT       IE0
*SFR* 00000088H.1 DATA     BIT       IE0_
*SFR* 00000088H.3 DATA     BIT       IE1
*SFR* 00000088H.3 DATA     BIT       IE1_
*SFR* 000000B1H   DATA     BYTE      IEH
*SFR* 000000A8H   DATA     BYTE      IEL
*SFR* 000000B0H.2 DATA     BIT       INT0
*SFR* 000000B0H.3 DATA     BIT       INT1
      00FF2029H   CODE     ---       INTR_Clear
      00FF2052H   CODE     ---       INTR_ClearRtcGrp
      00FF17E5H   CODE     ---       INTR_Enable
      00FF2063H   CODE     ---       INTR_Rf_Hdlr
      00FF13D9H   CODE     ---       INTR_Rf_Register
*SFR* 000000B8H   DATA     BYTE      IP
*SFR* 000000B7H   DATA     BYTE      IPH
*SFR* 000000B7H   DATA     BYTE      IPH0
*SFR* 000000B8H   DATA     BYTE      IPL
*SFR* 000000B8H   DATA     BYTE      IPL0
      00FF2072H   CODE     ---       ISR_0_Hdlr
      00FF4068H   CODE     ---       ISR_1_Hdlr
      00FF3099H   CODE     ---       ISR_CLEAR_MAC_STATUS
      00FF3836H   CODE     ---       ISR_GET_MAC_STATUS
*SFR* 00000088H.0 DATA     BIT       IT0
*SFR* 00000088H.2 DATA     BIT       IT1
      00FF82CDH   CODE     ---       mac
      00FF9C85H   CODE     ---       MAC_AckFrameCheck
      00FF7C71H   CODE     ---       MAC_AckSet
      00FF3F39H   CODE     ---       MAC_BackoffTimeCal
      00FF88A6H   CODE     ---       mac_BmuIsrInit
      00FF3A71H   CODE     ---       MAC_CcaStart
      00FF3856H   CODE     ---       MAC_CcaStatusGet
      00FF832BH   CODE     ---       mac_CheckBmuErr
      00FF3845H   CODE     ---       mac_CheckIsrRxReceived
      00FF38D2H   CODE     ---       mac_CheckRxBusy
      00FF49C9H   CODE     ---       MAC_CmdQueueParse
      00FF373FH   CODE     ---       Mac_endianConvert
      00FF30AAH   CODE     ---       mac_FatalClear
      00FF9965H   CODE     ---       mac_Filter?_
      00FF26FCH   CODE     ---       mac_FunEventQAdd?_
      00FF24CCH   CODE     ---       mac_FunEventQGet?_
      00FF835FH   CODE     ---       mac_FunEventQInit
      00FF3183H   CODE     ---       mac_FunEventQueueExist
      00FF97FCH   CODE     ---       mac_genAck
      00FF9841H   CODE     ---       mac_genAckFrmCtrl
      00FF33EDH   CODE     ---       mac_genEnhAck
      00FF98B3H   CODE     ---       mac_getCslPhase
      00FFA1C0H   CODE     ---       mac_htrp_check_rx_conn_status
      00FF76C4H   CODE     ---       mac_htrp_check_rx_valid
      00FF2F6AH   CODE     ---       mac_htrp_clear_rx_queue
      00FF6475H   CODE     ---       mac_htrp_clear_tx_queue
      00FF1DA7H   CODE     ---       mac_htrp_ctrl_channel_set
      00FFA0EBH   CODE     ---       mac_htrp_ctrl_clear_pkt_cnt
      00FFA0D3H   CODE     ---       mac_htrp_ctrl_get_channel
      00FF2007H   CODE     ---       mac_htrp_ctrl_increase_channel_index
      00FF7648H   CODE     ---       mac_htrp_ctrl_increase_cur_block
      00FFA110H   CODE     ---       mac_htrp_ctrl_increase_pkt_cnt
      00FF740EH   CODE     ---       mac_htrp_ctrl_increase_slot_index
      00FFA1DFH   CODE     ---       mac_htrp_ctrl_init
L251 LINKER/LOCATER V4.66.93.0                                                        12/18/2023  14:21:09  PAGE 21


      00FFA086H   CODE     ---       mac_htrp_ctrl_set_channel_map_from_bmu
      00FFA172H   CODE     ---       mac_htrp_ctrl_slot_sync
      00FF6B88H   CODE     ---       mac_htrp_get_rx_sw_queue_wo_addr
      00FF24B8H   CODE     ---       mac_htrp_get_tx_data
      00FFA229H   CODE     ---       mac_htrp_is_allow_sleep_state
      00FFA19CH   CODE     ---       mac_htrp_isr_rx_done_handler
      00FF26BFH   CODE     ---       mac_htrp_isr_tx_done_handler
      00FF4253H   CODE     ---       mac_htrp_ready_to_sleep
      00FF24AFH   CODE     ---       mac_htrp_reg_isr_cb
      00FF6B04H   CODE     ---       mac_htrp_relay_data_to_sw_rxq
      00FF8F92H   CODE     ---       mac_htrp_reset_rx_conn_status
      00FFA223H   CODE     ---       mac_htrp_rtc_isr_handler
      00FF7508H   CODE     ---       mac_htrp_rx_burst_rx_done
      00FF1DF4H   CODE     ---       mac_htrp_rx_cal_drift_time
      00FF1FF5H   CODE     ---       mac_htrp_rx_get_state
      00FF2A62H   CODE     ---       mac_htrp_rx_handler
      00FF179BH   CODE     ---       mac_htrp_rx_init
      00FF766AH   CODE     ---       mac_htrp_rx_period_rx_done
      00FFA2B4H   CODE     ---       mac_htrp_rx_period_tx_done
      00FF1E61H   CODE     ---       mac_htrp_rx_set_next_task_and_channel
      00FF1B8FH   CODE     ---       mac_htrp_rx_set_period_next_task
      00FF1AD6H   CODE     ---       mac_htrp_rx_set_rf_task
      00FF17EAH   CODE     ---       mac_htrp_rx_set_state
      00FF7536H   CODE     ---       mac_htrp_rx_slot_rx_done
      00FFA2ABH   CODE     ---       mac_htrp_rx_slot_tx_done
      00FF646AH   CODE     ---       mac_htrp_send_tx_done
      00FF8FCDH   CODE     ---       mac_htrp_set_disable
      00FF2FECH   CODE     ---       mac_htrp_set_rx_hw_queue
      00FF2FE1H   CODE     ---       mac_htrp_set_rx_queue
      00FF74F1H   CODE     ---       mac_htrp_set_rx_sw_queue
      00FF8FD6H   CODE     ---       mac_htrp_set_sec_para
      00FF23C1H   CODE     ---       mac_htrp_set_tx_queue
      00FFA26AH   CODE     ---       mac_htrp_sleep_ctrl
      00FFA202H   CODE     ---       mac_htrp_sleep_init
      00FF7571H   CODE     ---       mac_htrp_tx_burst_tx_done
      00FF2782H   CODE     ---       mac_htrp_tx_get_state
      00FF2161H   CODE     ---       mac_htrp_tx_handler
      00FF17EFH   CODE     ---       mac_htrp_tx_init
      00FF742FH   CODE     ---       mac_htrp_tx_period_burst_rx_done
      00FF75BEH   CODE     ---       mac_htrp_tx_period_burst_tx_done
      00FF1F37H   CODE     ---       mac_htrp_tx_set_rf_task
      00FF23BAH   CODE     ---       mac_htrp_tx_set_state
      00FF7366H   CODE     ---       mac_htrp_tx_slot_rx_done
      00FF763FH   CODE     ---       mac_htrp_tx_slot_tx_done
      00FF7356H   CODE     ---       mac_htrp_update_lrx_buf_status
      00FF1435H   CODE     ---       mac_Init
      00FF25DDH   CODE     ---       mac_IntEventQAdd?_
      00FF8295H   CODE     ---       mac_IntEventQGet?_
      00FF836BH   CODE     ---       mac_IntEventQInit
      00FF25A7H   CODE     ---       mac_IntEventQueueClearTxData
      00FF8566H   CODE     ---       mac_IntEventQueueExist
      00FF48CBH   CODE     ---       mac_IntEventQueueHandler
      00FF3FD1H   CODE     ---       mac_isr_reg_cb
      00FF8815H   CODE     ---       mac_IsrHandler
      00FF17C2H   CODE     ---       mac_IsrInit
      00FF97F1H   CODE     ---       MAC_MhrParse
      00FF98F4H   CODE     ---       MAC_NonceGen
      00FF9C6CH   CODE     ---       mac_org_cca_done_handler
      00FF97AFH   CODE     ---       mac_org_mhr_done_handler
      00FF97CCH   CODE     ---       mac_org_rx_done_handler
      00FF9C65H   CODE     ---       mac_org_tx_done_handler
      00FF861BH   CODE     ---       mac_parseHdr
      00FF925AH   CODE     ---       mac_Raa_SchConfigHdlr
      00FF9790H   CODE     ---       mac_Raa_SchEndHdlr
      00FF96C3H   CODE     ---       mac_Raa_SchInitHdlr
L251 LINKER/LOCATER V4.66.93.0                                                        12/18/2023  14:21:09  PAGE 22


      00FF97AEH   CODE     ---       mac_Raa_SchReservedHdlr
      00FF96C4H   CODE     ---       mac_Raa_SchWaitMHRHdlr
      00FF978FH   CODE     ---       mac_Raa_SchWaitResumeHdlr
      00FF2734H   CODE     ---       mac_Raa_SchWaitRxDoneHdlr
      00FF975EH   CODE     ---       mac_Raa_SchWaitTxDoneHdlr
      00FF2787H   CODE     ---       Mac_RaaClearAckQandGenRxData
      00FF7D3DH   CODE     ---       Mac_RaaRxDoneHandle?_
      00FF8303H   CODE     ---       MAC_RaaSchedule
      00FF9FEDH   CODE     ---       MAC_RfeDataGen
      00FF6FA2H   CODE     ---       MAC_RfeRxAonTaskDisable
      00FF6BD3H   CODE     ---       MAC_RfeRxDataConfirm
      00FF9E6AH   CODE     ---       MAC_RfeRxDisable
      00FF8ABFH   CODE     ---       MAC_RfeRxParInit
      00FF9EB3H   CODE     ---       MAC_RfeRxRptGet
      00FF6C9CH   CODE     ---       MAC_RfeRxSchedule
      00FF9EC6H   CODE     ---       MAC_RfeSecLbHwSet
      00FF9F9DH   CODE     ---       MAC_RfeTxHwSecSet
      00FF7A55H   CODE     ---       MAC_RfeTxParInit
      00FF9F2AH   CODE     ---       MAC_RfeTxPktLenUpdate
      00FF14B1H   CODE     ---       MAC_RfeTxSchedule
      00FF93E0H   CODE     ---       MAC_RfeTxTaskSet
      00FF3792H   CODE     ---       mac_RssiInfoCalc
      00FF2793H   CODE     ---       MAC_RxDoneEventGen?_
      00FF29F1H   CODE     ---       MAC_RxHwSet
      00FF71C8H   CODE     ---       MAC_RXQ_CPY?_
      00FF3ED8H   CODE     ---       MAC_SecLbHwSet
      00FF41E4H   CODE     ---       MAC_SleepCheck
      00FF59E6H   CODE     ---       MAC_SrcMatch_Enable
      00FF37A5H   CODE     ---       MAC_SrcMatch_EnableStatusGet
      00FF5EC8H   CODE     ---       MAC_SrcMatch_ListAdd
      00FFA512H   CODE     ---       MAC_SrcMatch_ListAddExtended
      00FFA400H   CODE     ---       MAC_SrcMatch_ListAddShort
      00FF5BD1H   CODE     ---       MAC_SrcMatch_ListClear
      00FF5E73H   CODE     ---       MAC_SrcMatch_ListFind
      00FF7715H   CODE     ---       MAC_SrcMatch_ListFindExtended?_
      00FF5E52H   CODE     ---       MAC_SrcMatch_ListFindIdx
      00FFA36BH   CODE     ---       MAC_SrcMatch_ListFindShort?_
      00FFA303H   CODE     ---       MAC_SrcMatch_ListInit
      00FF5EAAH   CODE     ---       MAC_SrcMatch_ListModify
      00FFA5B6H   CODE     ---       MAC_SrcMatch_ListModifyExtended
      00FFA4A1H   CODE     ---       MAC_SrcMatch_ListModifyShort
      00FF3ACCH   CODE     ---       mac_tar_cca_setup
      00FF9DAEH   CODE     ---       mac_tar_check_data_requst
      00FF3C9AH   CODE     ---       mac_Tar_SchConfigHdlr
      00FF9C34H   CODE     ---       mac_Tar_SchEndHdlr
      00FF9B6EH   CODE     ---       mac_Tar_SchInitHdlr
      00FF9C64H   CODE     ---       mac_Tar_SchReservedHdlr
      00FF2901H   CODE     ---       mac_Tar_SchWaitAckRxDoneHdlr
      00FF9BE1H   CODE     ---       mac_Tar_SchWaitAckRxMHRHdlr
      00FF3972H   CODE     ---       mac_Tar_SchWaitCCADoneHdlr
      00FF3C66H   CODE     ---       mac_Tar_SchWaitNormalAckDoneHdlr
      00FF3AD1H   CODE     ---       mac_Tar_SchWaitNormalRxMsgHdlr
      00FF9B6FH   CODE     ---       mac_Tar_SchWaitTxDoneHdlr
      00FF3FDEH   CODE     ---       MAC_TarParInit
      00FF8317H   CODE     ---       MAC_TarSchedule
      00FF82C2H   CODE     ---       Mac_TimeoutHdlr
      00FF8377H   CODE     ---       mac_TrxPar_Init
      00FF3BD5H   CODE     ---       MAC_TxDoneEventGen
      00FF2615H   CODE     ---       Mac_TxGetBmuData
      00FF3D2BH   CODE     ---       MAC_TxHwSet
      00FF3A44H   CODE     ---       MAC_TxStart
      00FF3A55H   CODE     ---       MAC_TxTaskSet
      00FF3ABCH   CODE     ---       MAC_WaitforRxTaskReady
      00FF0F95H   HCONST   ---       MACRfeDataType
      00FF0F9BH   HCONST   ---       MACRfePrbs9
L251 LINKER/LOCATER V4.66.93.0                                                        12/18/2023  14:21:09  PAGE 23


      0000AC43H   EDATA    ---       MacSrcAddEntry
      0000AC3FH   EDATA    ---       MacSrcFindEntry
      0000AC47H   EDATA    ---       MacSrcModifyEntry
      00FF6453H   CODE     ---       MacTxFreeBmuData
      00FF136DH   CODE     ---       MAIN
      00FF0190H   CODE     ---       memcpy?_
      00FF01CEH   CODE     ---       memset?_
      00FF98A8H   CODE     ---       mod_replace
      00FFA672H   CODE     ---       MSG_EventClr
      00FF17CEH   CODE     ---       MSG_Hdlr
      00FF13BAH   CODE     ---       MSG_HdlrInit
      00FF41B6H   CODE     ---       MSG_Idle
      00FF1729H   CODE     ---       MSG_InMsgProc
      00FFA627H   CODE     ---       MSG_Isr?_
      00FF4FD0H   CODE     ---       MSG_OutMsgForceHandle
      00FF4C55H   CODE     ---       MSG_OutMsgProc
      00FF4C2CH   CODE     ---       MSG_OutMsgToBmu
      00FF4C7FH   CODE     ---       MSG_OutStateSet
*SFR* 000000EAH   DATA     BYTE      MXAX
*SFR* 000000D1H.5 DATA     BIT       N_B
*SFR* 000000D0H.2 DATA     BIT       OV
*SFR* 000000D0H.0 DATA     BIT       P
*SFR* 00000080H   DATA     BYTE      P0
*SFR* 00000090H   DATA     BYTE      P1
*SFR* 000000A0H   DATA     BYTE      P2
*SFR* 000000B0H   DATA     BYTE      P3
      00FF8575H   CODE     ---       panIdPresent
      0000B523H   EDATA    ---       pBmuLrxShareQCtrl
      00FF0006H   HCONST   ---       pBmuMacIntrSts
      00FF31DFH   CODE     ---       Pci_BleCmdInitBle
      00FF8E49H   CODE     ---       Pci_BleCmdSetBleMac
      00FF8C8BH   CODE     ---       Pci_BleCmdSetBleModem
      00FF2F1EH   CODE     ---       Pci_BlePhy_GetHtrp_Status
      00FF8DA6H   CODE     ---       Pci_BlePhy_SetHtrp_Disable
      00FF90BFH   CODE     ---       Pci_BlePhy_SetHtrp_Initiate
      00FF8E11H   CODE     ---       Pci_BlePhy_SetHtrp_Map_Channel
      00FF8FF7H   CODE     ---       Pci_BlePhy_SetHtrp_Para
      00FF8DC3H   CODE     ---       Pci_BlePhy_SetHtrp_Rx_Enable
      00FF8DE1H   CODE     ---       Pci_BlePhy_SetHtrp_Sec
      00FF909AH   CODE     ---       Pci_BlePhy_SetHtrp_Tx_Enable
      00FF4662H   CODE     ---       Pci_EnableSingleTone
      00FF596AH   CODE     ---       Pci_Get15p4CslAccuracy
      00FF59A0H   CODE     ---       Pci_Get15p4CslUncertainty
      00FF4428H   CODE     ---       Pci_GetCrcCount
      00FF44FBH   CODE     ---       Pci_GetPhyStatus
      00FF4492H   CODE     ---       Pci_GetRssi
      00FF3261H   CODE     ---       Pci_InitFsk
      00FF9102H   CODE     ---       Pci_InitZigbee
      00FF9175H   CODE     ---       Pci_OqpskCmdInitOqpsk
      00FF333EH   CODE     ---       Pci_OqpskCmdSetOqpskMac
      00FF91B2H   CODE     ---       Pci_OqpskCmdSetOqpskModem
      00FF3205H   CODE     ---       Pci_ParaReset
      00FF5A59H   CODE     ---       Pci_Parse15p4AddressFilter
      00FF5E98H   CODE     ---       Pci_Parse15p4AutoAck
      00FF5F5DH   CODE     ---       Pci_Parse15p4MacPib
      00FF59F5H   CODE     ---       Pci_Parse15p4PendingBit
      00FF5EE9H   CODE     ---       Pci_Parse15p4PhyPib
      00FF59D6H   CODE     ---       Pci_Parse15p4SmEnable
      00FF58EFH   CODE     ---       Pci_Parse15p4SwMacCmd
      00FF8D3FH   CODE     ---       Pci_ParseBleCmd
      00FF4D4EH   CODE     ---       Pci_ParseCmnHalCmd
      00FF4B55H   CODE     ---       Pci_ParseCmnSysCmd
      00FF435BH   CODE     ---       Pci_ParseCommonCmd
      00FF3233H   CODE     ---       Pci_ParseFskCmd
      00FF4C0FH   CODE     ---       Pci_ParseOqpskCmd
L251 LINKER/LOCATER V4.66.93.0                                                        12/18/2023  14:21:09  PAGE 24


      00FF5B33H   CODE     ---       Pci_Parset15p4SmEntryCtrl
      00FF8A73H   CODE     ---       Pci_RfeRxParaCheck
      00FF7B8DH   CODE     ---       Pci_RfeTxParaCheck
      00FF5880H   CODE     ---       Pci_Set15p4CslReceiverCtrl
      00FF8B66H   CODE     ---       Pci_SetClockMode
      00FF32E6H   CODE     ---       Pci_SetFskMac
      00FF8C49H   CODE     ---       Pci_SetFskModem
      00FF31ACH   CODE     ---       Pci_SetFskPreamble
      00FF329AH   CODE     ---       Pci_SetFskSfd
      00FF33A8H   CODE     ---       Pci_SetFskType
      00FF8C36H   CODE     ---       Pci_SetGaussianFilterType
      00FF3D8BH   CODE     ---       Pci_SetPhr
      00FF8BB2H   CODE     ---       Pci_SetRfbAutoState
      00FF8C2CH   CODE     ---       Pci_SetRfeMode
      00FF3192H   CODE     ---       Pci_SetRfeRxDisableCmd
      00FF89B7H   CODE     ---       Pci_SetRfeRxEnableCmd
      00FF46A0H   CODE     ---       Pci_SetRfeSecurityCmd
      00FF89A1H   CODE     ---       Pci_SetRfeTxDisableCmd
      00FF7AEEH   CODE     ---       Pci_SetRfeTxEnableCmd
      00FF88B2H   CODE     ---       Pci_SetRfFreq
      00FF8B50H   CODE     ---       Pci_SetRfIdle
      00FF8B31H   CODE     ---       Pci_SetRfSleep
      00FF4711H   CODE     ---       Pci_SetRxTaskPara
      00FF4260H   CODE     ---       Pci_SetWakeOnRadio
      00FF5F22H   CODE     ---       Pci_Update15p4CslSampleTime
      00FF9542H   CODE     ---       PciBurstTxdoneEventSendtoMsgQueue
      00FF2ED5H   CODE     ---       PciCnfEventSendtoMsgQueue
      00FF5976H   CODE     ---       PciCslAccuracyEventSendtoMsgQueue
      00FF59ACH   CODE     ---       PciCslUncertaintyEventSendtoMsgQueue
      00FF949FH   CODE     ---       PciDataControlFieldParse
      00FF4434H   CODE     ---       PciGetCrcEventSendtoMsgQueue
      00FF4507H   CODE     ---       PciGetPhyStatusEventSendtoMsgQueue
      00FF449EH   CODE     ---       PciGetRssiEventSendtoMsgQueue
      00FF9573H   CODE     ---       PciHtrpConnToEventdoneEventSendtoMsgQueue
      00FF9623H   CODE     ---       PciHtrpFwStatusEventdoneEventSendtoMsgQueue
      00FF95F1H   CODE     ---       PciHtrpGetRssiEventSendtoMsgQueue
      00FF38F7H   CODE     ---       PciHtrpHwStatusEventdoneEventSendtoMsgQueue
      00FF95ACH   CODE     ---       PciHtrpPerEventdoneEventSendtoMsgQueue
      00FF48E0H   CODE     ---       pciQueueGetandMacIntQueueAdd
*SFR* 00000087H   DATA     BYTE      PCON
      0000AF01H   EDATA    ---       pHalBmuMemSizeHwRxq
      0000AF05H   EDATA    ---       pHalBmuMemSizeHwSwRxq
      0000AEE1H   EDATA    ---       pHalFwCfg
      0000AEE9H   EDATA    ---       pHalHwCfg
      0000AF09H   EDATA    ---       pHalHwPara
      0000AF0DH   EDATA    ---       pHalHwTab
      0000AEEDH   EDATA    ---       pHalMdmDefaultCfg
      0000B06EH   EDATA    ---       pHalPktCfg
      0000AEF9H   EDATA    ---       pHalPmuDefaultCfg2G
      0000AEFDH   EDATA    ---       pHalPmuDefaultCfgSubG
      0000B0B4H   EDATA    ---       pHalPrtclCfg
      0000AEE5H   EDATA    ---       pHalRegPatch
      0000AEF1H   EDATA    ---       pHalRfDefaultCfg2G
      0000AEF5H   EDATA    ---       pHalRfDefaultCfgSubG
      00FF074BH   HCONST   ---       phyConfig
      00FF082BH   HCONST   ---       phyTabBpFir15Tap
      00FF0833H   HCONST   ---       phyTabBpFir31Tap
      00FF0843H   HCONST   ---       phyTabIfMap
      00FF084BH   HCONST   ---       phyTabIfMapDclk
      00FF130FH   HCONST   ---       pllFreqBandTab
      00FF136BH   HCONST   ---       pMemMapBmuLinkTable
      00FF1369H   HCONST   ---       pMemMapExtData
      00FF1367H   HCONST   ---       pMemMapSharedBuffer
      00FF02B2H   HCONST   ---       pmuConfig
*SFR* 000000D8H.6 DATA     BIT       PORF
L251 LINKER/LOCATER V4.66.93.0                                                        12/18/2023  14:21:09  PAGE 25


*SFR* 000000B8H.6 DATA     BIT       PPC
*SFR* 000000B8H.4 DATA     BIT       PS
*SFR* 000000B8H.4 DATA     BIT       PS0
*SFR* 000000B8H.6 DATA     BIT       PS1
*SFR* 000000D0H   DATA     BYTE      PSW
*SFR* 000000D1H   DATA     BYTE      PSW1
*SFR* 000000B8H.1 DATA     BIT       PT0
*SFR* 000000B8H.3 DATA     BIT       PT1
*SFR* 000000B8H.5 DATA     BIT       PT2
*SFR* 000000B8H.0 DATA     BIT       PX0
*SFR* 000000B8H.2 DATA     BIT       PX1
      00FF4FF6H   CODE     ---       Q_Init
      00FF17F5H   CODE     ---       Q_MemAlloc
      00FF5048H   CODE     ---       Q_MemFree
      00FF502EH   CODE     ---       Q_MemFreeCount
      00FF1784H   CODE     ---       Q_MemGet
      00FF5193H   CODE     ---       Q_QChageType
      00FF4BF2H   CODE     ---       Q_QFree
      00FF4C88H   CODE     ---       Q_QGet
      00FF4FE0H   CODE     ---       Q_QLenGet
      00FF5113H   CODE     ---       Q_QMoveBack
      00FF4BE5H   CODE     ---       Q_QNumGet
      00FF459BH   CODE     ---       Q_QPushBack
      00FF5055H   CODE     ---       Q_QPushFront
      00FF51CEH   CODE     ---       Q_QRemove
      00FF91F0H   CODE     ---       R2tTask_Set
*SFR* 00000098H.2 DATA     BIT       RB8
*SFR* 000000C0H.2 DATA     BIT       RB81
*SFR* 000000CBH   DATA     BYTE      RCAP2H
*SFR* 000000CAH   DATA     BYTE      RCAP2L
*SFR* 000000C8H.5 DATA     BIT       RCLK
*SFR* 000000B0H.7 DATA     BIT       RD
*SFR* 00000098H.4 DATA     BIT       REN
*SFR* 000000C0H.4 DATA     BIT       REN1
      00FF5B10H   CODE     ---       Reverse_Uint32cpy
      00FF146FH   CODE     ---       RF_Task_AllStop
      00FF181BH   CODE     ---       RF_Task_En
      00FF1900H   CODE     ---       RF_Task_Set
      00FF01E2H   HCONST   ---       rfConfig
      00FF039AH   HCONST   ---       rfTabSideBnadK
*SFR* 00000098H.0 DATA     BIT       RI
*SFR* 000000C0H.0 DATA     BIT       RI1
*SFR* 000000CBH   DATA     BYTE      RLDH
*SFR* 000000CAH   DATA     BYTE      RLDL
*SFR* 000000D0H.3 DATA     BIT       RS0
*SFR* 000000D0H.4 DATA     BIT       RS1
      00FF1DBFH   CODE     ---       RTC_ClkGet?_
      00FF5FEAH   CODE     ---       RTC_Init
      00FF603EH   CODE     ---       RTC_IsrHdlr
      00FF5FCEH   CODE     ---       RTC_IsrHdlrInit
      0000B2D9H   EDATA    BYTE      rtc_q_cnt
      00FF1F30H   CODE     ---       RTC_TickGapCount
      00FF57FDH   CODE     ---       RTC_TimerConfig
      00FF586DH   CODE     ---       RTC_TimerWakeUpDisable
      00FF5FA8H   CODE     ---       RTC_TriggerWithinUs
      00FF5272H   CODE     ---       RTC_uDelay
      00FF5F9EH   CODE     ---       RTC_WaitForTriggered
*SFR* 000000D4H   DATA     BYTE      RTCCON
*SFR* 000000D7H   DATA     BYTE      RTCICR
*SFR* 000000D6H   DATA     BYTE      RTCREG
*SFR* 000000D5H   DATA     BYTE      RTCSEC
      00FF134AH   HCONST   ---       Ruci_ElmtNum_GetCrcReportEvent
      00FF12D9H   HCONST   ---       Ruci_ElmtNum_GetFwVerEvent
      00FF1341H   HCONST   ---       Ruci_ElmtNum_GetRegEvent
      00FF12E6H   HCONST   ---       Ruci_ElmtNum_GetTemperatureRptEvent
L251 LINKER/LOCATER V4.66.93.0                                                        12/18/2023  14:21:09  PAGE 26


      00FF12F0H   HCONST   ---       Ruci_ElmtNum_GetVoltageRptEvent
      00FF1337H   HCONST   ---       Ruci_ElmtNum_RxControlField
      00FF1244H   HCONST   ---       Ruci_ElmtNum_Set15p4AddressFilter
      00FF1256H   HCONST   ---       Ruci_ElmtNum_Set15p4MacPib
      00FF1267H   HCONST   ---       Ruci_ElmtNum_Set15p4PhyPib
      00FF1287H   HCONST   ---       Ruci_ElmtNum_SetBleMac
      00FF1273H   HCONST   ---       Ruci_ElmtNum_SetCslReceiverCtrl
      00FF116CH   HCONST   ---       Ruci_ElmtNum_SetDutyCycle
      00FF1363H   HCONST   ---       Ruci_ElmtNum_SetFskSfd
      00FF129CH   HCONST   ---       Ruci_ElmtNum_SetHtrpPara
      00FF1302H   HCONST   ---       Ruci_ElmtNum_SetPmuMpkSetting
      00FF119AH   HCONST   ---       Ruci_ElmtNum_SetRfeRxEnable
      00FF117FH   HCONST   ---       Ruci_ElmtNum_SetRfeTxEnable
      00FF114FH   HCONST   ---       Ruci_ElmtNum_SetRfFrequency
      00FF1163H   HCONST   ---       Ruci_ElmtNum_SetRxEnable
      00FF132CH   HCONST   ---       Ruci_ElmtNum_SetTxControlField
      00FF1159H   HCONST   ---       Ruci_ElmtNum_SetWakeOnRadio
      00FF127CH   HCONST   ---       Ruci_ElmtNum_UpdateCslSampleTime
      00FF1345H   HCONST   ---       Ruci_ElmtType_GetCrcReportEvent
      00FF12D1H   HCONST   ---       Ruci_ElmtType_GetFwVerEvent
      00FF133DH   HCONST   ---       Ruci_ElmtType_GetRegEvent
      00FF12E1H   HCONST   ---       Ruci_ElmtType_GetTemperatureRptEvent
      00FF12EBH   HCONST   ---       Ruci_ElmtType_GetVoltageRptEvent
      00FF1331H   HCONST   ---       Ruci_ElmtType_RxControlField
      00FF123CH   HCONST   ---       Ruci_ElmtType_Set15p4AddressFilter
      00FF124CH   HCONST   ---       Ruci_ElmtType_Set15p4MacPib
      00FF1260H   HCONST   ---       Ruci_ElmtType_Set15p4PhyPib
      00FF1280H   HCONST   ---       Ruci_ElmtType_SetBleMac
      00FF126EH   HCONST   ---       Ruci_ElmtType_SetCslReceiverCtrl
      00FF1167H   HCONST   ---       Ruci_ElmtType_SetDutyCycle
      00FF135FH   HCONST   ---       Ruci_ElmtType_SetFskSfd
      00FF128EH   HCONST   ---       Ruci_ElmtType_SetHtrpPara
      00FF12F5H   HCONST   ---       Ruci_ElmtType_SetPmuMpkSetting
      00FF118DH   HCONST   ---       Ruci_ElmtType_SetRfeRxEnable
      00FF1171H   HCONST   ---       Ruci_ElmtType_SetRfeTxEnable
      00FF114BH   HCONST   ---       Ruci_ElmtType_SetRfFrequency
      00FF115FH   HCONST   ---       Ruci_ElmtType_SetRxEnable
      00FF1327H   HCONST   ---       Ruci_ElmtType_SetTxControlField
      00FF1153H   HCONST   ---       Ruci_ElmtType_SetWakeOnRadio
      00FF1278H   HCONST   ---       Ruci_ElmtType_UpdateCslSampleTime
      00FF47BEH   CODE     ---       RUCI_endianConvert
*SFR* 000000D8H.0 DATA     BIT       RWT
*SFR* 000000B0H.0 DATA     BIT       RXD
      00FF6FB1H   CODE     ---       RxTask_AlwaysOn_Set
      00FF9358H   CODE     ---       RxTask_RxTimer_Set
      00FF930BH   CODE     ---       RxTask_Timeout_Set
*SFR* 000000A9H   DATA     BYTE      SADDR
*SFR* 000000B9H   DATA     BYTE      SADEN
      0000B5CCH   EDATA    ---       sBmuCtrlPara
*SFR* 00000099H   DATA     BYTE      SBUF
*SFR* 000000C1H   DATA     BYTE      SBUF1
*SFR* 00000098H   DATA     BYTE      SCON
*SFR* 000000C0H   DATA     BYTE      SCON1
      00FF30B8H   CODE     ---       SetRfIdle
      0000AF11H   EDATA    ---       sHalCtrl
      0000B070H   EDATA    ---       sHalFuncHdlr
      00FF109BH   HCONST   ---       sHalFwCfg
      00FF10A9H   HCONST   ---       sHalHwCfgBLE
      00FF10DFH   HCONST   ---       sHalHwCfgWisun
      00FF1115H   HCONST   ---       sHalHwCfgZigbee
      00FF0851H   HCONST   ---       sHalHwPara
      00FF08CAH   HCONST   ---       sHalHwTab
      00FF11F8H   HCONST   ---       sHalParaIndDefault
      0000B03FH   EDATA    ---       sHalPktCfg
      00FF12AAH   HCONST   ---       sHalPrtclCfg
L251 LINKER/LOCATER V4.66.93.0                                                        12/18/2023  14:21:09  PAGE 27


      0000B5A9H   EDATA    ---       sHalRfkCtrl
*SFR* 00000098H.7 DATA     BIT       SM0
*SFR* 000000C0H.7 DATA     BIT       SM01
*SFR* 00000098H.6 DATA     BIT       SM1
*SFR* 000000C0H.6 DATA     BIT       SM11
*SFR* 00000098H.5 DATA     BIT       SM2
*SFR* 000000C0H.5 DATA     BIT       SM21
      0000B57CH   EDATA    ---       sMsgCtrl
*SFR* 00000081H   DATA     BYTE      SP
*SFR* 000000ECH   DATA     BYTE      SPCR
*SFR* 000000EEH   DATA     BYTE      SPDR
*SFR* 000000BEH   DATA     BYTE      SPH
*SFR* 000000EDH   DATA     BYTE      SPSR
      0000AC4BH   EDATA    ---       sQCtrl
      0000AC57H   EDATA    ---       sQHeader
      0000ACCFH   EDATA    ---       sQPayload
*SFR* 000000EFH   DATA     BYTE      SSCR
      00FF4186H   CODE     ---       SYS_EnterSleepCheck
      00FF48A4H   CODE     ---       SYS_EnterSleepGuard
      00FF48BAH   CODE     ---       SYS_Idle_Task
      00FF13ADH   CODE     ---       SYS_IdleTaskInit
      00FF13CDH   CODE     ---       SYS_IdleTaskIntInit
      00FF20FAH   CODE     ---       SYS_InfoRegInit
      00FF1374H   CODE     ---       SYS_Init
      00FF3C57H   CODE     ---       SYS_isClkAPassOverClkB
      00FF4069H   CODE     ---       SYS_Rand
      00FF4111H   CODE     ---       SYS_Sleep
      00FF424EH   CODE     ---       SYS_SleepMinTimeGet
      00FF2136H   CODE     ---       SYS_Task_Block
      00FF303BH   CODE     ---       SYS_Task_Register
      00FF306AH   CODE     ---       SYS_Task_Run
      00FF2503H   CODE     ---       SYS_Task_UnBlock
      00FF4100H   CODE     ---       SYS_TimerInit
      00FF16E7H   CODE     ---       SYS_TRAP
*SFR* 000000B0H.4 DATA     BIT       T0
*SFR* 000000B0H.5 DATA     BIT       T1
*SFR* 00000090H.0 DATA     BIT       T2
*SFR* 000000C8H.2 DATA     BIT       T2CM
*SFR* 000000C8H   DATA     BYTE      T2CON
*SFR* 00000090H.1 DATA     BIT       T2EX
*SFR* 000000C8H.0 DATA     BIT       T2I0
*SFR* 000000C8H.1 DATA     BIT       T2I1
*SFR* 000000C9H   DATA     BYTE      T2IF
*SFR* 000000C9H   DATA     BYTE      T2MOD
*SFR* 000000C8H.7 DATA     BIT       T2PS
*SFR* 000000C8H.3 DATA     BIT       T2R0
*SFR* 000000C8H.4 DATA     BIT       T2R1
      00FF19AEH   CODE     ---       T2RTask_Set
*SFR* 000000EBH   DATA     BYTE      TA
*SFR* 00000098H.3 DATA     BIT       TB8
*SFR* 000000C0H.3 DATA     BIT       TB81
*SFR* 0000009FH   DATA     BYTE      TB_SFR_REG
*SFR* 000000C8H.4 DATA     BIT       TCLK
*SFR* 00000088H   DATA     BYTE      TCON
*SFR* 00000088H.5 DATA     BIT       TF0
*SFR* 00000088H.7 DATA     BIT       TF1
*SFR* 000000C8H.7 DATA     BIT       TF2
*SFR* 0000008CH   DATA     BYTE      TH0
*SFR* 0000008DH   DATA     BYTE      TH1
*SFR* 000000CDH   DATA     BYTE      TH2
*SFR* 00000098H.1 DATA     BIT       TI
*SFR* 000000C0H.1 DATA     BIT       TI1
*SFR* 0000008AH   DATA     BYTE      TL0
*SFR* 0000008BH   DATA     BYTE      TL1
*SFR* 000000CCH   DATA     BYTE      TL2
L251 LINKER/LOCATER V4.66.93.0                                                        12/18/2023  14:21:09  PAGE 28


*SFR* 00000089H   DATA     BYTE      TMOD
*SFR* 00000088H.4 DATA     BIT       TR0
*SFR* 00000088H.6 DATA     BIT       TR1
*SFR* 000000C8H.2 DATA     BIT       TR2
      00FF1856H   CODE     ---       TrtTask_Set
      00FF9366H   CODE     ---       TxContTask_Set
*SFR* 000000B0H.1 DATA     BIT       TXD
      0000B5E4H   EDATA    ---       txPwrCtrlArray
      00FF946BH   CODE     ---       TxRtcTask_Set
      00FF9426H   CODE     ---       TxTask_Set
*SFR* 000000D0H.1 DATA     BIT       UD
*SFR* 00000096H   DATA     BYTE      USBADDR
*SFR* 00000097H   DATA     BYTE      USBDATA
*SFR* 000000D8H   DATA     BYTE      WDCON
*SFR* 000000D8H.3 DATA     BIT       WDIF
*SFR* 000000A6H   DATA     BYTE      WDTRST
*SFR* 000000B0H.6 DATA     BIT       WR
*SFR* 000000D8H.2 DATA     BIT       WTRF
*SFR* 00000092H   DATA     BYTE      WTST
*SFR* 000000D1H.1 DATA     BIT       Z_B



LINKER CODE PACKING SYMBOLS OF MODULE:  .\obj\RT569 (?C_START)


      VALUE       CLASS    TYPE      SYMBOL NAME
      ==========================================
      00FF1780H   CODE     BEGIN     ?L?COM0001
      00FF255AH   CODE     BEGIN     ?L?COM0002
      00FF255AH   CODE     END       ?L?COM0003
      00FF3BCDH   CODE     BEGIN     ?L?COM0004
      00FF3BCDH   CODE     END       ?L?COM0005
      00FF57B7H   CODE     PART      ?L?COM0006
      00FF57B7H   CODE     END       ?L?COM0007
      00FF5590H   CODE     PART      ?L?COM0008
      00FF5590H   CODE     END       ?L?COM0009
      00FF1DDAH   CODE     BEGIN     ?L?COM000A
      00FF24F9H   CODE     BEGIN     ?L?COM000B
      00FF24F9H   CODE     END       ?L?COM000C
      00FF33C5H   CODE     PART      ?L?COM000D
      00FF55F6H   CODE     BEGIN     ?L?COM000E
      00FF458DH   CODE     BEGIN     ?L?COM000F
      00FF458DH   CODE     END       ?L?COM0010
      00FF458DH   CODE     END       ?L?COM0011
      00FFA6ADH   CODE     BEGIN     ?L?COM0012
      00FF28AAH   CODE     BEGIN     ?L?COM0013
      00FFC3D1H   CODE     PART      ?L?COM0014
      00FFC3D1H   CODE     END       ?L?COM0015
      00FF3D17H   CODE     BEGIN     ?L?COM0016
      00FF3D17H   CODE     END       ?L?COM0017
      00FF3EB1H   CODE     PART      ?L?COM0018
      00FF3EB1H   CODE     END       ?L?COM0019
      00FFCCB8H   CODE     PART      ?L?COM001A
      00FF31D3H   CODE     PART      ?L?COM001B
      00FF526AH   CODE     BEGIN     ?L?COM001C
      00FF33E5H   CODE     PART      ?L?COM001D
      00FF6FE7H   CODE     PART      ?L?COM001E
      00FF6FE7H   CODE     END       ?L?COM001F
      00FF1F1FH   CODE     BEGIN     ?L?COM0020
      00FF53EEH   CODE     BEGIN     ?L?COM0021
      00FF53EEH   CODE     END       ?L?COM0022
      00FFA7DBH   CODE     PART      ?L?COM0023
      00FF3734H   CODE     BEGIN     ?L?COM0024
      00FF3734H   CODE     END       ?L?COM0025
L251 LINKER/LOCATER V4.66.93.0                                                        12/18/2023  14:21:09  PAGE 29


      00FF7409H   CODE     BEGIN     ?L?COM0026
      00FF2ED0H   CODE     BEGIN     ?L?COM0027
      00FF3E17H   CODE     BEGIN     ?L?COM0028
      00FF252BH   CODE     BEGIN     ?L?COM0029
      00FF3C50H   CODE     BEGIN     ?L?COM002A
      00FFBD77H   CODE     PART      ?L?COM002B
      00FF1FFAH   CODE     BEGIN     ?L?COM002C
      00FF7FB9H   CODE     BEGIN     ?L?COM002D
      00FFA0DEH   CODE     BEGIN     ?L?COM002E
      00FF61B5H   CODE     BEGIN     ?L?COM002F
      00FF8FC2H   CODE     BEGIN     ?L?COM0030
      00FF47B4H   CODE     BEGIN     ?L?COM0031
      00FF23BFH   CODE     BEGIN     ?L?COM0032
      00FF29EEH   CODE     BEGIN     ?L?COM0033
      00FF6ACDH   CODE     BEGIN     ?L?COM0034
      00FF6ACDH   CODE     END       ?L?COM0035
      00FF57E5H   CODE     PART      ?L?COM0036
      00FF57F1H   CODE     PART      ?L?COM0037
      00FF8F86H   CODE     PART      ?L?COM0038
      00FF7569H   CODE     PART      ?L?COM0039
      00FF2FDDH   CODE     BEGIN     ?L?COM003A
      00FF1AD2H   CODE     BEGIN     ?L?COM003B
      00FF1814H   CODE     BEGIN     ?L?COM003C
      00FF93D4H   CODE     PART      ?L?COM003D
      00FF5546H   CODE     BEGIN     ?L?COM003E
      00FF9B63H   CODE     PART      ?L?COM003F
      00FFADBCH   CODE     PART      ?L?COM0040
      00FF3D86H   CODE     BEGIN     ?L?COM0041
      00FF16E2H   CODE     BEGIN     ?L?COM0042
      00FF3201H   CODE     BEGIN     ?L?COM0043
      00FF53CDH   CODE     BEGIN     ?L?COM0044
      00FFB15DH   CODE     BEGIN     ?L?COM0045
      00FF37E4H   CODE     PART      ?L?COM0046
      00FF2F66H   CODE     BEGIN     ?L?COM0047
      00FF752EH   CODE     PART      ?L?COM0048
      00FFAFBDH   CODE     BEGIN     ?L?COM0049
      00FF25D9H   CODE     BEGIN     ?L?COM004A
      00FF26F8H   CODE     BEGIN     ?L?COM004B
      00FF4BE1H   CODE     BEGIN     ?L?COM004C
      00FF338DH   CODE     BEGIN     ?L?COM004D
      00FF30B4H   CODE     BEGIN     ?L?COM004E
      00FF4258H   CODE     PART      ?L?COM004F



SYMBOL TABLE OF MODULE:  .\obj\RT569 (?C_START)

      VALUE       REP       CLASS    TYPE      SYMBOL NAME
      ====================================================
      ---         MODULE    ---      ---       ?C_START
      00FF0000H   PUBLIC    CODE     ---       ?C?STARTUP
      00FF0000H   PUBLIC    CODE     ---       ?C_STARTUP
      000000D0H.6 SFRSYM    DATA     BIT       AC
      000000E0H   SFRSYM    DATA     BYTE      ACC
      0000009DH   SFRSYM    DATA     BYTE      ACON
      000000F0H   SFRSYM    DATA     BYTE      B
      000000CEH   SFRSYM    DATA     BYTE      CCEN
      000000C3H   SFRSYM    DATA     BYTE      CCH1
      000000C5H   SFRSYM    DATA     BYTE      CCH2
      000000C7H   SFRSYM    DATA     BYTE      CCH3
      000000C2H   SFRSYM    DATA     BYTE      CCL1
      000000C4H   SFRSYM    DATA     BYTE      CCL2
      000000C6H   SFRSYM    DATA     BYTE      CCL3
      00000090H.3 SFRSYM    DATA     BIT       CEX0
      00000090H.4 SFRSYM    DATA     BIT       CEX1
L251 LINKER/LOCATER V4.66.93.0                                                        12/18/2023  14:21:09  PAGE 30


      00000090H.5 SFRSYM    DATA     BIT       CEX2
      00000090H.6 SFRSYM    DATA     BIT       CEX3
      00000090H.7 SFRSYM    DATA     BIT       CEX4
      0000008EH   SFRSYM    DATA     BYTE      CKCON
      000000D8H.7 SFRSYM    DATA     BIT       CPUSRF
      000000C8H.0 SFRSYM    DATA     BIT       CP_RL2
      000000CBH   SFRSYM    DATA     BYTE      CRCH
      000000CAH   SFRSYM    DATA     BYTE      CRCL
      000000D0H.7 SFRSYM    DATA     BIT       CY
      000000C8H.1 SFRSYM    DATA     BIT       C_T2
      000000CFH   SFRSYM    DATA     BYTE      DEVICR
      0000008FH   SFRSYM    DATA     BYTE      DMAIR
      00000083H   SFRSYM    DATA     BYTE      DPH
      00000083H   SFRSYM    DATA     BYTE      DPH1
      00000082H   SFRSYM    DATA     BYTE      DPL
      00000082H   SFRSYM    DATA     BYTE      DPL1
      00000086H   SFRSYM    DATA     BYTE      DPS
      00000084H   SFRSYM    DATA     BYTE      DPX1
      00000084H   SFRSYM    DATA     BYTE      DPXL
      000000A8H.7 SFRSYM    DATA     BIT       EA
      00000090H.2 SFRSYM    DATA     BIT       ECI
      000000E8H   SFRSYM    DATA     BYTE      EIE
      00000091H   SFRSYM    DATA     BYTE      EIF
      000000F8H   SFRSYM    DATA     BYTE      EIP
      000000B6H   SFRSYM    DATA     BYTE      EIPH
      000000B6H   SFRSYM    DATA     BYTE      EIPH0
      000000F8H   SFRSYM    DATA     BYTE      EIPL
      000000A8H.4 SFRSYM    DATA     BIT       ES
      000000A8H.4 SFRSYM    DATA     BIT       ES0
      000000A8H.6 SFRSYM    DATA     BIT       ES1
      000000A8H.1 SFRSYM    DATA     BIT       ET0
      000000A8H.3 SFRSYM    DATA     BIT       ET1
      000000A8H.5 SFRSYM    DATA     BIT       ET2
      000000D8H.1 SFRSYM    DATA     BIT       EWT
      000000A8H.0 SFRSYM    DATA     BIT       EX0
      000000A8H.2 SFRSYM    DATA     BIT       EX1
      000000C8H.3 SFRSYM    DATA     BIT       EXEN2
      000000C8H.6 SFRSYM    DATA     BIT       EXF2
      000000D0H.5 SFRSYM    DATA     BIT       F0
      00000098H.7 SFRSYM    DATA     BIT       FE
      000000F6H   SFRSYM    DATA     BYTE      I2CM_BUF
      000000F5H   SFRSYM    DATA     BYTE      I2CM_CR
      000000F4H   SFRSYM    DATA     BYTE      I2CM_SA
      000000F7H   SFRSYM    DATA     BYTE      I2CM_TP
      000000F1H   SFRSYM    DATA     BYTE      I2CS_ADDR
      000000F3H   SFRSYM    DATA     BYTE      I2CS_BUF
      000000F2H   SFRSYM    DATA     BYTE      I2CS_CR
      000000C8H.5 SFRSYM    DATA     BIT       I2FR
      000000C8H.6 SFRSYM    DATA     BIT       I3FR
      000000A8H   SFRSYM    DATA     BYTE      IE
      00000088H.1 SFRSYM    DATA     BIT       IE0
      00000088H.3 SFRSYM    DATA     BIT       IE1
      000000B1H   SFRSYM    DATA     BYTE      IEH
      000000A8H   SFRSYM    DATA     BYTE      IEL
      000000B0H.2 SFRSYM    DATA     BIT       INT0
      000000B0H.3 SFRSYM    DATA     BIT       INT1
      000000B8H   SFRSYM    DATA     BYTE      IP
      000000B7H   SFRSYM    DATA     BYTE      IPH
      000000B7H   SFRSYM    DATA     BYTE      IPH0
      000000B8H   SFRSYM    DATA     BYTE      IPL
      000000B8H   SFRSYM    DATA     BYTE      IPL0
      00000088H.0 SFRSYM    DATA     BIT       IT0
      00000088H.2 SFRSYM    DATA     BIT       IT1
      000000EAH   SFRSYM    DATA     BYTE      MXAX
      000000D1H.5 SFRSYM    DATA     BIT       N_B
L251 LINKER/LOCATER V4.66.93.0                                                        12/18/2023  14:21:09  PAGE 31


      000000D0H.2 SFRSYM    DATA     BIT       OV
      000000D0H.0 SFRSYM    DATA     BIT       P
      00000080H   SFRSYM    DATA     BYTE      P0
      00000090H   SFRSYM    DATA     BYTE      P1
      000000A0H   SFRSYM    DATA     BYTE      P2
      000000B0H   SFRSYM    DATA     BYTE      P3
      00000087H   SFRSYM    DATA     BYTE      PCON
      000000D8H.6 SFRSYM    DATA     BIT       PORF
      000000B8H.4 SFRSYM    DATA     BIT       PS
      000000B8H.4 SFRSYM    DATA     BIT       PS0
      000000B8H.6 SFRSYM    DATA     BIT       PS1
      000000D0H   SFRSYM    DATA     BYTE      PSW
      000000D1H   SFRSYM    DATA     BYTE      PSW1
      000000B8H.1 SFRSYM    DATA     BIT       PT0
      000000B8H.3 SFRSYM    DATA     BIT       PT1
      000000B8H.5 SFRSYM    DATA     BIT       PT2
      000000B8H.0 SFRSYM    DATA     BIT       PX0
      000000B8H.2 SFRSYM    DATA     BIT       PX1
      00000098H.2 SFRSYM    DATA     BIT       RB8
      000000C0H.2 SFRSYM    DATA     BIT       RB81
      000000CBH   SFRSYM    DATA     BYTE      RCAP2H
      000000CAH   SFRSYM    DATA     BYTE      RCAP2L
      000000C8H.5 SFRSYM    DATA     BIT       RCLK
      000000B0H.7 SFRSYM    DATA     BIT       RD
      00000098H.4 SFRSYM    DATA     BIT       REN
      000000C0H.4 SFRSYM    DATA     BIT       REN1
      00000098H.0 SFRSYM    DATA     BIT       RI
      000000C0H.0 SFRSYM    DATA     BIT       RI1
      000000CBH   SFRSYM    DATA     BYTE      RLDH
      000000CAH   SFRSYM    DATA     BYTE      RLDL
      000000D0H.3 SFRSYM    DATA     BIT       RS0
      000000D0H.4 SFRSYM    DATA     BIT       RS1
      000000D4H   SFRSYM    DATA     BYTE      RTCCON
      000000D7H   SFRSYM    DATA     BYTE      RTCICR
      000000D6H   SFRSYM    DATA     BYTE      RTCREG
      000000D5H   SFRSYM    DATA     BYTE      RTCSEC
      000000D8H.0 SFRSYM    DATA     BIT       RWT
      000000B0H.0 SFRSYM    DATA     BIT       RXD
      000000A9H   SFRSYM    DATA     BYTE      SADDR
      000000B9H   SFRSYM    DATA     BYTE      SADEN
      00000099H   SFRSYM    DATA     BYTE      SBUF
      000000C1H   SFRSYM    DATA     BYTE      SBUF1
      00000098H   SFRSYM    DATA     BYTE      SCON
      000000C0H   SFRSYM    DATA     BYTE      SCON1
      00000098H.7 SFRSYM    DATA     BIT       SM0
      000000C0H.7 SFRSYM    DATA     BIT       SM01
      00000098H.6 SFRSYM    DATA     BIT       SM1
      000000C0H.6 SFRSYM    DATA     BIT       SM11
      00000098H.5 SFRSYM    DATA     BIT       SM2
      000000C0H.5 SFRSYM    DATA     BIT       SM21
      00000081H   SFRSYM    DATA     BYTE      SP
      000000ECH   SFRSYM    DATA     BYTE      SPCR
      000000EEH   SFRSYM    DATA     BYTE      SPDR
      000000BEH   SFRSYM    DATA     BYTE      SPH
      000000EDH   SFRSYM    DATA     BYTE      SPSR
      000000EFH   SFRSYM    DATA     BYTE      SSCR
      000000B0H.4 SFRSYM    DATA     BIT       T0
      000000B0H.5 SFRSYM    DATA     BIT       T1
      00000090H.0 SFRSYM    DATA     BIT       T2
      000000C8H.2 SFRSYM    DATA     BIT       T2CM
      000000C8H   SFRSYM    DATA     BYTE      T2CON
      00000090H.1 SFRSYM    DATA     BIT       T2EX
      000000C8H.0 SFRSYM    DATA     BIT       T2I0
      000000C8H.1 SFRSYM    DATA     BIT       T2I1
      000000C9H   SFRSYM    DATA     BYTE      T2IF
L251 LINKER/LOCATER V4.66.93.0                                                        12/18/2023  14:21:09  PAGE 32


      000000C9H   SFRSYM    DATA     BYTE      T2MOD
      000000C8H.7 SFRSYM    DATA     BIT       T2PS
      000000C8H.3 SFRSYM    DATA     BIT       T2R0
      000000C8H.4 SFRSYM    DATA     BIT       T2R1
      000000EBH   SFRSYM    DATA     BYTE      TA
      00000098H.3 SFRSYM    DATA     BIT       TB8
      000000C0H.3 SFRSYM    DATA     BIT       TB81
      0000009FH   SFRSYM    DATA     BYTE      TB_SFR_REG
      000000C8H.4 SFRSYM    DATA     BIT       TCLK
      00000088H   SFRSYM    DATA     BYTE      TCON
      00000088H.5 SFRSYM    DATA     BIT       TF0
      00000088H.7 SFRSYM    DATA     BIT       TF1
      000000C8H.7 SFRSYM    DATA     BIT       TF2
      0000008CH   SFRSYM    DATA     BYTE      TH0
      0000008DH   SFRSYM    DATA     BYTE      TH1
      000000CDH   SFRSYM    DATA     BYTE      TH2
      00000098H.1 SFRSYM    DATA     BIT       TI
      000000C0H.1 SFRSYM    DATA     BIT       TI1
      0000008AH   SFRSYM    DATA     BYTE      TL0
      0000008BH   SFRSYM    DATA     BYTE      TL1
      000000CCH   SFRSYM    DATA     BYTE      TL2
      00000089H   SFRSYM    DATA     BYTE      TMOD
      00000088H.4 SFRSYM    DATA     BIT       TR0
      00000088H.6 SFRSYM    DATA     BIT       TR1
      000000C8H.2 SFRSYM    DATA     BIT       TR2
      000000B0H.1 SFRSYM    DATA     BIT       TXD
      00000096H   SFRSYM    DATA     BYTE      USBADDR
      00000097H   SFRSYM    DATA     BYTE      USBDATA
      000000D8H   SFRSYM    DATA     BYTE      WDCON
      000000D8H.3 SFRSYM    DATA     BIT       WDIF
      000000A6H   SFRSYM    DATA     BYTE      WDTRST
      000000B0H.6 SFRSYM    DATA     BIT       WR
      000000D8H.2 SFRSYM    DATA     BIT       WTRF
      00000092H   SFRSYM    DATA     BYTE      WTST
      000000D1H.1 SFRSYM    DATA     BIT       Z_B
      00FF1FF8H   SYMBOL    NUMBER   ---       CFGADDR
      00FF1FFFH   SYMBOL    NUMBER   ---       CODEHIGH
      00002000H   SYMBOL    NUMBER   ---       EDATALEN
      00FF0117H   SYMBOL    CODE     ---       EDATALOOP
      0000A000H   SYMBOL    NUMBER   ---       EDATASTART
      00000001H   SYMBOL    NUMBER   ---       INTR
      00000010H   SYMBOL    NUMBER   ---       RTCACAP_B
      00000040H   SYMBOL    NUMBER   ---       RTCBSY_B
      00000040H   SYMBOL    NUMBER   ---       RTCCAP_B
      00000080H   SYMBOL    NUMBER   ---       RTCEN_B
      00000008H   SYMBOL    NUMBER   ---       RTCRLD_B
      00000020H   SYMBOL    NUMBER   ---       RTCRST_B
      00000008H   SYMBOL    NUMBER   ---       RTCSET_B
      00000001H   SYMBOL    NUMBER   ---       SRCM
      00000300H   SYMBOL    NUMBER   ---       STACKSIZE
      00FF010CH   SYMBOL    CODE     ---       STARTUP1
      00000000H   SYMBOL    NUMBER   ---       XDATALEN

      00FF0000H   BLOCK     CODE     NEAR LAB  LVL=0
      00FF0000H   LINE      CODE     ---       #86
      ---         BLOCKEND  ---      ---       LVL=0

      00FF010CH   BLOCK     CODE     NEAR LAB  LVL=0
      00FF010CH   LINE      CODE     ---       #92
      00FF010FH   LINE      CODE     ---       #95
      00FF0112H   LINE      CODE     ---       #96
      00FF0116H   LINE      CODE     ---       #97
      00FF0117H   LINE      CODE     ---       #99
      00FF0118H   LINE      CODE     ---       #100
      00FF0119H   LINE      CODE     ---       #101
L251 LINKER/LOCATER V4.66.93.0                                                        12/18/2023  14:21:09  PAGE 33


      00FF011BH   LINE      CODE     ---       #102
      00FF011DH   LINE      CODE     ---       #115
      00FF011FH   LINE      CODE     ---       #116
      ---         BLOCKEND  ---      ---       LVL=0

      00FF014CH   BLOCK     CODE     NEAR LAB  LVL=0
      00FF014CH   LINE      CODE     ---       #121
      ---         BLOCKEND  ---      ---       LVL=0

      ---         MODULE    ---      ---       main
      00FF136DH   PUBLIC    CODE     ---       main

      00FF136DH   BLOCK     CODE     ---       LVL=0
      00FF136DH   LINE      ---      ---       #24
      00FF136DH   LINE      ---      ---       #26
      00FF136FH   LINE      ---      ---       #27
      00FF136FH   LINE      ---      ---       #29
      00FF1372H   LINE      ---      ---       #30
      ---         BLOCKEND  ---      ---       LVL=0

      ---         MODULE    ---      ---       rf_task_ctrl
      00FF181BH   PUBLIC    CODE     ---       RF_Task_En
      00FF146FH   PUBLIC    CODE     ---       RF_Task_AllStop
      00FF1900H   PUBLIC    CODE     ---       RF_Task_Set

      00FF1814H   BLOCK     CODE     ---       LVL=0
      00FF181BH   LINE      ---      ---       #36
      00FF1814H   SYMBOL    CODE     NEAR LAB  ?L?COM003C
      R11         REGSYM    ---      BYTE      enTask
      R10         REGSYM    ---      BYTE      mode
      00FF181DH   BLOCK     CODE     NEAR LAB  LVL=1
      00FF181DH   LINE      ---      ---       #44
      00FF1831H   LINE      ---      ---       #50
      00FF183AH   LINE      ---      ---       #51
      00FF1844H   LINE      ---      ---       #56
      00FF1849H   LINE      ---      ---       #61
      00FF1855H   LINE      ---      ---       #62
      REG=4       REGSYM    ---      ---       pRegTaskCtrlByte
      ---         BLOCKEND  CODE     ---       LVL=1
      ---         BLOCKEND  CODE     ---       LVL=0

      00FF146FH   BLOCK     CODE     ---       LVL=0
      00FF146FH   LINE      ---      ---       #73
      00FF146FH   LINE      ---      ---       #75
      00FF147BH   LINE      ---      ---       #76
      00FF1480H   LINE      ---      ---       #83
      00FF148CH   LINE      ---      ---       #84
      00FF1498H   LINE      ---      ---       #86
      00FF14A4H   LINE      ---      ---       #87
      00FF14B0H   LINE      ---      ---       #89
      ---         BLOCKEND  ---      ---       LVL=0

      00FF1900H   BLOCK     CODE     ---       LVL=0
      00FF1900H   LINE      ---      ---       #151
      REG=1       REGSYM    ---      ---       pTaskCtrl
      R5          REGSYM    ---      BYTE      taskNum
      00FF1904H   BLOCK     CODE     NEAR LAB  LVL=1
      00FF1904H   LINE      ---      ---       #159
      00FF190EH   LINE      ---      ---       #160
      00FF1911H   LINE      ---      ---       #161
      00FF1911H   LINE      ---      ---       #195
      00FF191AH   LINE      ---      ---       #211
      00FF1929H   LINE      ---      ---       #212
      00FF193AH   LINE      ---      ---       #213
      00FF1942H   LINE      ---      ---       #214
L251 LINKER/LOCATER V4.66.93.0                                                        12/18/2023  14:21:09  PAGE 34


      00FF194CH   LINE      ---      ---       #216
      00FF1958H   LINE      ---      ---       #217
      00FF1964H   LINE      ---      ---       #218
      00FF1970H   LINE      ---      ---       #219
      00FF197CH   LINE      ---      ---       #221
      00FF1988H   LINE      ---      ---       #222
      00FF1994H   LINE      ---      ---       #223
      00FF19A0H   LINE      ---      ---       #224
      00FF19ACH   LINE      ---      ---       #227
      REG=0       REGSYM    ---      ---       pRegTaskCtrlByte
      ---         BLOCKEND  CODE     ---       LVL=1
      00FF19ADH   LINE      ---      ---       #229
      00FF19ADH   LINE      CODE     ---       #229

      ---         MODULE    ---      ---       intr_rf
      00FF2029H   PUBLIC    CODE     ---       INTR_Clear
      00FF2052H   PUBLIC    CODE     ---       INTR_ClearRtcGrp
      00FF17E5H   PUBLIC    CODE     ---       INTR_Enable
      00FF2063H   PUBLIC    CODE     ---       INTR_Rf_Hdlr
      00FF13D9H   PUBLIC    CODE     ---       INTR_Rf_Register
      0000B409H   PUBLIC    EDATA    ---       gIntrRegMask
      0000B411H   PUBLIC    EDATA    ---       gIntrRfHdlrTable
      000000A8H.0 SFRSYM    DATA     BIT       EX0
      000000A8H.7 SFRSYM    DATA     BIT       EA
      00FF20F9H   SYMBOL    CODE     ---       INTR_Rf_NullHdlr

      00FF20F9H   BLOCK     CODE     ---       LVL=0
      00FF20F9H   LINE      ---      ---       #40
      00FF20F9H   LINE      ---      ---       #41
      00FF20F9H   LINE      ---      ---       #42
      00FF20F9H   LINE      ---      ---       #43
      ---         BLOCKEND  ---      ---       LVL=0

      00FF2029H   BLOCK     CODE     ---       LVL=0
      00FF2029H   LINE      ---      ---       #49
      00FF2029H   LINE      ---      ---       #51
      00FF202BH   LINE      ---      ---       #52
      00FF2034H   LINE      ---      ---       #54
      00FF2043H   LINE      ---      ---       #55
      00FF2051H   LINE      ---      ---       #56
      ---         BLOCKEND  ---      ---       LVL=0

      00FF2052H   BLOCK     CODE     ---       LVL=0
      00FF2052H   LINE      ---      ---       #59
      00FF2052H   LINE      ---      ---       #62
      00FF2062H   LINE      ---      ---       #63
      ---         BLOCKEND  ---      ---       LVL=0

      00FF17E5H   BLOCK     CODE     ---       LVL=0
      00FF17E5H   LINE      ---      ---       #66
      00FF17E5H   LINE      ---      ---       #68
      00FF17E7H   LINE      ---      ---       #70
      00FF17E9H   LINE      ---      ---       #71
      ---         BLOCKEND  ---      ---       LVL=0

      00FF2063H   BLOCK     CODE     ---       LVL=0
      00FF2063H   LINE      ---      ---       #82
      00FF2065H   LINE      ---      ---       #83
      R6          REGSYM    ---      BYTE      intId
      R10         REGSYM    ---      BYTE      intSts
      ---         BLOCKEND  ---      ---       LVL=0

      00FF13D9H   BLOCK     CODE     ---       LVL=0
      00FF13D9H   LINE      ---      ---       #98
      00FF13DDH   LINE      ---      ---       #101
L251 LINKER/LOCATER V4.66.93.0                                                        12/18/2023  14:21:09  PAGE 35


      00FF13E6H   LINE      ---      ---       #106
      00FF13E9H   LINE      ---      ---       #107
      00FF13E9H   LINE      ---      ---       #109
      00FF13F1H   LINE      ---      ---       #110
      00FF1424H   LINE      ---      ---       #112
      00FF1425H   LINE      ---      ---       #113
      R1          REGSYM    ---      BYTE      intId
      WR30        REGSYM    ---      WORD      enMask
      REG=2       REGSYM    ---      ---       intHdlr
      ---         BLOCKEND  ---      ---       LVL=0

      ---         MODULE    ---      ---       sys_init
      00FF1374H   PUBLIC    CODE     ---       SYS_Init
      00FF20FAH   PUBLIC    CODE     ---       SYS_InfoRegInit

      00FF20FAH   BLOCK     CODE     ---       LVL=0
      00FF20FAH   LINE      ---      ---       #101
      00FF20FAH   LINE      ---      ---       #104
      00FF2106H   LINE      ---      ---       #107
      00FF2111H   LINE      ---      ---       #108
      00FF211AH   LINE      ---      ---       #111
      00FF2123H   LINE      ---      ---       #114
      00FF212CH   LINE      ---      ---       #118
      00FF2135H   LINE      ---      ---       #122
      ---         BLOCKEND  ---      ---       LVL=0

      00FF1374H   BLOCK     CODE     ---       LVL=0
      00FF1374H   LINE      ---      ---       #132
      00FF1374H   LINE      ---      ---       #135
      00FF1377H   LINE      ---      ---       #154
      00FF137AH   LINE      ---      ---       #158
      00FF137DH   LINE      ---      ---       #165
      00FF1393H   LINE      ---      ---       #169
      00FF1398H   LINE      ---      ---       #173
      00FF139AH   LINE      ---      ---       #174
      00FF139DH   LINE      ---      ---       #193
      00FF139FH   LINE      ---      ---       #197
      00FF13A1H   LINE      ---      ---       #200
      00FF13A3H   LINE      ---      ---       #204
      00FF13ACH   LINE      ---      ---       #211
      ---         BLOCKEND  ---      ---       LVL=0

      ---         MODULE    ---      ---       sys_task
      00FF2136H   PUBLIC    CODE     ---       SYS_Task_Block
      00FF2503H   PUBLIC    CODE     ---       SYS_Task_UnBlock
      00FF303BH   PUBLIC    CODE     ---       SYS_Task_Register
      00FF306AH   PUBLIC    CODE     ---       SYS_Task_Run
      0000B572H   PUBLIC    EDATA    BYTE      gTaskMask
      0000B573H   PUBLIC    EDATA    ---       gTaskTable
      00FF3098H   SYMBOL    CODE     ---       SYS_Null_Task

      00FF3098H   BLOCK     CODE     ---       LVL=0
      00FF3098H   LINE      ---      ---       #36
      00FF3098H   LINE      ---      ---       #37
      00FF3098H   LINE      ---      ---       #38
      ---         BLOCKEND  ---      ---       LVL=0

      00FF2136H   BLOCK     CODE     ---       LVL=0
      00FF2136H   LINE      ---      ---       #52
      00FF213AH   LINE      ---      ---       #55
      00FF2143H   LINE      ---      ---       #56
      00FF2146H   LINE      ---      ---       #57
      00FF2146H   LINE      ---      ---       #59
      00FF215EH   LINE      ---      ---       #61
      R11         REGSYM    ---      BYTE      hdlTask
L251 LINKER/LOCATER V4.66.93.0                                                        12/18/2023  14:21:09  PAGE 36


      R15         REGSYM    ---      BYTE      blkTask
      ---         BLOCKEND  ---      ---       LVL=0

      00FF24F9H   BLOCK     CODE     ---       LVL=0
      00FF2503H   LINE      ---      ---       #71
      00FF2507H   LINE      ---      ---       #74
      00FF2510H   LINE      ---      ---       #75
      00FF2513H   LINE      ---      ---       #76
      00FF2513H   LINE      ---      ---       #78
      00FF2528H   LINE      ---      ---       #80
      00FF24F9H   SYMBOL    CODE     NEAR LAB  ?L?COM000B
      R11         REGSYM    ---      BYTE      hdlTask
      R15         REGSYM    ---      BYTE      blkTask
      ---         BLOCKEND  ---      ---       LVL=0

      00FF303BH   BLOCK     CODE     ---       LVL=0
      00FF303BH   LINE      ---      ---       #91
      00FF303FH   LINE      ---      ---       #92
      00FF3048H   LINE      ---      ---       #93
      00FF304BH   LINE      ---      ---       #94
      00FF304BH   LINE      ---      ---       #95
      00FF3053H   LINE      ---      ---       #96
      00FF3068H   LINE      ---      ---       #97
      00FF3069H   LINE      ---      ---       #98
      R5          REGSYM    ---      BYTE      taskId
      REG=4       REGSYM    ---      ---       taskFunc
      ---         BLOCKEND  ---      ---       LVL=0

      00FF306AH   BLOCK     CODE     ---       LVL=0
      00FF306AH   LINE      ---      ---       #107
      00FF306AH   BLOCK     CODE     NEAR LAB  LVL=1
      00FF306AH   LINE      ---      ---       #112
      00FF306AH   LINE      ---      ---       #113
      00FF306CH   LINE      ---      ---       #114
      00FF306CH   LINE      ---      ---       #115
      00FF3085H   LINE      ---      ---       #116
      00FF308FH   LINE      ---      ---       #117
      00FF308FH   LINE      ---      ---       #118
      00FF3091H   LINE      ---      ---       #119
      00FF3096H   LINE      ---      ---       #120
      R15         REGSYM    ---      BYTE      taskId
      ---         BLOCKEND  CODE     ---       LVL=1
      ---         BLOCKEND  CODE     ---       LVL=0

      ---         MODULE    ---      ---       isr_hdlr
      00FF2072H   PUBLIC    CODE     ---       ISR_0_Hdlr
      00FF3099H   PUBLIC    CODE     ---       ISR_CLEAR_MAC_STATUS
      00FF3836H   PUBLIC    CODE     ---       ISR_GET_MAC_STATUS
      00FF4068H   PUBLIC    CODE     ---       ISR_1_Hdlr
      000000A8H.7 SFRSYM    DATA     BIT       EA

      00FF2072H   BLOCK     CODE     ---       LVL=0
      00FF2072H   LINE      ---      ---       #18
      00FF2087H   BLOCK     CODE     NEAR LAB  LVL=1
      00FF2087H   LINE      ---      ---       #27
      00FF2089H   LINE      ---      ---       #30
      00FF2096H   LINE      ---      ---       #31
      00FF209DH   LINE      ---      ---       #34
      00FF20A3H   LINE      ---      ---       #35
      00FF20A9H   LINE      ---      ---       #36
      00FF20A9H   LINE      ---      ---       #39
      00FF20AEH   LINE      ---      ---       #41
      00FF20B4H   LINE      ---      ---       #42
      00FF20B4H   LINE      ---      ---       #46
      00FF20BBH   LINE      ---      ---       #47
L251 LINKER/LOCATER V4.66.93.0                                                        12/18/2023  14:21:09  PAGE 37


      00FF20BEH   LINE      ---      ---       #48
      00FF20BEH   LINE      ---      ---       #51
      00FF20C5H   LINE      ---      ---       #52
      00FF20C9H   LINE      ---      ---       #53
      00FF20C9H   LINE      ---      ---       #61
      00FF20D6H   LINE      ---      ---       #62
      00FF20E4H   LINE      ---      ---       #65
      R14         REGSYM    ---      BYTE      bmuStatus
      R15         REGSYM    ---      BYTE      macStatus
      ---         BLOCKEND  CODE     ---       LVL=1
      00FF20E6H   LINE      ---      ---       #67
      00FF20E6H   LINE      CODE     ---       #67

      00FF3099H   BLOCK     CODE     ---       LVL=0
      00FF3099H   LINE      ---      ---       #69
      00FF309BH   LINE      ---      ---       #71
      00FF30A9H   LINE      ---      ---       #72
      R0          REGSYM    ---      BYTE      status
      ---         BLOCKEND  ---      ---       LVL=0

      00FF3836H   BLOCK     CODE     ---       LVL=0
      00FF3836H   LINE      ---      ---       #74
      00FF3836H   LINE      ---      ---       #76
      00FF3844H   LINE      ---      ---       #77
      ---         BLOCKEND  ---      ---       LVL=0

      00FF4068H   BLOCK     CODE     ---       LVL=0
      00FF4068H   LINE      ---      ---       #81
      00FF4068H   LINE      ---      ---       #96
      ---         BLOCKEND  ---      ---       LVL=0

      ---         MODULE    ---      ---       sys_ctrl
      00FF16E7H   PUBLIC    CODE     ---       SYS_TRAP
      00FF3C57H   PUBLIC    CODE     ---       SYS_isClkAPassOverClkB
      00FF4069H   PUBLIC    CODE     ---       SYS_Rand
      00FF13ADH   PUBLIC    CODE     ---       SYS_IdleTaskInit
      00FF4100H   PUBLIC    CODE     ---       SYS_TimerInit
      00FF4111H   PUBLIC    CODE     ---       SYS_Sleep
      00FF48A4H   PUBLIC    CODE     ---       SYS_EnterSleepGuard
      00FF4186H   PUBLIC    CODE     ---       SYS_EnterSleepCheck
      00FF424EH   PUBLIC    CODE     ---       SYS_SleepMinTimeGet
      00FF48BAH   PUBLIC    CODE     ---       SYS_Idle_Task
      00FF13CDH   PUBLIC    CODE     ---       SYS_IdleTaskIntInit
      0000B554H   PUBLIC    EDATA    DWORD     gLastWakeTick
      0000B558H   PUBLIC    EDATA    ---       gSysEntry_Sleep
      000000A8H.1 SFRSYM    DATA     BIT       ET0
      000000A8H.7 SFRSYM    DATA     BIT       EA
      00000088H.4 SFRSYM    DATA     BIT       TR0
      0000008EH   SFRSYM    DATA     BYTE      CKCON
      0000008CH   SFRSYM    DATA     BYTE      TH0
      0000008AH   SFRSYM    DATA     BYTE      TL0
      00000089H   SFRSYM    DATA     BYTE      TMOD
      00000087H   SFRSYM    DATA     BYTE      PCON
      000000BEH   SFRSYM    DATA     BYTE      SPH
      00000081H   SFRSYM    DATA     BYTE      SP
      00000080H   SFRSYM    DATA     BYTE      P0

      00FF48A4H   BLOCK     CODE     ---       LVL=0
      00FF48A4H   LINE      ---      ---       #66
      00FF48A4H   LINE      ---      ---       #67
      ---         BLOCKEND  ---      ---       LVL=0

      00FF4186H   BLOCK     CODE     ---       LVL=0
      00FF4186H   LINE      ---      ---       #70
      00FF4188H   BLOCK     CODE     NEAR LAB  LVL=1
L251 LINKER/LOCATER V4.66.93.0                                                        12/18/2023  14:21:09  PAGE 38


      00FF4188H   LINE      ---      ---       #72
      00FF418AH   LINE      ---      ---       #75
      00FF4198H   LINE      ---      ---       #76
      00FF419BH   LINE      ---      ---       #77
      00FF419BH   LINE      ---      ---       #85
      00FF419FH   LINE      ---      ---       #86
      00FF41A2H   LINE      ---      ---       #87
      00FF41A2H   LINE      ---      ---       #90
      00FF41A7H   LINE      ---      ---       #91
      00FF41AAH   LINE      ---      ---       #92
      00FF41AAH   LINE      ---      ---       #94
      R15         REGSYM    ---      BYTE      check
      ---         BLOCKEND  CODE     ---       LVL=1
      00FF41B3H   LINE      ---      ---       #95
      00FF41B3H   LINE      CODE     ---       #95

      00FF424EH   BLOCK     CODE     ---       LVL=0
      00FF424EH   LINE      ---      ---       #105
      00FF424EH   LINE      ---      ---       #117
      00FF4252H   LINE      ---      ---       #119
      ---         BLOCKEND  ---      ---       LVL=0

      00FF4111H   BLOCK     CODE     ---       LVL=0
      00FF4111H   LINE      ---      ---       #129
      00FF4111H   LINE      ---      ---       #131
      00FF411EH   LINE      ---      ---       #136
      00FF4120H   LINE      ---      ---       #137
      00FF4124H   LINE      ---      ---       #139
      00FF4127H   LINE      ---      ---       #141
      00FF4132H   LINE      ---      ---       #142
      00FF4132H   LINE      ---      ---       #143
      00FF4134H   LINE      ---      ---       #144
      00FF4137H   LINE      ---      ---       #146
      00FF413EH   LINE      ---      ---       #148
      00FF4141H   LINE      ---      ---       #149
      00FF4150H   LINE      ---      ---       #150
      00FF4152H   LINE      ---      ---       #154
      00FF417BH   LINE      ---      ---       #155
      00FF417BH   LINE      ---      ---       #156
      00FF417BH   LINE      ---      ---       #158
      00FF4182H   LINE      ---      ---       #159
      00FF4183H   LINE      ---      ---       #161
      00FF4185H   LINE      ---      ---       #162
      ---         BLOCKEND  ---      ---       LVL=0

      00FF48BAH   BLOCK     CODE     ---       LVL=0
      00FF48BAH   LINE      ---      ---       #173
      00FF48BAH   LINE      ---      ---       #176
      00FF48BDH   LINE      ---      ---       #188
      00FF48BFH   LINE      ---      ---       #192
      00FF48C5H   LINE      ---      ---       #195
      ---         BLOCKEND  ---      ---       LVL=0

      00FF13CDH   BLOCK     CODE     ---       LVL=0
      00FF13CDH   LINE      ---      ---       #213
      00FF13CDH   LINE      ---      ---       #217
      ---         BLOCKEND  ---      ---       LVL=0

      00FF13ADH   BLOCK     CODE     ---       LVL=0
      00FF13ADH   LINE      ---      ---       #229
      00FF13ADH   LINE      ---      ---       #231
      00FF13B6H   LINE      ---      ---       #232
      00FF13B8H   LINE      ---      ---       #236
      ---         BLOCKEND  ---      ---       LVL=0

L251 LINKER/LOCATER V4.66.93.0                                                        12/18/2023  14:21:09  PAGE 39


      00FF4100H   BLOCK     CODE     ---       LVL=0
      00FF4100H   LINE      ---      ---       #250
      00FF4100H   LINE      ---      ---       #265
      00FF4103H   LINE      ---      ---       #266
      00FF4106H   LINE      ---      ---       #267
      00FF4109H   LINE      ---      ---       #268
      00FF410CH   LINE      ---      ---       #269
      00FF410EH   LINE      ---      ---       #270
      00FF4110H   LINE      ---      ---       #275
      ---         BLOCKEND  ---      ---       LVL=0

      00FF3C50H   BLOCK     CODE     ---       LVL=0
      00FF3C57H   LINE      ---      ---       #285
      00FF3C59H   LINE      ---      ---       #287
      00FF3C65H   LINE      ---      ---       #288
      00FF3C50H   SYMBOL    CODE     NEAR LAB  ?L?COM002A
      DR4         REGSYM    ---      DWORD     clkA
      DR8         REGSYM    ---      DWORD     clkB
      ---         BLOCKEND  ---      ---       LVL=0

      00FF16E2H   BLOCK     CODE     ---       LVL=0
      00FF16E7H   LINE      ---      ---       #323
      00FF16E7H   LINE      ---      ---       #324
      00FF16E2H   SYMBOL    CODE     NEAR LAB  ?L?COM0042
      00FF16E7H   BLOCK     CODE     NEAR LAB  LVL=1
      00FF16E7H   LINE      ---      ---       #328
      00FF16F5H   LINE      ---      ---       #329
      00FF16F9H   LINE      ---      ---       #331
      00FF1707H   LINE      ---      ---       #333
      00FF1710H   LINE      ---      ---       #335
      00FF1710H   LINE      ---      ---       #337
      00FF1713H   LINE      ---      ---       #338
      00FF1716H   LINE      ---      ---       #339
      00FF171BH   LINE      ---      ---       #340
      00FF171EH   LINE      ---      ---       #341
      00FF1724H   LINE      ---      ---       #342
      00FF1727H   LINE      ---      ---       #343
      REG=3       REGSYM    ---      ---       stackPtr
      REG=1       REGSYM    ---      ---       assertReportPtr
      ---         BLOCKEND  CODE     ---       LVL=1
      ---         BLOCKEND  CODE     ---       LVL=0

      00FF4069H   BLOCK     CODE     ---       LVL=0
      00FF4069H   LINE      ---      ---       #348
      00FF4071H   LINE      ---      ---       #349
      REG=1       REGSYM    ---      ---       seed
      REG=7       REGSYM    ---      ---       output
      R13         REGSYM    ---      BYTE      outputLen
      00FF4071H   BLOCK     CODE     NEAR LAB  LVL=1
      00FF4071H   LINE      ---      ---       #354
      00FF4076H   LINE      ---      ---       #355
      00FF4079H   LINE      ---      ---       #361
      00FF408CH   LINE      ---      ---       #362
      00FF409BH   LINE      ---      ---       #365
      00FF40A3H   LINE      ---      ---       #367
      00FF40A7H   LINE      ---      ---       #378
      00FF40C2H   LINE      ---      ---       #381
      00FF40CCH   LINE      ---      ---       #382
      00FF40E0H   LINE      ---      ---       #383
      00FF40E2H   LINE      ---      ---       #385
      00FF40F7H   LINE      ---      ---       #386
      00FF40F7H   LINE      ---      ---       #387
      0000B55AH   SYMBOL    EDATA    DWORD     seed2
      R12         REGSYM    ---      BYTE      i
      0000B55EH   SYMBOL    EDATA    ---       pSeed
L251 LINKER/LOCATER V4.66.93.0                                                        12/18/2023  14:21:09  PAGE 40


      ---         BLOCKEND  CODE     ---       LVL=1
      00FF40FDH   LINE      ---      ---       #388
      00FF40FDH   LINE      CODE     ---       #388

      ---         MODULE    ---      ---       SYS_MEM
      00FF014FH   PUBLIC    CODE     ---       ASM_MEMSET
      000000D0H.6 SFRSYM    DATA     BIT       AC
      000000D8H.0 SFRSYM    DATA     BIT       CCF0
      000000D8H.1 SFRSYM    DATA     BIT       CCF1
      000000D8H.2 SFRSYM    DATA     BIT       CCF2
      000000D8H.3 SFRSYM    DATA     BIT       CCF3
      000000D8H.4 SFRSYM    DATA     BIT       CCF4
      00000090H.3 SFRSYM    DATA     BIT       CEX0
      00000090H.4 SFRSYM    DATA     BIT       CEX1
      00000090H.5 SFRSYM    DATA     BIT       CEX2
      00000090H.6 SFRSYM    DATA     BIT       CEX3
      00000090H.7 SFRSYM    DATA     BIT       CEX4
      000000D8H.7 SFRSYM    DATA     BIT       CF
      000000C8H.0 SFRSYM    DATA     BIT       CP_RL2
      000000D8H.6 SFRSYM    DATA     BIT       CR
      000000D0H.7 SFRSYM    DATA     BIT       CY
      000000C8H.1 SFRSYM    DATA     BIT       C_T2
      000000A8H.7 SFRSYM    DATA     BIT       EA
      000000A8H.6 SFRSYM    DATA     BIT       EC
      00000090H.2 SFRSYM    DATA     BIT       ECI
      000000A8H.4 SFRSYM    DATA     BIT       ES
      000000A8H.1 SFRSYM    DATA     BIT       ET0
      000000A8H.3 SFRSYM    DATA     BIT       ET1
      000000A8H.5 SFRSYM    DATA     BIT       ET2
      000000A8H.0 SFRSYM    DATA     BIT       EX0
      000000A8H.2 SFRSYM    DATA     BIT       EX1
      000000C8H.3 SFRSYM    DATA     BIT       EXEN2
      000000C8H.6 SFRSYM    DATA     BIT       EXF2
      000000D0H.5 SFRSYM    DATA     BIT       F0
      00000098H.7 SFRSYM    DATA     BIT       FE
      00000088H.1 SFRSYM    DATA     BIT       IE0_
      00000088H.3 SFRSYM    DATA     BIT       IE1_
      000000B0H.2 SFRSYM    DATA     BIT       INT0
      000000B0H.3 SFRSYM    DATA     BIT       INT1
      00000088H.0 SFRSYM    DATA     BIT       IT0
      00000088H.2 SFRSYM    DATA     BIT       IT1
      000000D0H.2 SFRSYM    DATA     BIT       OV
      000000D0H.0 SFRSYM    DATA     BIT       P
      000000B8H.6 SFRSYM    DATA     BIT       PPC
      000000B8H.4 SFRSYM    DATA     BIT       PS
      000000B8H.1 SFRSYM    DATA     BIT       PT0
      000000B8H.3 SFRSYM    DATA     BIT       PT1
      000000B8H.5 SFRSYM    DATA     BIT       PT2
      000000B8H.0 SFRSYM    DATA     BIT       PX0
      000000B8H.2 SFRSYM    DATA     BIT       PX1
      00000098H.2 SFRSYM    DATA     BIT       RB8
      000000C8H.5 SFRSYM    DATA     BIT       RCLK
      000000B0H.7 SFRSYM    DATA     BIT       RD
      00000098H.4 SFRSYM    DATA     BIT       REN
      00000098H.0 SFRSYM    DATA     BIT       RI
      000000D0H.3 SFRSYM    DATA     BIT       RS0
      000000D0H.4 SFRSYM    DATA     BIT       RS1
      000000B0H.0 SFRSYM    DATA     BIT       RXD
      00000098H.7 SFRSYM    DATA     BIT       SM0
      00000098H.6 SFRSYM    DATA     BIT       SM1
      00000098H.5 SFRSYM    DATA     BIT       SM2
      000000B0H.4 SFRSYM    DATA     BIT       T0
      000000B0H.5 SFRSYM    DATA     BIT       T1
      00000090H.0 SFRSYM    DATA     BIT       T2
      00000090H.1 SFRSYM    DATA     BIT       T2EX
L251 LINKER/LOCATER V4.66.93.0                                                        12/18/2023  14:21:09  PAGE 41


      00000098H.3 SFRSYM    DATA     BIT       TB8
      000000C8H.4 SFRSYM    DATA     BIT       TCLK
      00000088H.5 SFRSYM    DATA     BIT       TF0
      00000088H.7 SFRSYM    DATA     BIT       TF1
      000000C8H.7 SFRSYM    DATA     BIT       TF2
      00000098H.1 SFRSYM    DATA     BIT       TI
      00000088H.4 SFRSYM    DATA     BIT       TR0
      00000088H.6 SFRSYM    DATA     BIT       TR1
      000000C8H.2 SFRSYM    DATA     BIT       TR2
      000000B0H.1 SFRSYM    DATA     BIT       TXD
      000000D0H.1 SFRSYM    DATA     BIT       UD
      000000B0H.6 SFRSYM    DATA     BIT       WR
      000000E0H   SYMBOL    NUMBER   ---       ACC
      00FF0163H   SYMBOL    CODE     ---       ASM_MEMSET?0
      00FF016CH   SYMBOL    CODE     ---       ASM_MEMSET?1
      00FF0172H   SYMBOL    CODE     ---       ASM_MEMSET?2
      00FF018CH   SYMBOL    CODE     ---       ASM_MEMSET?DEAD?0
      00FF018BH   SYMBOL    CODE     ---       ASM_MEMSET?DONE?
      000000F0H   SYMBOL    NUMBER   ---       B
      000000FAH   SYMBOL    NUMBER   ---       CCAP0H
      000000EAH   SYMBOL    NUMBER   ---       CCAP0L
      000000FBH   SYMBOL    NUMBER   ---       CCAP1H
      000000EBH   SYMBOL    NUMBER   ---       CCAP1L
      000000FCH   SYMBOL    NUMBER   ---       CCAP2H
      000000ECH   SYMBOL    NUMBER   ---       CCAP2L
      000000FDH   SYMBOL    NUMBER   ---       CCAP3H
      000000EDH   SYMBOL    NUMBER   ---       CCAP3L
      000000FEH   SYMBOL    NUMBER   ---       CCAP4H
      000000EEH   SYMBOL    NUMBER   ---       CCAP4L
      000000DAH   SYMBOL    NUMBER   ---       CCAPM0
      000000DBH   SYMBOL    NUMBER   ---       CCAPM1
      000000DCH   SYMBOL    NUMBER   ---       CCAPM2
      000000DDH   SYMBOL    NUMBER   ---       CCAPM3
      000000DEH   SYMBOL    NUMBER   ---       CCAPM4
      000000D8H   SYMBOL    NUMBER   ---       CCON
      000000F9H   SYMBOL    NUMBER   ---       CH
      000000E9H   SYMBOL    NUMBER   ---       CL
      000000D9H   SYMBOL    NUMBER   ---       CMOD
      00000083H   SYMBOL    NUMBER   ---       DPH
      00000082H   SYMBOL    NUMBER   ---       DPL
      00000084H   SYMBOL    NUMBER   ---       DPXL
      000000A8H   SYMBOL    NUMBER   ---       IE0
      000000B7H   SYMBOL    NUMBER   ---       IPH0
      000000B8H   SYMBOL    NUMBER   ---       IPL0
      00000080H   SYMBOL    NUMBER   ---       P0
      00000090H   SYMBOL    NUMBER   ---       P1
      000000A0H   SYMBOL    NUMBER   ---       P2
      000000B0H   SYMBOL    NUMBER   ---       P3
      00000087H   SYMBOL    NUMBER   ---       PCON
      000000D0H   SYMBOL    NUMBER   ---       PSW
      000000D1H   SYMBOL    NUMBER   ---       PSW1
      000000CBH   SYMBOL    NUMBER   ---       RCAP2H
      000000CAH   SYMBOL    NUMBER   ---       RCAP2L
      000000A9H   SYMBOL    NUMBER   ---       SADDR
      000000B9H   SYMBOL    NUMBER   ---       SADEN
      00000099H   SYMBOL    NUMBER   ---       SBUF
      00000098H   SYMBOL    NUMBER   ---       SCON
      00000081H   SYMBOL    NUMBER   ---       SP
      000000BEH   SYMBOL    NUMBER   ---       SPH
      000000C8H   SYMBOL    NUMBER   ---       T2CON
      000000C9H   SYMBOL    NUMBER   ---       T2MOD
      00000088H   SYMBOL    NUMBER   ---       TCON
      0000008CH   SYMBOL    NUMBER   ---       TH0
      0000008DH   SYMBOL    NUMBER   ---       TH1
      000000CDH   SYMBOL    NUMBER   ---       TH2
L251 LINKER/LOCATER V4.66.93.0                                                        12/18/2023  14:21:09  PAGE 42


      0000008AH   SYMBOL    NUMBER   ---       TL0
      0000008BH   SYMBOL    NUMBER   ---       TL1
      000000CCH   SYMBOL    NUMBER   ---       TL2
      00000089H   SYMBOL    NUMBER   ---       TMOD
      000000A7H   SYMBOL    NUMBER   ---       WCON
      000000A6H   SYMBOL    NUMBER   ---       WDTRST

      00FF014FH   BLOCK     CODE     NEAR LAB  LVL=0
      00FF014FH   LINE      CODE     ---       #22
      00FF0151H   LINE      CODE     ---       #23
      00FF0153H   LINE      CODE     ---       #24
      00FF0155H   LINE      CODE     ---       #25
      00FF0157H   LINE      CODE     ---       #26
      00FF015BH   LINE      CODE     ---       #27
      00FF015DH   LINE      CODE     ---       #28
      00FF015FH   LINE      CODE     ---       #29
      00FF0161H   LINE      CODE     ---       #30
      00FF0163H   LINE      CODE     ---       #32
      00FF0166H   LINE      CODE     ---       #33
      00FF0168H   LINE      CODE     ---       #34
      00FF016AH   LINE      CODE     ---       #35
      00FF016CH   LINE      CODE     ---       #37
      00FF016EH   LINE      CODE     ---       #38
      00FF0170H   LINE      CODE     ---       #39
      00FF0172H   LINE      CODE     ---       #41
      00FF0175H   LINE      CODE     ---       #42
      00FF0179H   LINE      CODE     ---       #43
      00FF017DH   LINE      CODE     ---       #44
      00FF0181H   LINE      CODE     ---       #45
      00FF0185H   LINE      CODE     ---       #46
      00FF0189H   LINE      CODE     ---       #47
      00FF018BH   LINE      CODE     ---       #49
      00FF018CH   LINE      CODE     ---       #52
      00FF018EH   LINE      CODE     ---       #53
      ---         BLOCKEND  ---      ---       LVL=0

      ---         MODULE    ---      ---       SYS_MEM2
      00FF00ADH   PUBLIC    CODE     ---       ASM_MEMCPY
      000000D0H.6 SFRSYM    DATA     BIT       AC
      000000D8H.0 SFRSYM    DATA     BIT       CCF0
      000000D8H.1 SFRSYM    DATA     BIT       CCF1
      000000D8H.2 SFRSYM    DATA     BIT       CCF2
      000000D8H.3 SFRSYM    DATA     BIT       CCF3
      000000D8H.4 SFRSYM    DATA     BIT       CCF4
      00000090H.3 SFRSYM    DATA     BIT       CEX0
      00000090H.4 SFRSYM    DATA     BIT       CEX1
      00000090H.5 SFRSYM    DATA     BIT       CEX2
      00000090H.6 SFRSYM    DATA     BIT       CEX3
      00000090H.7 SFRSYM    DATA     BIT       CEX4
      000000D8H.7 SFRSYM    DATA     BIT       CF
      000000C8H.0 SFRSYM    DATA     BIT       CP_RL2
      000000D8H.6 SFRSYM    DATA     BIT       CR
      000000D0H.7 SFRSYM    DATA     BIT       CY
      000000C8H.1 SFRSYM    DATA     BIT       C_T2
      000000A8H.7 SFRSYM    DATA     BIT       EA
      000000A8H.6 SFRSYM    DATA     BIT       EC
      00000090H.2 SFRSYM    DATA     BIT       ECI
      000000A8H.4 SFRSYM    DATA     BIT       ES
      000000A8H.1 SFRSYM    DATA     BIT       ET0
      000000A8H.3 SFRSYM    DATA     BIT       ET1
      000000A8H.5 SFRSYM    DATA     BIT       ET2
      000000A8H.0 SFRSYM    DATA     BIT       EX0
      000000A8H.2 SFRSYM    DATA     BIT       EX1
      000000C8H.3 SFRSYM    DATA     BIT       EXEN2
      000000C8H.6 SFRSYM    DATA     BIT       EXF2
L251 LINKER/LOCATER V4.66.93.0                                                        12/18/2023  14:21:09  PAGE 43


      000000D0H.5 SFRSYM    DATA     BIT       F0
      00000098H.7 SFRSYM    DATA     BIT       FE
      00000088H.1 SFRSYM    DATA     BIT       IE0_
      00000088H.3 SFRSYM    DATA     BIT       IE1_
      000000B0H.2 SFRSYM    DATA     BIT       INT0
      000000B0H.3 SFRSYM    DATA     BIT       INT1
      00000088H.0 SFRSYM    DATA     BIT       IT0
      00000088H.2 SFRSYM    DATA     BIT       IT1
      000000D0H.2 SFRSYM    DATA     BIT       OV
      000000D0H.0 SFRSYM    DATA     BIT       P
      000000B8H.6 SFRSYM    DATA     BIT       PPC
      000000B8H.4 SFRSYM    DATA     BIT       PS
      000000B8H.1 SFRSYM    DATA     BIT       PT0
      000000B8H.3 SFRSYM    DATA     BIT       PT1
      000000B8H.5 SFRSYM    DATA     BIT       PT2
      000000B8H.0 SFRSYM    DATA     BIT       PX0
      000000B8H.2 SFRSYM    DATA     BIT       PX1
      00000098H.2 SFRSYM    DATA     BIT       RB8
      000000C8H.5 SFRSYM    DATA     BIT       RCLK
      000000B0H.7 SFRSYM    DATA     BIT       RD
      00000098H.4 SFRSYM    DATA     BIT       REN
      00000098H.0 SFRSYM    DATA     BIT       RI
      000000D0H.3 SFRSYM    DATA     BIT       RS0
      000000D0H.4 SFRSYM    DATA     BIT       RS1
      000000B0H.0 SFRSYM    DATA     BIT       RXD
      00000098H.7 SFRSYM    DATA     BIT       SM0
      00000098H.6 SFRSYM    DATA     BIT       SM1
      00000098H.5 SFRSYM    DATA     BIT       SM2
      000000B0H.4 SFRSYM    DATA     BIT       T0
      000000B0H.5 SFRSYM    DATA     BIT       T1
      00000090H.0 SFRSYM    DATA     BIT       T2
      00000090H.1 SFRSYM    DATA     BIT       T2EX
      00000098H.3 SFRSYM    DATA     BIT       TB8
      000000C8H.4 SFRSYM    DATA     BIT       TCLK
      00000088H.5 SFRSYM    DATA     BIT       TF0
      00000088H.7 SFRSYM    DATA     BIT       TF1
      000000C8H.7 SFRSYM    DATA     BIT       TF2
      00000098H.1 SFRSYM    DATA     BIT       TI
      00000088H.4 SFRSYM    DATA     BIT       TR0
      00000088H.6 SFRSYM    DATA     BIT       TR1
      000000C8H.2 SFRSYM    DATA     BIT       TR2
      000000B0H.1 SFRSYM    DATA     BIT       TXD
      000000D0H.1 SFRSYM    DATA     BIT       UD
      000000B0H.6 SFRSYM    DATA     BIT       WR
      000000E0H   SYMBOL    NUMBER   ---       ACC
      00FF00C5H   SYMBOL    CODE     ---       ASM_MEMCPY?0
      00FF00D3H   SYMBOL    CODE     ---       ASM_MEMCPY?1
      00FF00D7H   SYMBOL    CODE     ---       ASM_MEMCPY?2
      00FF0104H   SYMBOL    CODE     ---       ASM_MEMCPY?DEAD?0
      00FF0108H   SYMBOL    CODE     ---       ASM_MEMCPY?DEAD?1
      00FF0103H   SYMBOL    CODE     ---       ASM_MEMCPY?DONE?
      000000F0H   SYMBOL    NUMBER   ---       B
      000000FAH   SYMBOL    NUMBER   ---       CCAP0H
      000000EAH   SYMBOL    NUMBER   ---       CCAP0L
      000000FBH   SYMBOL    NUMBER   ---       CCAP1H
      000000EBH   SYMBOL    NUMBER   ---       CCAP1L
      000000FCH   SYMBOL    NUMBER   ---       CCAP2H
      000000ECH   SYMBOL    NUMBER   ---       CCAP2L
      000000FDH   SYMBOL    NUMBER   ---       CCAP3H
      000000EDH   SYMBOL    NUMBER   ---       CCAP3L
      000000FEH   SYMBOL    NUMBER   ---       CCAP4H
      000000EEH   SYMBOL    NUMBER   ---       CCAP4L
      000000DAH   SYMBOL    NUMBER   ---       CCAPM0
      000000DBH   SYMBOL    NUMBER   ---       CCAPM1
      000000DCH   SYMBOL    NUMBER   ---       CCAPM2
L251 LINKER/LOCATER V4.66.93.0                                                        12/18/2023  14:21:09  PAGE 44


      000000DDH   SYMBOL    NUMBER   ---       CCAPM3
      000000DEH   SYMBOL    NUMBER   ---       CCAPM4
      000000D8H   SYMBOL    NUMBER   ---       CCON
      000000F9H   SYMBOL    NUMBER   ---       CH
      000000E9H   SYMBOL    NUMBER   ---       CL
      000000D9H   SYMBOL    NUMBER   ---       CMOD
      00000083H   SYMBOL    NUMBER   ---       DPH
      00000082H   SYMBOL    NUMBER   ---       DPL
      00000084H   SYMBOL    NUMBER   ---       DPXL
      000000A8H   SYMBOL    NUMBER   ---       IE0
      000000B7H   SYMBOL    NUMBER   ---       IPH0
      000000B8H   SYMBOL    NUMBER   ---       IPL0
      00000080H   SYMBOL    NUMBER   ---       P0
      00000090H   SYMBOL    NUMBER   ---       P1
      000000A0H   SYMBOL    NUMBER   ---       P2
      000000B0H   SYMBOL    NUMBER   ---       P3
      00000087H   SYMBOL    NUMBER   ---       PCON
      000000D0H   SYMBOL    NUMBER   ---       PSW
      000000D1H   SYMBOL    NUMBER   ---       PSW1
      000000CBH   SYMBOL    NUMBER   ---       RCAP2H
      000000CAH   SYMBOL    NUMBER   ---       RCAP2L
      000000A9H   SYMBOL    NUMBER   ---       SADDR
      000000B9H   SYMBOL    NUMBER   ---       SADEN
      00000099H   SYMBOL    NUMBER   ---       SBUF
      00000098H   SYMBOL    NUMBER   ---       SCON
      00000081H   SYMBOL    NUMBER   ---       SP
      000000BEH   SYMBOL    NUMBER   ---       SPH
      000000C8H   SYMBOL    NUMBER   ---       T2CON
      000000C9H   SYMBOL    NUMBER   ---       T2MOD
      00000088H   SYMBOL    NUMBER   ---       TCON
      0000008CH   SYMBOL    NUMBER   ---       TH0
      0000008DH   SYMBOL    NUMBER   ---       TH1
      000000CDH   SYMBOL    NUMBER   ---       TH2
      0000008AH   SYMBOL    NUMBER   ---       TL0
      0000008BH   SYMBOL    NUMBER   ---       TL1
      000000CCH   SYMBOL    NUMBER   ---       TL2
      00000089H   SYMBOL    NUMBER   ---       TMOD
      000000A7H   SYMBOL    NUMBER   ---       WCON
      000000A6H   SYMBOL    NUMBER   ---       WDTRST

      00FF00ADH   BLOCK     CODE     NEAR LAB  LVL=0
      00FF00ADH   LINE      CODE     ---       #25
      00FF00AFH   LINE      CODE     ---       #26
      00FF00B1H   LINE      CODE     ---       #28
      00FF00B3H   LINE      CODE     ---       #29
      00FF00B5H   LINE      CODE     ---       #31
      00FF00B7H   LINE      CODE     ---       #32
      00FF00B9H   LINE      CODE     ---       #33
      00FF00BDH   LINE      CODE     ---       #34
      00FF00BFH   LINE      CODE     ---       #35
      00FF00C1H   LINE      CODE     ---       #36
      00FF00C3H   LINE      CODE     ---       #45
      00FF00C5H   LINE      CODE     ---       #48
      00FF00C8H   LINE      CODE     ---       #49
      00FF00CBH   LINE      CODE     ---       #50
      00FF00CDH   LINE      CODE     ---       #51
      00FF00CFH   LINE      CODE     ---       #52
      00FF00D1H   LINE      CODE     ---       #53
      00FF00D3H   LINE      CODE     ---       #56
      00FF00D5H   LINE      CODE     ---       #57
      00FF00D7H   LINE      CODE     ---       #60
      00FF00DAH   LINE      CODE     ---       #61
      00FF00DDH   LINE      CODE     ---       #62
      00FF00E1H   LINE      CODE     ---       #63
      00FF00E5H   LINE      CODE     ---       #64
L251 LINKER/LOCATER V4.66.93.0                                                        12/18/2023  14:21:09  PAGE 45


      00FF00E9H   LINE      CODE     ---       #65
      00FF00EDH   LINE      CODE     ---       #66
      00FF00F1H   LINE      CODE     ---       #67
      00FF00F5H   LINE      CODE     ---       #68
      00FF00F9H   LINE      CODE     ---       #69
      00FF00FDH   LINE      CODE     ---       #70
      00FF0101H   LINE      CODE     ---       #71
      00FF0103H   LINE      CODE     ---       #74
      00FF0104H   LINE      CODE     ---       #77
      00FF0106H   LINE      CODE     ---       #78
      00FF0108H   LINE      CODE     ---       #80
      00FF010AH   LINE      CODE     ---       #81
      ---         BLOCKEND  ---      ---       LVL=0

      ---         MODULE    ---      ---       sys_qctrl
      00FF4FF6H   PUBLIC    CODE     ---       Q_Init
      00FF502EH   PUBLIC    CODE     ---       Q_MemFreeCount
      00FF17F5H   PUBLIC    CODE     ---       Q_MemAlloc
      00FF5048H   PUBLIC    CODE     ---       Q_MemFree
      00FF1784H   PUBLIC    CODE     ---       Q_MemGet
      00FF4C88H   PUBLIC    CODE     ---       Q_QGet
      00FF4BE5H   PUBLIC    CODE     ---       Q_QNumGet
      00FF4FE0H   PUBLIC    CODE     ---       Q_QLenGet
      00FF4BF2H   PUBLIC    CODE     ---       Q_QFree
      00FF459BH   PUBLIC    CODE     ---       Q_QPushBack
      00FF5055H   PUBLIC    CODE     ---       Q_QPushFront
      00FF5113H   PUBLIC    CODE     ---       Q_QMoveBack
      00FF5193H   PUBLIC    CODE     ---       Q_QChageType
      00FF51CEH   PUBLIC    CODE     ---       Q_QRemove
      0000AC4BH   PUBLIC    EDATA    ---       sQCtrl
      0000AC57H   PUBLIC    EDATA    ---       sQHeader
      0000ACCFH   PUBLIC    EDATA    ---       sQPayload
      000000A8H.7 SFRSYM    DATA     BIT       EA

      00FF4FF6H   BLOCK     CODE     ---       LVL=0
      00FF4FF6H   LINE      ---      ---       #32
      00FF4FF6H   LINE      ---      ---       #33
      00FF4FF6H   BLOCK     CODE     NEAR LAB  LVL=1
      00FF4FF6H   LINE      ---      ---       #38
      00FF4FF8H   LINE      ---      ---       #40
      00FF5001H   LINE      ---      ---       #41
      00FF5006H   LINE      ---      ---       #42
      00FF500AH   LINE      ---      ---       #43
      00FF500FH   LINE      ---      ---       #44
      00FF5016H   LINE      ---      ---       #47
      00FF5022H   LINE      ---      ---       #50
      REG=4       REGSYM    ---      ---       pQCtrl
      R7          REGSYM    ---      BYTE      qType
      ---         BLOCKEND  CODE     ---       LVL=1
      ---         BLOCKEND  CODE     ---       LVL=0

      00FF502EH   BLOCK     CODE     ---       LVL=0
      00FF502EH   LINE      ---      ---       #54
      00FF502EH   LINE      ---      ---       #55
      00FF502EH   BLOCK     CODE     NEAR LAB  LVL=1
      00FF502EH   LINE      ---      ---       #57
      00FF5030H   LINE      ---      ---       #60
      00FF5032H   LINE      ---      ---       #62
      00FF503CH   LINE      ---      ---       #64
      00FF503EH   LINE      ---      ---       #65
      00FF5045H   LINE      ---      ---       #68
      R6          REGSYM    ---      BYTE      qIdx
      R7          REGSYM    ---      BYTE      freeCnt
      ---         BLOCKEND  CODE     ---       LVL=1
      00FF5047H   LINE      ---      ---       #69
L251 LINKER/LOCATER V4.66.93.0                                                        12/18/2023  14:21:09  PAGE 46


      00FF5047H   LINE      CODE     ---       #69

      00FF17F5H   BLOCK     CODE     ---       LVL=0
      00FF17F5H   LINE      ---      ---       #72
      00FF17F5H   LINE      ---      ---       #73
      00FF17F5H   BLOCK     CODE     NEAR LAB  LVL=1
      00FF17F5H   LINE      ---      ---       #77
      00FF17F7H   LINE      ---      ---       #79
      00FF1802H   LINE      ---      ---       #81
      00FF1808H   LINE      ---      ---       #82
      00FF180AH   LINE      ---      ---       #83
      00FF1811H   LINE      ---      ---       #89
      R7          REGSYM    ---      BYTE      qIdx
      ---         BLOCKEND  CODE     ---       LVL=1
      00FF1813H   LINE      ---      ---       #90
      00FF1813H   LINE      CODE     ---       #90

      00FF5048H   BLOCK     CODE     ---       LVL=0
      00FF5048H   LINE      ---      ---       #92
      00FF504AH   LINE      ---      ---       #97
      00FF5054H   LINE      ---      ---       #98
      R5          REGSYM    ---      BYTE      qIdx
      ---         BLOCKEND  ---      ---       LVL=0

      00FF1780H   BLOCK     CODE     ---       LVL=0
      00FF1784H   LINE      ---      ---       #100
      00FF1788H   LINE      ---      ---       #104
      00FF178FH   LINE      ---      ---       #106
      00FF1798H   LINE      ---      ---       #107
      00FF1780H   SYMBOL    CODE     NEAR LAB  ?L?COM0001
      R15         REGSYM    ---      BYTE      qIdx
      ---         BLOCKEND  ---      ---       LVL=0

      00FF4C88H   BLOCK     CODE     ---       LVL=0
      00FF4C88H   LINE      ---      ---       #109
      00FF4C8AH   LINE      ---      ---       #114
      00FF4C9DH   LINE      ---      ---       #115
      WR2         REGSYM    ---      INT       qType
      ---         BLOCKEND  ---      ---       LVL=0

      00FF4BE1H   BLOCK     CODE     ---       LVL=0
      00FF4BE5H   LINE      ---      ---       #117
      00FF4BE7H   LINE      ---      ---       #122
      00FF4BF1H   LINE      ---      ---       #123
      00FF4BE1H   SYMBOL    CODE     NEAR LAB  ?L?COM004C
      WR2         REGSYM    ---      INT       qType
      ---         BLOCKEND  ---      ---       LVL=0

      00FF4FE0H   BLOCK     CODE     ---       LVL=0
      00FF4FE0H   LINE      ---      ---       #125
      00FF4FE2H   LINE      ---      ---       #129
      00FF4FF5H   LINE      ---      ---       #130
      WR2         REGSYM    ---      INT       qType
      ---         BLOCKEND  ---      ---       LVL=0

      00FF51CEH   BLOCK     CODE     ---       LVL=0
      00FF51CEH   LINE      ---      ---       #132
      00FF51D2H   LINE      ---      ---       #136
      WR2         REGSYM    ---      INT       qType
      R1          REGSYM    ---      BYTE      bKeepMem
      00FF51D2H   BLOCK     CODE     NEAR LAB  LVL=1
      00FF51D2H   LINE      ---      ---       #137
      00FF51DEH   LINE      ---      ---       #138
      00FF51EAH   LINE      ---      ---       #141
      00FF51ECH   LINE      ---      ---       #145
L251 LINKER/LOCATER V4.66.93.0                                                        12/18/2023  14:21:09  PAGE 47


      00FF51FAH   LINE      ---      ---       #146
      00FF51FFH   LINE      ---      ---       #147
      00FF520DH   LINE      ---      ---       #150
      00FF521CH   LINE      ---      ---       #152
      00FF522DH   LINE      ---      ---       #153
      00FF523BH   LINE      ---      ---       #157
      00FF523FH   LINE      ---      ---       #158
      00FF524DH   LINE      ---      ---       #161
      00FF5258H   LINE      ---      ---       #162
      00FF525BH   LINE      ---      ---       #163
      00FF5261H   LINE      ---      ---       #164
      00FF5267H   LINE      ---      ---       #165
      REG=4       REGSYM    ---      ---       pQCtrl
      REG=2       REGSYM    ---      ---       pQHeader
      R0          REGSYM    ---      BYTE      nextNode
      ---         BLOCKEND  CODE     ---       LVL=1
      00FF5269H   LINE      ---      ---       #166
      00FF5269H   LINE      CODE     ---       #166

      00FF4BF2H   BLOCK     CODE     ---       LVL=0
      00FF4BF2H   LINE      ---      ---       #168
      00FF4BF4H   LINE      ---      ---       #171
      WR2         REGSYM    ---      INT       qType
      00FF4BF4H   BLOCK     CODE     NEAR LAB  LVL=1
      00FF4BF4H   LINE      ---      ---       #172
      00FF4C00H   LINE      ---      ---       #175
      00FF4C08H   LINE      ---      ---       #176
      00FF4C08H   LINE      ---      ---       #179
      REG=0       REGSYM    ---      ---       pQCtrl
      ---         BLOCKEND  CODE     ---       LVL=1
      00FF4C0EH   LINE      ---      ---       #180
      00FF4C0EH   LINE      CODE     ---       #180

      00FF458DH   BLOCK     CODE     ---       LVL=0
      00FF459BH   LINE      ---      ---       #182
      00FF45A7H   LINE      ---      ---       #187
      00FF458DH   SYMBOL    CODE     NEAR LAB  ?L?COM000F
      WR12        REGSYM    ---      INT       qType
      R15         REGSYM    ---      BYTE      qIdx
      0000B515H   SYMBOL    EDATA    WORD      dataLen
      00FF45A7H   BLOCK     CODE     NEAR LAB  LVL=1
      00FF45A7H   LINE      ---      ---       #188
      00FF45B5H   LINE      ---      ---       #189
      00FF45C9H   LINE      ---      ---       #190
      00FF45D6H   LINE      ---      ---       #193
      00FF45DEH   LINE      ---      ---       #198
      00FF45EAH   LINE      ---      ---       #200
      00FF45ECH   LINE      ---      ---       #201
      00FF45F5H   LINE      ---      ---       #202
      00FF4605H   LINE      ---      ---       #203
      00FF460FH   LINE      ---      ---       #208
      00FF461CH   LINE      ---      ---       #209
      00FF462DH   LINE      ---      ---       #212
      00FF4635H   LINE      ---      ---       #213
      00FF463FH   LINE      ---      ---       #214
      00FF4642H   LINE      ---      ---       #217
      00FF464EH   LINE      ---      ---       #219
      00FF465BH   LINE      ---      ---       #220
      0000B517H   SYMBOL    EDATA    ---       pQCtrl
      0000B519H   SYMBOL    EDATA    ---       pQHeader
      0000B51BH   SYMBOL    EDATA    ---       pQ_PAYLOAD
      ---         BLOCKEND  CODE     ---       LVL=1
      00FF465DH   LINE      ---      ---       #221
      00FF465DH   LINE      CODE     ---       #221

L251 LINKER/LOCATER V4.66.93.0                                                        12/18/2023  14:21:09  PAGE 48


      00FF5055H   BLOCK     CODE     ---       LVL=0
      00FF5055H   LINE      ---      ---       #224
      00FF505FH   LINE      ---      ---       #229
      WR8         REGSYM    ---      INT       qType
      R15         REGSYM    ---      BYTE      qIdx
      WR12        REGSYM    ---      WORD      dataLen
      00FF505FH   BLOCK     CODE     NEAR LAB  LVL=1
      00FF505FH   LINE      ---      ---       #230
      00FF506FH   LINE      ---      ---       #231
      00FF5083H   LINE      ---      ---       #232
      00FF5090H   LINE      ---      ---       #235
      00FF5098H   LINE      ---      ---       #240
      00FF50A4H   LINE      ---      ---       #242
      00FF50A6H   LINE      ---      ---       #243
      00FF50AFH   LINE      ---      ---       #244
      00FF50B9H   LINE      ---      ---       #245
      00FF50C8H   LINE      ---      ---       #250
      00FF50D4H   LINE      ---      ---       #251
      00FF50E1H   LINE      ---      ---       #254
      00FF50EEH   LINE      ---      ---       #255
      00FF50F5H   LINE      ---      ---       #256
      00FF5100H   LINE      ---      ---       #257
      00FF5104H   LINE      ---      ---       #260
      00FF510CH   LINE      ---      ---       #261
      0000B560H   SYMBOL    EDATA    ---       pQCtrl
      0000B562H   SYMBOL    EDATA    ---       pQHeader
      0000B564H   SYMBOL    EDATA    ---       pQ_PAYLOAD
      ---         BLOCKEND  CODE     ---       LVL=1
      00FF510EH   LINE      ---      ---       #262
      00FF510EH   LINE      CODE     ---       #262

      00FF5113H   BLOCK     CODE     ---       LVL=0
      00FF5113H   LINE      ---      ---       #264
      00FF5115H   LINE      ---      ---       #267
      WR2         REGSYM    ---      INT       qType
      00FF5115H   BLOCK     CODE     NEAR LAB  LVL=1
      00FF5115H   LINE      ---      ---       #268
      00FF5121H   LINE      ---      ---       #269
      00FF512DH   LINE      ---      ---       #273
      00FF5135H   LINE      ---      ---       #274
      00FF5135H   LINE      ---      ---       #279
      00FF5140H   LINE      ---      ---       #280
      00FF5145H   LINE      ---      ---       #281
      00FF5153H   LINE      ---      ---       #286
      00FF5165H   LINE      ---      ---       #287
      00FF5176H   LINE      ---      ---       #292
      00FF5188H   LINE      ---      ---       #295
      00FF518FH   LINE      ---      ---       #296
      REG=0       REGSYM    ---      ---       pQCtrl
      REG=1       REGSYM    ---      ---       pQHeader
      R7          REGSYM    ---      BYTE      nextNode
      ---         BLOCKEND  CODE     ---       LVL=1
      00FF5192H   LINE      ---      ---       #297
      00FF5192H   LINE      CODE     ---       #297

      00FF5193H   BLOCK     CODE     ---       LVL=0
      00FF5193H   LINE      ---      ---       #299
      00FF5199H   LINE      ---      ---       #303
      WR12        REGSYM    ---      INT       qTypeDest
      WR14        REGSYM    ---      INT       qTypeSrc
      00FF5199H   BLOCK     CODE     NEAR LAB  LVL=1
      00FF5199H   LINE      ---      ---       #304
      00FF51A3H   LINE      ---      ---       #309
      00FF51ABH   LINE      ---      ---       #310
      00FF51ABH   LINE      ---      ---       #313
L251 LINKER/LOCATER V4.66.93.0                                                        12/18/2023  14:21:09  PAGE 49


      00FF51AFH   LINE      ---      ---       #314
      00FF51B8H   LINE      ---      ---       #317
      00FF51BEH   LINE      ---      ---       #320
      REG=3       REGSYM    ---      ---       pQSrcCtrl
      0000B5B5H   SYMBOL    EDATA    BYTE      qIdx
      0000B5B6H   SYMBOL    EDATA    WORD      qLen
      ---         BLOCKEND  CODE     ---       LVL=1
      00FF51CBH   LINE      ---      ---       #321
      00FF51CBH   LINE      CODE     ---       #321

      ---         MODULE    ---      ---       sys_rtc
      00FF1DBFH   PUBLIC    CODE     ---       RTC_ClkGet?_
      00FF5272H   PUBLIC    CODE     ---       RTC_uDelay
      00FF1F30H   PUBLIC    CODE     ---       RTC_TickGapCount
      00FF57FDH   PUBLIC    CODE     ---       RTC_TimerConfig
      00FF586DH   PUBLIC    CODE     ---       RTC_TimerWakeUpDisable
      00FF5F9EH   PUBLIC    CODE     ---       RTC_WaitForTriggered
      00FF5FA8H   PUBLIC    CODE     ---       RTC_TriggerWithinUs
      00FF5FCEH   PUBLIC    CODE     ---       RTC_IsrHdlrInit
      00FF5FEAH   PUBLIC    CODE     ---       RTC_Init
      00FF603EH   PUBLIC    CODE     ---       RTC_IsrHdlr
      0000B566H   PUBLIC    EDATA    ---       gSysRtcHdlrTable
      00FF603DH   SYMBOL    CODE     ---       Rtc_NullHdlr
      0000B568H   SYMBOL    EDATA    DWORD     rtcNextAnchor

      00FF603DH   BLOCK     CODE     ---       LVL=0
      00FF603DH   LINE      ---      ---       #39
      00FF603DH   LINE      ---      ---       #40
      00FF603DH   LINE      ---      ---       #41
      ---         BLOCKEND  ---      ---       LVL=0

      00FF603EH   BLOCK     CODE     ---       LVL=0
      00FF603EH   LINE      ---      ---       #44
      00FF603EH   LINE      ---      ---       #47
      00FF603EH   LINE      ---      ---       #49
      00FF6044H   LINE      ---      ---       #52
      00FF604AH   LINE      ---      ---       #55
      ---         BLOCKEND  ---      ---       LVL=0

      00FF526AH   BLOCK     CODE     ---       LVL=0
      00FF5272H   LINE      ---      ---       #62
      00FF526AH   SYMBOL    CODE     NEAR LAB  ?L?COM001C
      DR12        REGSYM    ---      DWORD     delayUs
      00FF5276H   BLOCK     CODE     NEAR LAB  LVL=1
      00FF5276H   LINE      ---      ---       #95
      00FF527BH   LINE      ---      ---       #96
      00FF527BH   LINE      ---      ---       #97
      00FF5284H   LINE      ---      ---       #98
      0000B581H   SYMBOL    EDATA    DWORD     clkA
      DR12        REGSYM    ---      DWORD     clkB
      ---         BLOCKEND  CODE     ---       LVL=1
      00FF528EH   LINE      ---      ---       #100
      00FF528EH   LINE      CODE     ---       #100

      00FF1F1FH   BLOCK     CODE     ---       LVL=0
      00FF1F30H   LINE      ---      ---       #104
      00FF1F32H   LINE      ---      ---       #113
      00FF1F36H   LINE      ---      ---       #115
      00FF1F1FH   SYMBOL    CODE     NEAR LAB  ?L?COM0020
      DR4         REGSYM    ---      DWORD     clkA
      DR8         REGSYM    ---      DWORD     clkB
      ---         BLOCKEND  ---      ---       LVL=0

      00FF57FDH   BLOCK     CODE     ---       LVL=0
      00FF57FDH   LINE      ---      ---       #118
L251 LINKER/LOCATER V4.66.93.0                                                        12/18/2023  14:21:09  PAGE 50


      00FF5803H   LINE      ---      ---       #121
      00FF581DH   LINE      ---      ---       #124
      00FF5828H   LINE      ---      ---       #127
      00FF582DH   LINE      ---      ---       #128
      00FF5838H   LINE      ---      ---       #129
      00FF5838H   LINE      ---      ---       #132
      00FF5844H   LINE      ---      ---       #135
      00FF585CH   LINE      ---      ---       #137
      00FF5868H   LINE      ---      ---       #138
      00FF586CH   LINE      ---      ---       #139
      R10         REGSYM    ---      BYTE      mode
      DR28        REGSYM    ---      DWORD     rtcValue
      DR24        REGSYM    ---      DWORD     rtcInterval
      ---         BLOCKEND  ---      ---       LVL=0

      00FF586DH   BLOCK     CODE     ---       LVL=0
      00FF586DH   LINE      ---      ---       #144
      00FF586DH   LINE      ---      ---       #146
      00FF5879H   LINE      ---      ---       #149
      00FF587FH   LINE      ---      ---       #151
      ---         BLOCKEND  ---      ---       LVL=0

      00FF5F9EH   BLOCK     CODE     ---       LVL=0
      00FF5F9EH   LINE      ---      ---       #155
      00FF5F9EH   LINE      ---      ---       #157
      00FF5F9EH   LINE      ---      ---       #158
      00FF5F9FH   LINE      ---      ---       #159
      00FF5FA7H   LINE      ---      ---       #160
      ---         BLOCKEND  ---      ---       LVL=0

      00FF5FA8H   BLOCK     CODE     ---       LVL=0
      00FF5FA8H   LINE      ---      ---       #163
      00FF5FACH   LINE      ---      ---       #165
      00FF5FCBH   LINE      ---      ---       #166
      DR12        REGSYM    ---      DWORD     Time
      ---         BLOCKEND  ---      ---       LVL=0

      00FF5FCEH   BLOCK     CODE     ---       LVL=0
      00FF5FCEH   LINE      ---      ---       #170
      00FF5FD2H   LINE      ---      ---       #172
      00FF5FD6H   LINE      ---      ---       #174
      00FF5FE3H   LINE      ---      ---       #175
      00FF5FE7H   LINE      ---      ---       #176
      REG=7       REGSYM    ---      ---       intHdlr
      ---         BLOCKEND  ---      ---       LVL=0

      00FF5FEAH   BLOCK     CODE     ---       LVL=0
      00FF5FEAH   LINE      ---      ---       #181
      00FF5FEEH   LINE      ---      ---       #192
      00FF5FF9H   LINE      ---      ---       #193
      00FF5FFCH   LINE      ---      ---       #195
      00FF6014H   LINE      ---      ---       #199
      00FF601DH   LINE      ---      ---       #202
      00FF6029H   LINE      ---      ---       #206
      00FF6035H   LINE      ---      ---       #207
      00FF603AH   LINE      ---      ---       #213
      R15         REGSYM    ---      BYTE      rtcUnit
      ---         BLOCKEND  ---      ---       LVL=0

      00FF1DBFH   BLOCK     CODE     ---       LVL=0
      00FF1DBFH   LINE      ---      ---       #232
      00FF1DBFH   LINE      ---      ---       #233
      00FF1DBFH   BLOCK     CODE     NEAR LAB  LVL=1
      00FF1DBFH   LINE      ---      ---       #236
      00FF1DCBH   LINE      ---      ---       #238
L251 LINKER/LOCATER V4.66.93.0                                                        12/18/2023  14:21:09  PAGE 51


      00FF1DCBH   LINE      ---      ---       #240
      00FF1DD2H   LINE      ---      ---       #241
      00FF1DD9H   LINE      ---      ---       #243
      DR4         REGSYM    ---      DWORD     rtc1
      ---         BLOCKEND  CODE     ---       LVL=1
      00FF1DD9H   LINE      ---      ---       #244
      00FF1DD9H   LINE      CODE     ---       #244

      ---         MODULE    ---      ---       common_isr
      00FF48F1H   PUBLIC    CODE     ---       common_isrBmuCheckTx
      00FF1426H   PUBLIC    CODE     ---       common_isr_init
      00FF604BH   PUBLIC    CODE     ---       Common_IsrBmuTxQAdd?_
      00FF6109H   PUBLIC    CODE     ---       Common_IsrBmuTxQGetByHandle?_
      00FF61C1H   PUBLIC    CODE     ---       Common_IsrBmuTxQPciGet
      00FF625AH   PUBLIC    CODE     ---       Common_IsrBmuTxQDeleteAllByCondition?_
      00FF63C9H   PUBLIC    CODE     ---       Common_IsrBmuTxQDeleteByPtr?_
      00FF6489H   PUBLIC    CODE     ---       Common_IsrBmuTxQInit
      00FF64F9H   PUBLIC    CODE     ---       common_isrBmuHandler
      0000B1F5H   PUBLIC    EDATA    ---       gBmuDataTxQList
      0000B1FCH   PUBLIC    EDATA    ---       gBmuDataTxCtrlField
      0000B207H   PUBLIC    EDATA    ---       gBmuDataListHead
      0000B209H   PUBLIC    EDATA    ---       gBmuDataListTail
      0000B20BH   PUBLIC    EDATA    ---       gBmuDataList
      000000A8H.7 SFRSYM    DATA     BIT       EA
      00000080H   SFRSYM    DATA     BYTE      P0
      0000B282H   SYMBOL    EDATA    BYTE      gCommon_isrGetBmu

      00FF64F9H   BLOCK     CODE     ---       LVL=0
      00FF64F9H   LINE      ---      ---       #122
      00FF64F9H   LINE      ---      ---       #129
      00FF64FCH   LINE      ---      ---       #130
      00FF6502H   LINE      ---      ---       #131
      R11         REGSYM    ---      BYTE      isrStatus
      ---         BLOCKEND  ---      ---       LVL=0

      00FF48F1H   BLOCK     CODE     ---       LVL=0
      00FF48F1H   LINE      ---      ---       #174
      00FF48F3H   LINE      ---      ---       #175
      00FF48F3H   BLOCK     CODE     NEAR LAB  LVL=1
      00FF48F3H   LINE      ---      ---       #176
      00FF48F8H   LINE      ---      ---       #179
      00FF4903H   LINE      ---      ---       #181
      00FF4905H   LINE      ---      ---       #182
      00FF490BH   LINE      ---      ---       #183
      00FF4916H   LINE      ---      ---       #184
      00FF491BH   LINE      ---      ---       #185
      00FF491BH   LINE      ---      ---       #188
      00FF491FH   LINE      ---      ---       #189
      00FF4933H   LINE      ---      ---       #201
      00FF493AH   LINE      ---      ---       #203
      0000B4A8H   SYMBOL    EDATA    BYTE      qNum
      R15         REGSYM    ---      BYTE      count
      0000B4A9H   SYMBOL    EDATA    ---       dataField
      00FF493AH   BLOCK     CODE     NEAR LAB  LVL=2
      00FF493AH   LINE      ---      ---       #204
      00FF493EH   LINE      ---      ---       #205
      00FF4946H   LINE      ---      ---       #206
      00FF494AH   LINE      ---      ---       #210
      00FF495AH   LINE      ---      ---       #212
      R14         REGSYM    ---      BYTE      tempData
      ---         BLOCKEND  CODE     ---       LVL=2
      00FF495DH   LINE      ---      ---       #214
      00FF495DH   LINE      ---      ---       #217
      00FF4967H   LINE      ---      ---       #219
      00FF4967H   LINE      CODE     ---       #219
L251 LINKER/LOCATER V4.66.93.0                                                        12/18/2023  14:21:09  PAGE 52


      ---         BLOCKEND  CODE     ---       LVL=0

      00FF1426H   BLOCK     CODE     ---       LVL=0
      00FF1426H   LINE      ---      ---       #222
      00FF1426H   LINE      ---      ---       #224
      00FF142BH   LINE      ---      ---       #228
      ---         BLOCKEND  ---      ---       LVL=0

      00FF604BH   BLOCK     CODE     ---       LVL=0
      00FF604BH   LINE      ---      ---       #238
      R14         REGSYM    ---      BYTE      qId
      REG=2       REGSYM    ---      ---       pCtrlField
      R15         REGSYM    ---      BYTE      type
      00FF6055H   BLOCK     CODE     NEAR LAB  LVL=1
      00FF6055H   LINE      ---      ---       #240
      00FF6057H   LINE      ---      ---       #257
      00FF6057H   LINE      ---      ---       #258
      00FF6067H   LINE      ---      ---       #260
      00FF606BH   LINE      ---      ---       #269
      00FF6070H   LINE      ---      ---       #270
      00FF6082H   LINE      ---      ---       #271
      00FF6082H   LINE      ---      ---       #277
      00FF608AH   LINE      ---      ---       #278
      00FF6095H   LINE      ---      ---       #281
      00FF609DH   LINE      ---      ---       #282
      00FF60AAH   LINE      ---      ---       #283
      00FF60AEH   LINE      ---      ---       #284
      00FF60B0H   LINE      ---      ---       #287
      00FF60C1H   LINE      ---      ---       #288
      00FF60CDH   LINE      ---      ---       #291
      00FF60DAH   LINE      ---      ---       #292
      00FF60E0H   LINE      ---      ---       #295
      00FF60E0H   LINE      ---      ---       #298
      00FF60E6H   LINE      ---      ---       #299
      00FF60EFH   LINE      ---      ---       #302
      00FF60F1H   LINE      ---      ---       #303
      00FF60F1H   LINE      ---      ---       #304
      00FF60F3H   LINE      ---      ---       #305
      00FF60FAH   LINE      ---      ---       #310
      R13         REGSYM    ---      BYTE      i
      ---         BLOCKEND  CODE     ---       LVL=1
      00FF6104H   LINE      ---      ---       #311
      00FF6104H   LINE      CODE     ---       #311

      00FF6109H   BLOCK     CODE     ---       LVL=0
      00FF6109H   LINE      ---      ---       #375
      WR8         REGSYM    ---      WORD      connHdl
      REG=15      REGSYM    ---      ---       qId
      REG=1       REGSYM    ---      ---       hciHdr
      REG=0       REGSYM    ---      ---       qCnt
      FFFFFFFBH   STKSYM    ---      ---       retPtr
      00FF610FH   BLOCK     CODE     NEAR LAB  LVL=1
      00FF610FH   LINE      ---      ---       #376
      00FF6113H   LINE      ---      ---       #382
      00FF6116H   LINE      ---      ---       #384
      00FF6119H   LINE      ---      ---       #386
      00FF611EH   LINE      ---      ---       #387
      00FF6122H   LINE      ---      ---       #388
      00FF6122H   LINE      ---      ---       #391
      00FF6124H   LINE      ---      ---       #393
      REG=14      REGSYM    ---      ---       pCurr
      WR6         REGSYM    ---      WORD      oldestSn
      WR4         REGSYM    ---      WORD      cmpSn
      R10         REGSYM    ---      BYTE      ret
      00FF6126H   BLOCK     CODE     NEAR LAB  LVL=2
L251 LINKER/LOCATER V4.66.93.0                                                        12/18/2023  14:21:09  PAGE 53


      00FF6126H   LINE      ---      ---       #395
      00FF6140H   LINE      ---      ---       #397
      00FF6156H   LINE      ---      ---       #398
      00FF615AH   LINE      ---      ---       #399
      00FF6161H   LINE      ---      ---       #401
      00FF6172H   LINE      ---      ---       #407
      00FF6174H   LINE      ---      ---       #408
      00FF6177H   LINE      ---      ---       #409
      00FF6180H   LINE      ---      ---       #410
      00FF6187H   LINE      ---      ---       #411
      00FF6187H   LINE      ---      ---       #413
      FFFFFFFFH   STKSYM    ---      WORD      cmp
      ---         BLOCKEND  CODE     ---       LVL=2
      00FF618BH   LINE      ---      ---       #414
      00FF618FH   LINE      ---      ---       #417
      00FF6191H   LINE      ---      ---       #419
      00FF6198H   LINE      ---      ---       #420
      00FF61A5H   LINE      ---      ---       #421
      00FF61A5H   LINE      ---      ---       #423
      00FF61A8H   LINE      ---      ---       #425
      00FF61A8H   LINE      CODE     ---       #425
      ---         BLOCKEND  CODE     ---       LVL=0

      00FF61B5H   BLOCK     CODE     ---       LVL=0
      00FF61C1H   LINE      ---      ---       #437
      00FF61B5H   SYMBOL    CODE     NEAR LAB  ?L?COM002F
      REG=4       REGSYM    ---      ---       qId
      REG=1       REGSYM    ---      ---       PciHdr
      REG=0       REGSYM    ---      ---       retPtr
      00FF61C7H   BLOCK     CODE     NEAR LAB  LVL=1
      00FF61C7H   LINE      ---      ---       #438
      00FF61CBH   LINE      ---      ---       #439
      00FF61D1H   LINE      ---      ---       #442
      00FF61D6H   LINE      ---      ---       #445
      00FF61D9H   LINE      ---      ---       #447
      00FF61DEH   LINE      ---      ---       #450
      00FF61E0H   LINE      ---      ---       #452
      00FF61E2H   LINE      ---      ---       #453
      00FF61F0H   LINE      ---      ---       #455
      00FF61F8H   LINE      ---      ---       #456
      00FF6212H   LINE      ---      ---       #458
      00FF621AH   LINE      ---      ---       #459
      00FF6221H   LINE      ---      ---       #460
      00FF6228H   LINE      ---      ---       #461
      00FF622BH   LINE      ---      ---       #462
      00FF622BH   LINE      ---      ---       #471
      00FF622FH   LINE      ---      ---       #472
      00FF6233H   LINE      ---      ---       #475
      00FF623AH   LINE      ---      ---       #477
      00FF6243H   LINE      ---      ---       #478
      00FF6243H   LINE      ---      ---       #481
      00FF624AH   LINE      ---      ---       #484
      00FF624CH   LINE      ---      ---       #486
      REG=3       REGSYM    ---      ---       pCurr
      0000B5B8H   SYMBOL    EDATA    BYTE      ret
      0000B5B9H   SYMBOL    EDATA    BYTE      sn
      0000B5BAH   SYMBOL    EDATA    BYTE      oldest_sn
      ---         BLOCKEND  CODE     ---       LVL=1
      00FF6259H   LINE      ---      ---       #488
      00FF6259H   LINE      CODE     ---       #488

      00FF625AH   BLOCK     CODE     ---       LVL=0
      00FF625AH   LINE      ---      ---       #498
      R13         REGSYM    ---      BYTE      type
      WR14        REGSYM    ---      WORD      connHdl
L251 LINKER/LOCATER V4.66.93.0                                                        12/18/2023  14:21:09  PAGE 54


      00FF6264H   BLOCK     CODE     NEAR LAB  LVL=1
      00FF6264H   LINE      ---      ---       #506
      00FF6266H   LINE      ---      ---       #508
      00FF626EH   LINE      ---      ---       #509
      00FF6274H   LINE      ---      ---       #510
      00FF6276H   LINE      ---      ---       #513
      FFFFFFFFH   STKSYM    ---      ---       pCurr
      FFFFFFFDH   STKSYM    ---      ---       pPrev
      FFFFFFFBH   STKSYM    ---      ---       pNext
      R12         REGSYM    ---      BYTE      ret
      00FF6278H   BLOCK     CODE     NEAR LAB  LVL=2
      00FF6278H   LINE      ---      ---       #514
      00FF627DH   LINE      ---      ---       #516
      FFFFFFFAH   STKSYM    ---      BYTE      condition
      00FF628EH   BLOCK     CODE     NEAR LAB  LVL=3
      00FF628EH   LINE      ---      ---       #517
      00FF629EH   LINE      ---      ---       #518
      00FF62A5H   LINE      ---      ---       #519
      00FF62B4H   LINE      ---      ---       #520
      00FF62BAH   LINE      ---      ---       #521
      FFFFFFF8H   STKSYM    ---      WORD      cmp
      ---         BLOCKEND  CODE     ---       LVL=3
      00FF62BAH   LINE      ---      ---       #524
      00FF62C2H   LINE      ---      ---       #526
      00FF62CAH   LINE      ---      ---       #530
      00FF62D9H   LINE      ---      ---       #532
      00FF62E4H   LINE      ---      ---       #535
      00FF62EDH   LINE      ---      ---       #537
      00FF62F7H   LINE      ---      ---       #538
      00FF6308H   LINE      ---      ---       #539
      00FF6318H   LINE      ---      ---       #540
      00FF6320H   LINE      ---      ---       #541
      00FF6328H   LINE      ---      ---       #544
      00FF6332H   LINE      ---      ---       #545
      00FF633AH   LINE      ---      ---       #547
      00FF633EH   LINE      ---      ---       #548
      00FF6344H   LINE      ---      ---       #549
      00FF6346H   LINE      ---      ---       #552
      00FF634CH   LINE      ---      ---       #553
      00FF6350H   LINE      ---      ---       #554
      00FF6350H   LINE      ---      ---       #555
      00FF6352H   LINE      ---      ---       #556
      00FF6358H   LINE      ---      ---       #558
      00FF6360H   LINE      ---      ---       #559
      00FF6364H   LINE      ---      ---       #560
      00FF636EH   LINE      ---      ---       #561
      00FF6370H   LINE      ---      ---       #565
      00FF637CH   LINE      ---      ---       #566
      00FF6388H   LINE      ---      ---       #567
      00FF6388H   LINE      ---      ---       #569
      00FF6392H   LINE      ---      ---       #570
      00FF639AH   LINE      ---      ---       #571
      00FF639CH   LINE      ---      ---       #580
      00FF639CH   LINE      ---      ---       #583
      00FF63A4H   LINE      ---      ---       #584
      00FF63ACH   LINE      ---      ---       #585
      00FF63B4H   LINE      ---      ---       #586
      00FF63B4H   LINE      CODE     ---       #586
      ---         BLOCKEND  CODE     ---       LVL=1
      00FF63BEH   LINE      ---      ---       #590
      00FF63C0H   LINE      ---      ---       #592
      00FF63C0H   LINE      CODE     ---       #592

      00FF63C9H   BLOCK     CODE     ---       LVL=0
      00FF63C9H   LINE      ---      ---       #602
L251 LINKER/LOCATER V4.66.93.0                                                        12/18/2023  14:21:09  PAGE 55


      00FF63CDH   LINE      ---      ---       #605
      00FF63CFH   LINE      ---      ---       #607
      00FF63D6H   LINE      ---      ---       #610
      00FF63DCH   LINE      ---      ---       #611
      00FF63E1H   LINE      ---      ---       #612
      00FF63EAH   LINE      ---      ---       #613
      00FF63F2H   LINE      ---      ---       #614
      00FF63F6H   LINE      ---      ---       #615
      00FF63FAH   LINE      ---      ---       #618
      00FF6402H   LINE      ---      ---       #620
      00FF640AH   LINE      ---      ---       #622
      00FF6412H   LINE      ---      ---       #623
      00FF641AH   LINE      ---      ---       #624
      00FF641CH   LINE      ---      ---       #627
      00FF6424H   LINE      ---      ---       #628
      00FF6424H   LINE      ---      ---       #629
      00FF6426H   LINE      ---      ---       #633
      00FF642EH   LINE      ---      ---       #634
      00FF6434H   LINE      ---      ---       #635
      00FF6438H   LINE      ---      ---       #636
      00FF643AH   LINE      ---      ---       #639
      00FF6444H   LINE      ---      ---       #640
      00FF6444H   LINE      ---      ---       #641
      00FF6444H   LINE      ---      ---       #644
      00FF644EH   LINE      ---      ---       #647
      00FF6450H   LINE      ---      ---       #649
      REG=7       REGSYM    ---      ---       delPtr
      ---         BLOCKEND  ---      ---       LVL=0

      00FF6489H   BLOCK     CODE     ---       LVL=0
      00FF6489H   LINE      ---      ---       #658
      00FF648BH   BLOCK     CODE     NEAR LAB  LVL=1
      00FF648BH   LINE      ---      ---       #661
      00FF6491H   LINE      ---      ---       #662
      00FF6495H   LINE      ---      ---       #664
      00FF6497H   LINE      ---      ---       #665
      00FF64A1H   LINE      ---      ---       #666
      00FF64A9H   LINE      ---      ---       #667
      00FF64BAH   LINE      ---      ---       #668
      00FF64C5H   LINE      ---      ---       #669
      00FF64CFH   LINE      ---      ---       #670
      00FF64D9H   LINE      ---      ---       #671
      00FF64E1H   LINE      ---      ---       #673
      00FF64E9H   LINE      ---      ---       #676
      00FF64EFH   LINE      ---      ---       #677
      R15         REGSYM    ---      BYTE      i
      ---         BLOCKEND  CODE     ---       LVL=1
      00FF64F6H   LINE      ---      ---       #678
      00FF64F6H   LINE      CODE     ---       #678
      00FF4969H   LINE      ---      ---       #220
      00FF61B2H   LINE      ---      ---       #427
      00FF63C2H   LINE      ---      ---       #593

      ---         MODULE    ---      ---       common_cmd_hdlr
      00FF4B63H   PUBLIC    CODE     ---       CMN_CmdSys_GetRfbFwVer
      00FF4EBEH   PUBLIC    CODE     ---       CMN_CmdHal_SetAgc
      00FF4DC8H   PUBLIC    CODE     ---       CMN_CmdHal_SetCalibrationEnable
      00FF4F9DH   PUBLIC    CODE     ---       CMN_CmdHal_SetCalibrationSetting
      00FF6503H   PUBLIC    CODE     ---       CMN_CmdHal_SetTxPower
      00FF4CE5H   PUBLIC    CODE     ---       CMN_CmdHal_GetTemperatureRpt
      00FF4E7EH   PUBLIC    CODE     ---       CMN_CmdHal_GetVoltageRpt
      00FF4EA3H   PUBLIC    CODE     ---       CMN_CmdHal_SetRssiOffset
      00FF4E58H   PUBLIC    CODE     ---       CMN_CmdHal_SetTxPwrComp
      00FF4E2DH   PUBLIC    CODE     ---       CMN_CmdHal_SetTxPwrChComp
      00FF4E42H   PUBLIC    CODE     ---       CMN_CmdHal_SetTxPwrChSegment
L251 LINKER/LOCATER V4.66.93.0                                                        12/18/2023  14:21:09  PAGE 56


      00FF4E75H   PUBLIC    CODE     ---       CMN_CmdHal_SetPmuMpkSetting
      00FF6538H   PUBLIC    CODE     ---       CMN_CmdHal_SetTxPowerOqpsk
      00FF4E8AH   PUBLIC    CODE     ---       CMN_CmdHal_SetPmuOpMode
      00FF4F4FH   PUBLIC    CODE     ---       CMN_CmdHal_SetTxPowerBy

      00FF4B63H   BLOCK     CODE     ---       LVL=0
      00FF4B63H   LINE      ---      ---       #24
      00FF4B63H   LINE      ---      ---       #29
      00FF4B63H   LINE      ---      ---       #32
      00FF4B6CH   LINE      ---      ---       #35
      ---         BLOCKEND  ---      ---       LVL=0

      00FF4EBEH   BLOCK     CODE     ---       LVL=0
      00FF4EBEH   LINE      ---      ---       #57
      00FF4EBEH   LINE      ---      ---       #60
      REG=3       REGSYM    ---      ---       pCmdAddress
      00FF4EBEH   BLOCK     CODE     NEAR LAB  LVL=1
      00FF4EBEH   LINE      ---      ---       #69
      00FF4EC0H   LINE      ---      ---       #72
      00FF4ED8H   LINE      ---      ---       #75
      REG=1       REGSYM    ---      ---       pCmdIn
      ---         BLOCKEND  CODE     ---       LVL=1
      ---         BLOCKEND  CODE     ---       LVL=0

      00FF4DC8H   BLOCK     CODE     ---       LVL=0
      00FF4DC8H   LINE      ---      ---       #78
      00FF4DC8H   LINE      ---      ---       #83
      00FF4DC8H   LINE      ---      ---       #86
      00FF4DCEH   LINE      ---      ---       #89
      00FF4DD7H   LINE      ---      ---       #92
      ---         BLOCKEND  ---      ---       LVL=0

      00FF4F9DH   BLOCK     CODE     ---       LVL=0
      00FF4F9DH   LINE      ---      ---       #96
      00FF4F9DH   LINE      ---      ---       #99
      REG=3       REGSYM    ---      ---       pCmdAddress
      00FF4F9DH   BLOCK     CODE     NEAR LAB  LVL=1
      00FF4F9DH   LINE      ---      ---       #108
      00FF4F9FH   LINE      ---      ---       #111
      00FF4FC7H   LINE      ---      ---       #114
      REG=1       REGSYM    ---      ---       pCmdIn
      ---         BLOCKEND  CODE     ---       LVL=1
      ---         BLOCKEND  CODE     ---       LVL=0

      00FF6503H   BLOCK     CODE     ---       LVL=0
      00FF6503H   LINE      ---      ---       #117
      00FF6503H   LINE      ---      ---       #120
      REG=3       REGSYM    ---      ---       pCmdAddress
      00FF6503H   BLOCK     CODE     NEAR LAB  LVL=1
      00FF6503H   LINE      ---      ---       #131
      00FF6505H   LINE      ---      ---       #133
      00FF6511H   LINE      ---      ---       #134
      00FF651AH   LINE      ---      ---       #137
      00FF652EH   LINE      ---      ---       #139
      REG=2       REGSYM    ---      ---       pCmdIn
      R2          REGSYM    ---      BYTE      gainTab
      ---         BLOCKEND  CODE     ---       LVL=1
      ---         BLOCKEND  CODE     ---       LVL=0

      00FF4CE5H   BLOCK     CODE     ---       LVL=0
      00FF4CE5H   LINE      ---      ---       #147
      00FF4CE5H   LINE      ---      ---       #151
      00FF4CE5H   LINE      ---      ---       #152
      00FF4CEEH   LINE      ---      ---       #153
      ---         BLOCKEND  ---      ---       LVL=0
L251 LINKER/LOCATER V4.66.93.0                                                        12/18/2023  14:21:09  PAGE 57



      00FF4E7EH   BLOCK     CODE     ---       LVL=0
      00FF4E7EH   LINE      ---      ---       #156
      00FF4E7EH   LINE      ---      ---       #160
      00FF4E7EH   LINE      ---      ---       #161
      00FF4E87H   LINE      ---      ---       #162
      ---         BLOCKEND  ---      ---       LVL=0

      00FF4EA3H   BLOCK     CODE     ---       LVL=0
      00FF4EA3H   LINE      ---      ---       #165
      00FF4EA3H   LINE      ---      ---       #168
      REG=3       REGSYM    ---      ---       pCmdAddress
      00FF4EA3H   BLOCK     CODE     NEAR LAB  LVL=1
      00FF4EA3H   LINE      ---      ---       #177
      00FF4EA5H   LINE      ---      ---       #180
      00FF4EB5H   LINE      ---      ---       #182
      REG=2       REGSYM    ---      ---       pCmdIn
      ---         BLOCKEND  CODE     ---       LVL=1
      ---         BLOCKEND  CODE     ---       LVL=0

      00FF4E58H   BLOCK     CODE     ---       LVL=0
      00FF4E58H   LINE      ---      ---       #185
      00FF4E58H   LINE      ---      ---       #188
      REG=3       REGSYM    ---      ---       pCmdAddress
      00FF4E58H   BLOCK     CODE     NEAR LAB  LVL=1
      00FF4E58H   LINE      ---      ---       #197
      00FF4E5AH   LINE      ---      ---       #200
      00FF4E6CH   LINE      ---      ---       #203
      REG=2       REGSYM    ---      ---       pCmdIn
      ---         BLOCKEND  CODE     ---       LVL=1
      ---         BLOCKEND  CODE     ---       LVL=0

      00FF4E2DH   BLOCK     CODE     ---       LVL=0
      00FF4E2DH   LINE      ---      ---       #209
      00FF4E2DH   LINE      ---      ---       #212
      REG=3       REGSYM    ---      ---       pCmdAddress
      00FF4E2DH   BLOCK     CODE     NEAR LAB  LVL=1
      00FF4E2DH   LINE      ---      ---       #222
      00FF4E2FH   LINE      ---      ---       #225
      00FF4E39H   LINE      ---      ---       #230
      REG=2       REGSYM    ---      ---       pCmdIn
      ---         BLOCKEND  CODE     ---       LVL=1
      ---         BLOCKEND  CODE     ---       LVL=0

      00FF4E42H   BLOCK     CODE     ---       LVL=0
      00FF4E42H   LINE      ---      ---       #233
      00FF4E42H   LINE      ---      ---       #236
      REG=3       REGSYM    ---      ---       pCmdAddress
      00FF4E42H   BLOCK     CODE     NEAR LAB  LVL=1
      00FF4E42H   LINE      ---      ---       #246
      00FF4E44H   LINE      ---      ---       #249
      00FF4E4FH   LINE      ---      ---       #254
      REG=2       REGSYM    ---      ---       pCmdIn
      ---         BLOCKEND  CODE     ---       LVL=1
      ---         BLOCKEND  CODE     ---       LVL=0

      00FF4E75H   BLOCK     CODE     ---       LVL=0
      00FF4E75H   LINE      ---      ---       #258
      00FF4E75H   LINE      ---      ---       #274
      00FF4E75H   LINE      ---      ---       #277
      ---         BLOCKEND  ---      ---       LVL=0

      00FF6538H   BLOCK     CODE     ---       LVL=0
      00FF6538H   LINE      ---      ---       #281
      00FF6538H   LINE      ---      ---       #284
L251 LINKER/LOCATER V4.66.93.0                                                        12/18/2023  14:21:09  PAGE 58


      REG=3       REGSYM    ---      ---       pCmdAddress
      00FF6538H   BLOCK     CODE     NEAR LAB  LVL=1
      00FF6538H   LINE      ---      ---       #295
      00FF653AH   LINE      ---      ---       #297
      00FF6546H   LINE      ---      ---       #298
      00FF654FH   LINE      ---      ---       #301
      00FF6565H   LINE      ---      ---       #303
      REG=2       REGSYM    ---      ---       pCmdIn
      R2          REGSYM    ---      BYTE      gainTab
      ---         BLOCKEND  CODE     ---       LVL=1
      ---         BLOCKEND  CODE     ---       LVL=0

      00FF4E8AH   BLOCK     CODE     ---       LVL=0
      00FF4E8AH   LINE      ---      ---       #311
      00FF4E8AH   LINE      ---      ---       #314
      REG=3       REGSYM    ---      ---       pCmdAddress
      00FF4E8AH   BLOCK     CODE     NEAR LAB  LVL=1
      00FF4E8AH   LINE      ---      ---       #318
      00FF4E8AH   LINE      ---      ---       #321
      00FF4E92H   LINE      ---      ---       #322
      00FF4E9AH   LINE      ---      ---       #324
      REG=3       REGSYM    ---      ---       pCmdIn
      ---         BLOCKEND  CODE     ---       LVL=1
      ---         BLOCKEND  CODE     ---       LVL=0

      00FF4F4FH   BLOCK     CODE     ---       LVL=0
      00FF4F4FH   LINE      ---      ---       #327
      00FF4F4FH   LINE      ---      ---       #330
      REG=3       REGSYM    ---      ---       pCmdAddress
      00FF4F4FH   BLOCK     CODE     NEAR LAB  LVL=1
      00FF4F4FH   LINE      ---      ---       #340
      00FF4F51H   LINE      ---      ---       #343
      00FF4F6BH   LINE      ---      ---       #345
      REG=1       REGSYM    ---      ---       pCmdIn
      ---         BLOCKEND  CODE     ---       LVL=1
      ---         BLOCKEND  CODE     ---       LVL=0

      ---         MODULE    ---      ---       common_event_gen
      00FF4C9EH   PUBLIC    CODE     ---       CMD_CnfEventSend
      00FF4B6EH   PUBLIC    CODE     ---       CMN_GetFwVerEventSend
      00FF4DD9H   PUBLIC    CODE     ---       CMN_SetCalibrationEnableEventSend
      00FF4CF0H   PUBLIC    CODE     ---       CMN_GetTemperatureRptEventSend
      00FF475AH   PUBLIC    CODE     ---       CMN_GetVoltageRptEventSend

      00FF4C9EH   BLOCK     CODE     ---       LVL=0
      00FF4C9EH   LINE      ---      ---       #18
      00FF4CA6H   LINE      ---      ---       #23
      R13         REGSYM    ---      BYTE      cmdHeader
      R14         REGSYM    ---      BYTE      cmdSubheader
      R15         REGSYM    ---      BYTE      cmdCnfStatus
      00FF4CA6H   BLOCK     CODE     NEAR LAB  LVL=1
      00FF4CA6H   LINE      ---      ---       #25
      00FF4CABH   LINE      ---      ---       #26
      00FF4CAEH   LINE      ---      ---       #28
      00FF4CB8H   LINE      ---      ---       #29
      00FF4CBDH   LINE      ---      ---       #30
      00FF4CC3H   LINE      ---      ---       #31
      00FF4CC9H   LINE      ---      ---       #32
      00FF4CCDH   LINE      ---      ---       #33
      00FF4CD1H   LINE      ---      ---       #34
      00FF4CD5H   LINE      ---      ---       #40
      REG=3       REGSYM    ---      ---       pEventPayload
      R12         REGSYM    ---      BYTE      qIdx
      ---         BLOCKEND  CODE     ---       LVL=1
      00FF4CE2H   LINE      ---      ---       #41
L251 LINKER/LOCATER V4.66.93.0                                                        12/18/2023  14:21:09  PAGE 59


      00FF4CE2H   LINE      CODE     ---       #41

      00FF4B6EH   BLOCK     CODE     ---       LVL=0
      00FF4B6EH   LINE      ---      ---       #44
      00FF4B70H   LINE      ---      ---       #45
      00FF4B70H   BLOCK     CODE     NEAR LAB  LVL=1
      00FF4B70H   LINE      ---      ---       #47
      00FF4B73H   LINE      ---      ---       #50
      00FF4B7DH   LINE      ---      ---       #51
      00FF4B82H   LINE      ---      ---       #52
      00FF4B88H   LINE      ---      ---       #53
      00FF4B8EH   LINE      ---      ---       #54
      00FF4B9AH   LINE      ---      ---       #55
      00FF4BA0H   LINE      ---      ---       #56
      00FF4BA6H   LINE      ---      ---       #58
      00FF4BACH   LINE      ---      ---       #62
      00FF4BB8H   LINE      ---      ---       #64
      00FF4BD1H   LINE      ---      ---       #66
      REG=3       REGSYM    ---      ---       pEventPayload
      R15         REGSYM    ---      BYTE      qIdx
      ---         BLOCKEND  CODE     ---       LVL=1
      00FF4BDEH   LINE      ---      ---       #67
      00FF4BDEH   LINE      CODE     ---       #67

      00FF4DD9H   BLOCK     CODE     ---       LVL=0
      00FF4DD9H   LINE      ---      ---       #70
      00FF4DDBH   LINE      ---      ---       #71
      00FF4DDBH   BLOCK     CODE     NEAR LAB  LVL=1
      00FF4DDBH   LINE      ---      ---       #73
      00FF4DDEH   LINE      ---      ---       #76
      00FF4DE8H   LINE      ---      ---       #77
      00FF4DEDH   LINE      ---      ---       #78
      00FF4DF3H   LINE      ---      ---       #79
      00FF4DF9H   LINE      ---      ---       #80
      00FF4E1DH   LINE      ---      ---       #86
      REG=3       REGSYM    ---      ---       pEventPayload
      R15         REGSYM    ---      BYTE      qIdx
      ---         BLOCKEND  CODE     ---       LVL=1
      00FF4E2AH   LINE      ---      ---       #87
      00FF4E2AH   LINE      CODE     ---       #87

      00FF4CF0H   BLOCK     CODE     ---       LVL=0
      00FF4CF0H   LINE      ---      ---       #90
      00FF4CF4H   LINE      ---      ---       #91
      00FF4CF4H   BLOCK     CODE     NEAR LAB  LVL=1
      00FF4CF4H   LINE      ---      ---       #93
      00FF4CF9H   LINE      ---      ---       #96
      00FF4D03H   LINE      ---      ---       #97
      00FF4D08H   LINE      ---      ---       #98
      00FF4D0EH   LINE      ---      ---       #99
      00FF4D14H   LINE      ---      ---       #100
      00FF4D21H   LINE      ---      ---       #102
      00FF4D3CH   LINE      ---      ---       #104
      REG=6       REGSYM    ---      ---       pEventPayload
      R15         REGSYM    ---      BYTE      qIdx
      ---         BLOCKEND  CODE     ---       LVL=1
      00FF4D49H   LINE      ---      ---       #106
      00FF4D49H   LINE      CODE     ---       #106

      00FF475AH   BLOCK     CODE     ---       LVL=0
      00FF475AH   LINE      ---      ---       #108
      00FF475EH   LINE      ---      ---       #109
      00FF475EH   BLOCK     CODE     NEAR LAB  LVL=1
      00FF475EH   LINE      ---      ---       #111
      00FF4763H   LINE      ---      ---       #114
L251 LINKER/LOCATER V4.66.93.0                                                        12/18/2023  14:21:09  PAGE 60


      00FF476DH   LINE      ---      ---       #115
      00FF4772H   LINE      ---      ---       #116
      00FF4778H   LINE      ---      ---       #117
      00FF477CH   LINE      ---      ---       #118
      00FF4789H   LINE      ---      ---       #120
      00FF47A3H   LINE      ---      ---       #122
      REG=6       REGSYM    ---      ---       pEventPayload
      R15         REGSYM    ---      BYTE      qIdx
      ---         BLOCKEND  CODE     ---       LVL=1
      00FF47AFH   LINE      ---      ---       #124
      00FF47AFH   LINE      CODE     ---       #124

      ---         MODULE    ---      ---       common_feature

      ---         MODULE    ---      ---       bmu
      00FF656FH   PUBLIC    CODE     ---       BMU_MemAllocate
      00FF66E6H   PUBLIC    CODE     ---       BMU_HwReset
      00FF6773H   PUBLIC    CODE     ---       BMU_HwInit
      00FF6817H   PUBLIC    CODE     ---       BMU_FreqFlowCtrlSet

      00FF656FH   BLOCK     CODE     ---       LVL=0
      00FF656FH   LINE      ---      ---       #24
      00FF6575H   LINE      ---      ---       #27
      WR14        REGSYM    ---      INT       rxqOpMode
      00FF6575H   BLOCK     CODE     NEAR LAB  LVL=1
      00FF6575H   LINE      ---      ---       #33
      00FF6577H   LINE      ---      ---       #47
      00FF657BH   LINE      ---      ---       #48
      00FF6581H   LINE      ---      ---       #51
      00FF6589H   LINE      ---      ---       #54
      00FF658DH   LINE      ---      ---       #57
      00FF65A5H   LINE      ---      ---       #72
      00FF65AEH   LINE      ---      ---       #73
      00FF65B6H   LINE      ---      ---       #77
      00FF65B6H   LINE      ---      ---       #83
      00FF65C1H   LINE      ---      ---       #84
      00FF65CBH   LINE      ---      ---       #90
      00FF65D2H   LINE      ---      ---       #91
      00FF65D8H   LINE      ---      ---       #94
      00FF65DFH   LINE      ---      ---       #95
      00FF65E5H   LINE      ---      ---       #98
      00FF65ECH   LINE      ---      ---       #99
      00FF65F0H   LINE      ---      ---       #103
      00FF65FBH   LINE      ---      ---       #104
      00FF65FDH   LINE      ---      ---       #109
      00FF65FDH   LINE      ---      ---       #110
      00FF6607H   LINE      ---      ---       #113
      00FF660EH   LINE      ---      ---       #114
      00FF6614H   LINE      ---      ---       #117
      00FF661BH   LINE      ---      ---       #118
      00FF6621H   LINE      ---      ---       #121
      00FF6628H   LINE      ---      ---       #123
      00FF662EH   LINE      ---      ---       #127
      00FF6633H   LINE      ---      ---       #128
      00FF6636H   LINE      ---      ---       #133
      R13         REGSYM    ---      BYTE      pageIdx
      0000B585H   SYMBOL    EDATA    ---       pMemSize
      REG=3       REGSYM    ---      ---       pRegX51
      ---         BLOCKEND  CODE     ---       LVL=1
      00FF6636H   LINE      ---      ---       #134
      00FF6636H   LINE      CODE     ---       #134

      00FF6817H   BLOCK     CODE     ---       LVL=0
      00FF6817H   LINE      ---      ---       #136
      00FF6817H   LINE      ---      ---       #187
L251 LINKER/LOCATER V4.66.93.0                                                        12/18/2023  14:21:09  PAGE 61


      00FF681BH   LINE      ---      ---       #189
      00FF682AH   LINE      ---      ---       #190
      00FF6835H   LINE      ---      ---       #191
      00FF6839H   LINE      ---      ---       #192
      00FF683BH   LINE      ---      ---       #196
      00FF684AH   LINE      ---      ---       #197
      00FF6855H   LINE      ---      ---       #198
      00FF6860H   LINE      ---      ---       #199
      00FF6860H   LINE      ---      ---       #201
      WR6         REGSYM    ---      INT       rxqOpMode
      ---         BLOCKEND  ---      ---       LVL=0

      00FF66E6H   BLOCK     CODE     ---       LVL=0
      00FF66E6H   LINE      ---      ---       #206
      00FF66E8H   LINE      ---      ---       #209
      R10         REGSYM    ---      BYTE      bForcedReset
      00FF66E8H   BLOCK     CODE     NEAR LAB  LVL=1
      00FF66E8H   LINE      ---      ---       #213
      00FF66F4H   LINE      ---      ---       #216
      00FF66F8H   LINE      ---      ---       #218
      00FF66FAH   LINE      ---      ---       #219
      00FF66FAH   LINE      ---      ---       #220
      00FF670BH   LINE      ---      ---       #221
      00FF6719H   LINE      ---      ---       #222
      00FF6723H   LINE      ---      ---       #223
      00FF672BH   LINE      ---      ---       #224
      00FF672DH   LINE      ---      ---       #225
      00FF6739H   LINE      ---      ---       #227
      00FF673FH   LINE      ---      ---       #228
      00FF6741H   LINE      ---      ---       #229
      00FF6741H   LINE      ---      ---       #232
      00FF674AH   LINE      ---      ---       #235
      00FF674CH   LINE      ---      ---       #236
      00FF674CH   LINE      ---      ---       #237
      00FF675AH   LINE      ---      ---       #238
      00FF675CH   LINE      ---      ---       #239
      00FF6768H   LINE      ---      ---       #241
      00FF676EH   LINE      ---      ---       #242
      00FF6770H   LINE      ---      ---       #244
      DR28        REGSYM    ---      DWORD     temp
      DR24        REGSYM    ---      DWORD     busyCount
      ---         BLOCKEND  CODE     ---       LVL=1
      00FF6772H   LINE      ---      ---       #245
      00FF6772H   LINE      CODE     ---       #245

      00FF6773H   BLOCK     CODE     ---       LVL=0
      00FF6773H   LINE      ---      ---       #247
      00FF6783H   LINE      ---      ---       #266
      00FF678FH   LINE      ---      ---       #269
      00FF6797H   LINE      ---      ---       #272
      00FF679DH   LINE      ---      ---       #273
      00FF67A0H   LINE      ---      ---       #277
      00FF67A3H   LINE      ---      ---       #281
      00FF67A8H   LINE      ---      ---       #284
      00FF67C3H   LINE      ---      ---       #285
      00FF67DBH   LINE      ---      ---       #286
      00FF67E2H   LINE      ---      ---       #287
      00FF67E9H   LINE      ---      ---       #291
      00FF67F8H   LINE      ---      ---       #292
      00FF6803H   LINE      ---      ---       #300
      00FF6814H   LINE      ---      ---       #301
      0000B5CAH   SYMBOL    EDATA    BYTE      bTxAutoClear
      0000B5CBH   SYMBOL    EDATA    BYTE      bRxAutoCommit
      R12         REGSYM    ---      BYTE      txControlInfoSize
      R13         REGSYM    ---      BYTE      rxControlInfoSize
L251 LINKER/LOCATER V4.66.93.0                                                        12/18/2023  14:21:09  PAGE 62


      WR14        REGSYM    ---      INT       rxqOpMode
      ---         BLOCKEND  ---      ---       LVL=0

      ---         MODULE    ---      ---       bmu_cmd
      00FF6861H   PUBLIC    CODE     ---       BMU_H2MCmdGet
      00FF68D9H   PUBLIC    CODE     ---       BMU_M2HCmdSet

      00FF6861H   BLOCK     CODE     ---       LVL=0
      00FF6861H   LINE      ---      ---       #23
      00FF6867H   LINE      ---      ---       #27
      REG=4       REGSYM    ---      ---       pDataAddress
      REG=7       REGSYM    ---      ---       pDataLength
      00FF6867H   BLOCK     CODE     NEAR LAB  LVL=1
      00FF6867H   LINE      ---      ---       #34
      00FF686DH   LINE      ---      ---       #37
      00FF6877H   LINE      ---      ---       #38
      00FF687AH   LINE      ---      ---       #41
      00FF688AH   LINE      ---      ---       #42
      00FF6895H   LINE      ---      ---       #47
      00FF6897H   LINE      ---      ---       #48
      00FF689EH   LINE      ---      ---       #50
      00FF68A3H   LINE      ---      ---       #51
      00FF68A5H   LINE      ---      ---       #52
      00FF68A5H   LINE      ---      ---       #55
      00FF68BFH   LINE      ---      ---       #56
      00FF68C6H   LINE      ---      ---       #57
      00FF68C9H   LINE      ---      ---       #60
      00FF68D2H   LINE      ---      ---       #62
      WR12        REGSYM    ---      WORD      bufferLength
      WR10        REGSYM    ---      WORD      tempBufferLength
      WR4         REGSYM    ---      WORD      bufferAddress
      REG=2       REGSYM    ---      ---       pBufferAddress
      0000B5E6H   SYMBOL    EDATA    BYTE      bRetValue
      ---         BLOCKEND  CODE     ---       LVL=1
      00FF68D6H   LINE      ---      ---       #63
      00FF68D6H   LINE      CODE     ---       #63

      00FF68D9H   BLOCK     CODE     ---       LVL=0
      00FF68D9H   LINE      ---      ---       #65
      00FF68DFH   LINE      ---      ---       #69
      REG=4       REGSYM    ---      ---       pDataAddress
      WR14        REGSYM    ---      WORD      dataLength
      00FF68DFH   BLOCK     CODE     NEAR LAB  LVL=1
      00FF68DFH   LINE      ---      ---       #74
      00FF68E9H   LINE      ---      ---       #75
      00FF68ECH   LINE      ---      ---       #78
      00FF6906H   LINE      ---      ---       #79
      00FF6909H   LINE      ---      ---       #82
      00FF6912H   LINE      ---      ---       #85
      00FF692AH   LINE      ---      ---       #86
      00FF6931H   LINE      ---      ---       #89
      00FF693CH   LINE      ---      ---       #90
      00FF6945H   LINE      ---      ---       #93
      00FF6951H   LINE      ---      ---       #94
      00FF695AH   LINE      ---      ---       #96
      WR4         REGSYM    ---      WORD      bufferAddress
      REG=3       REGSYM    ---      ---       pBufferAddress
      ---         BLOCKEND  CODE     ---       LVL=1
      00FF695AH   LINE      ---      ---       #97
      00FF695AH   LINE      CODE     ---       #97

      ---         MODULE    ---      ---       bmu_common
      00FF695DH   PUBLIC    CODE     ---       BMU_TrxQueueGet
      00FF706DH   PUBLIC    CODE     ---       BMU_TrxQueueSet
      00FF134FH   PUBLIC    HCONST   ---       bmuMemSizeHwRxq
L251 LINKER/LOCATER V4.66.93.0                                                        12/18/2023  14:21:09  PAGE 63


      00FF1357H   PUBLIC    HCONST   ---       bmuMemSizeHwSwRxq
      0000B5CCH   PUBLIC    EDATA    ---       sBmuCtrlPara

      00FF695DH   BLOCK     CODE     ---       LVL=0
      00FF695DH   LINE      ---      ---       #110
      00FF6963H   LINE      ---      ---       #116
      WR10        REGSYM    ---      WORD      length
      WR4         REGSYM    ---      WORD      offset
      WR2         REGSYM    ---      WORD      address
      REG=4       REGSYM    ---      ---       pData
      00FF6963H   BLOCK     CODE     NEAR LAB  LVL=1
      00FF6963H   LINE      ---      ---       #129
      00FF6971H   LINE      ---      ---       #130
      00FF697BH   LINE      ---      ---       #131
      00FF6991H   LINE      ---      ---       #134
      00FF6995H   LINE      ---      ---       #135
      00FF699DH   LINE      ---      ---       #136
      00FF69C4H   LINE      ---      ---       #139
      00FF69C8H   LINE      ---      ---       #140
      00FF69CCH   LINE      ---      ---       #141
      00FF69CEH   LINE      ---      ---       #144
      00FF69F2H   LINE      ---      ---       #145
      00FF6A00H   LINE      ---      ---       #146
      00FF6A12H   LINE      ---      ---       #148
      00FF6A1FH   LINE      ---      ---       #151
      00FF6A31H   LINE      ---      ---       #152
      00FF6A35H   LINE      ---      ---       #155
      00FF6A4CH   LINE      ---      ---       #158
      00FF6A52H   LINE      ---      ---       #159
      0000B4B4H   SYMBOL    EDATA    ---       pInput
      0000B4B6H   SYMBOL    EDATA    ---       pOutput
      WR0         REGSYM    ---      WORD      startPage
      0000B4B8H   SYMBOL    EDATA    WORD      startOffset
      0000B4BAH   SYMBOL    EDATA    WORD      pageNum
      DR12        REGSYM    ---      DWORD     tempLength
      0000B4BCH   SYMBOL    EDATA    WORD      tempAddress
      0000B4BEH   SYMBOL    EDATA    WORD      loopIdx
      ---         BLOCKEND  CODE     ---       LVL=1
      00FF6A68H   LINE      ---      ---       #160
      00FF6A68H   LINE      CODE     ---       #160

      00FF706DH   BLOCK     CODE     ---       LVL=0
      00FF706DH   LINE      ---      ---       #162
      00FF7073H   LINE      ---      ---       #168
      WR10        REGSYM    ---      WORD      length
      WR4         REGSYM    ---      WORD      offset
      WR2         REGSYM    ---      WORD      address
      REG=4       REGSYM    ---      ---       pData
      00FF7073H   BLOCK     CODE     NEAR LAB  LVL=1
      00FF7073H   LINE      ---      ---       #181
      00FF7081H   LINE      ---      ---       #182
      00FF708BH   LINE      ---      ---       #183
      00FF70A1H   LINE      ---      ---       #186
      00FF70A5H   LINE      ---      ---       #187
      00FF70ADH   LINE      ---      ---       #188
      00FF70D4H   LINE      ---      ---       #191
      00FF70D8H   LINE      ---      ---       #192
      00FF70DCH   LINE      ---      ---       #193
      00FF70DEH   LINE      ---      ---       #196
      00FF7102H   LINE      ---      ---       #197
      00FF7110H   LINE      ---      ---       #198
      00FF7122H   LINE      ---      ---       #200
      00FF712FH   LINE      ---      ---       #203
      00FF7141H   LINE      ---      ---       #204
      00FF7145H   LINE      ---      ---       #207
L251 LINKER/LOCATER V4.66.93.0                                                        12/18/2023  14:21:09  PAGE 64


      00FF715CH   LINE      ---      ---       #210
      00FF7162H   LINE      ---      ---       #211
      0000B4C0H   SYMBOL    EDATA    ---       pInput
      0000B4C2H   SYMBOL    EDATA    ---       pOutput
      0000B4C4H   SYMBOL    EDATA    WORD      tempAddress
      DR12        REGSYM    ---      DWORD     tempLength
      WR0         REGSYM    ---      WORD      startPage
      0000B4C6H   SYMBOL    EDATA    WORD      startOffset
      0000B4C8H   SYMBOL    EDATA    WORD      pageNum
      0000B4CAH   SYMBOL    EDATA    WORD      loopIdx
      ---         BLOCKEND  CODE     ---       LVL=1
      00FF7178H   LINE      ---      ---       #212
      00FF7178H   LINE      CODE     ---       #212

      ---         MODULE    ---      ---       bmu_rx
      00FF7311H   PUBLIC    CODE     ---       BMU_LocalRxqStartAddGet
      00FF7333H   PUBLIC    CODE     ---       BMU_RxqStartAddGet
      00FF2E3CH   PUBLIC    CODE     ---       BMU_RxConfig
      00FF6FF5H   PUBLIC    CODE     ---       BMU_LocalRxQueueGet
      00FF663BH   PUBLIC    CODE     ---       BMU_LrxHwBufConfig
      00FF7355H   PUBLIC    CODE     ---       BMU_LrxHwBufStatusUpdate
      00FF735AH   PUBLIC    CODE     ---       BMU_LrxHwBufSet
      00FF77D0H   PUBLIC    CODE     ---       BMU_LrxHwRxDoneBufGet
      00FF6663H   PUBLIC    CODE     ---       BMU_LrxShareQConfig
      00FF6B8AH   PUBLIC    CODE     ---       BMU_LrxShareQWoGet
      00FF6BB8H   PUBLIC    CODE     ---       BMU_LrxShareQWoUpdate
      00FF77EFH   PUBLIC    CODE     ---       BMU_LrxShareQIsFull
      00FF6A6BH   PUBLIC    CODE     ---       BMU_RxQueueGet
      00FF717BH   PUBLIC    CODE     ---       BMU_RxQueueSet
      0000B51DH   PUBLIC    EDATA    ---       bmuLrxSwqCtrl
      0000B522H   PUBLIC    EDATA    BYTE      bmuLrxManualCfg
      0000B523H   PUBLIC    EDATA    ---       pBmuLrxShareQCtrl

      00FF7311H   BLOCK     CODE     ---       LVL=0
      00FF7311H   LINE      ---      ---       #36
      00FF7311H   LINE      ---      ---       #38
      00FF7332H   LINE      ---      ---       #39
      ---         BLOCKEND  ---      ---       LVL=0

      00FF7333H   BLOCK     CODE     ---       LVL=0
      00FF7333H   LINE      ---      ---       #41
      00FF7333H   LINE      ---      ---       #43
      00FF7354H   LINE      ---      ---       #44
      ---         BLOCKEND  ---      ---       LVL=0

      00FF2E3CH   BLOCK     CODE     ---       LVL=0
      00FF2E3CH   LINE      ---      ---       #47
      00FF2E40H   LINE      ---      ---       #50
      WR6         REGSYM    ---      INT       queueType
      00FF2E40H   BLOCK     CODE     NEAR LAB  LVL=1
      00FF2E40H   LINE      ---      ---       #55
      00FF2E43H   LINE      ---      ---       #56
      00FF2E4BH   LINE      ---      ---       #58
      00FF2E4BH   LINE      ---      ---       #61
      00FF2E57H   LINE      ---      ---       #62
      00FF2E59H   LINE      ---      ---       #64
      00FF2E5BH   LINE      ---      ---       #65
      00FF2E5BH   LINE      ---      ---       #68
      00FF2E79H   LINE      ---      ---       #69
      00FF2EA7H   LINE      ---      ---       #72
      00FF2EABH   LINE      ---      ---       #73
      00FF2EB7H   LINE      ---      ---       #74
      00FF2EBCH   LINE      ---      ---       #75
      00FF2EBEH   LINE      ---      ---       #76
      00FF2EBEH   LINE      ---      ---       #77
L251 LINKER/LOCATER V4.66.93.0                                                        12/18/2023  14:21:09  PAGE 65


      00FF2EC0H   LINE      ---      ---       #78
      00FF2EC0H   LINE      ---      ---       #80
      R13         REGSYM    ---      BYTE      bRetValue
      WR14        REGSYM    ---      WORD      rxMaxLen
      ---         BLOCKEND  CODE     ---       LVL=1
      00FF2EC2H   LINE      ---      ---       #98
      00FF2EC2H   LINE      CODE     ---       #98

      00FF6FF5H   BLOCK     CODE     ---       LVL=0
      00FF6FF5H   LINE      ---      ---       #100
      00FF6FFBH   LINE      ---      ---       #105
      WR30        REGSYM    ---      WORD      length
      WR8         REGSYM    ---      WORD      offset
      REG=14      REGSYM    ---      ---       pData
      00FF6FFBH   BLOCK     CODE     NEAR LAB  LVL=1
      00FF6FFBH   LINE      ---      ---       #112
      00FF7005H   LINE      ---      ---       #113
      00FF7007H   LINE      ---      ---       #116
      00FF7015H   LINE      ---      ---       #117
      00FF701EH   LINE      ---      ---       #120
      00FF7028H   LINE      ---      ---       #121
      00FF7030H   LINE      ---      ---       #123
      00FF7034H   LINE      ---      ---       #124
      00FF7038H   LINE      ---      ---       #126
      00FF703EH   LINE      ---      ---       #127
      00FF7040H   LINE      ---      ---       #129
      00FF7042H   LINE      ---      ---       #132
      00FF7048H   LINE      ---      ---       #133
      00FF704BH   LINE      ---      ---       #136
      00FF7065H   LINE      ---      ---       #137
      00FF706AH   LINE      ---      ---       #139
      WR4         REGSYM    ---      WORD      bufferLength
      WR6         REGSYM    ---      WORD      bufferAddress
      DR0         REGSYM    ---      DWORD     tempLength
      REG=2       REGSYM    ---      ---       pBufferAddress
      ---         BLOCKEND  CODE     ---       LVL=1
      00FF706CH   LINE      ---      ---       #140
      00FF706CH   LINE      CODE     ---       #140

      00FF6A6BH   BLOCK     CODE     ---       LVL=0
      00FF6A6BH   LINE      ---      ---       #180
      00FF6A71H   LINE      ---      ---       #185
      WR30        REGSYM    ---      WORD      length
      WR8         REGSYM    ---      WORD      offset
      REG=14      REGSYM    ---      ---       pData
      00FF6A71H   BLOCK     CODE     NEAR LAB  LVL=1
      00FF6A71H   LINE      ---      ---       #191
      00FF6A7BH   LINE      ---      ---       #192
      00FF6A7DH   LINE      ---      ---       #195
      00FF6A86H   LINE      ---      ---       #196
      00FF6A97H   LINE      ---      ---       #199
      00FF6AA1H   LINE      ---      ---       #200
      00FF6AA9H   LINE      ---      ---       #202
      00FF6AADH   LINE      ---      ---       #203
      00FF6AB1H   LINE      ---      ---       #205
      00FF6AB7H   LINE      ---      ---       #206
      00FF6AB9H   LINE      ---      ---       #208
      00FF6ABBH   LINE      ---      ---       #211
      00FF6AC1H   LINE      ---      ---       #212
      00FF6AC4H   LINE      ---      ---       #215
      00FF6ACAH   LINE      ---      ---       #217
      WR0         REGSYM    ---      WORD      bufferLength
      WR2         REGSYM    ---      WORD      bufferAddress
      DR4         REGSYM    ---      DWORD     tempLength
      ---         BLOCKEND  CODE     ---       LVL=1
L251 LINKER/LOCATER V4.66.93.0                                                        12/18/2023  14:21:09  PAGE 66


      00FF6ACCH   LINE      ---      ---       #218
      00FF6ACCH   LINE      CODE     ---       #218

      00FF717BH   BLOCK     CODE     ---       LVL=0
      00FF717BH   LINE      ---      ---       #220
      00FF7181H   LINE      ---      ---       #225
      WR8         REGSYM    ---      WORD      length
      WR30        REGSYM    ---      WORD      offset
      REG=14      REGSYM    ---      ---       pData
      00FF7181H   BLOCK     CODE     NEAR LAB  LVL=1
      00FF7181H   LINE      ---      ---       #231
      00FF718BH   LINE      ---      ---       #232
      00FF718DH   LINE      ---      ---       #235
      00FF7196H   LINE      ---      ---       #236
      00FF71A4H   LINE      ---      ---       #239
      00FF71AEH   LINE      ---      ---       #240
      00FF71B4H   LINE      ---      ---       #241
      00FF71B6H   LINE      ---      ---       #244
      00FF71BAH   LINE      ---      ---       #245
      00FF71BDH   LINE      ---      ---       #248
      00FF71C5H   LINE      ---      ---       #250
      WR6         REGSYM    ---      WORD      bufferLength
      WR2         REGSYM    ---      WORD      bufferAddress
      DR24        REGSYM    ---      DWORD     tempLength
      ---         BLOCKEND  CODE     ---       LVL=1
      00FF71C7H   LINE      ---      ---       #251
      00FF71C7H   LINE      CODE     ---       #251

      00FF663BH   BLOCK     CODE     ---       LVL=0
      00FF663BH   LINE      ---      ---       #255
      00FF6641H   LINE      ---      ---       #262
      00FF6645H   LINE      ---      ---       #263
      00FF6649H   LINE      ---      ---       #264
      00FF664EH   LINE      ---      ---       #269
      00FF6658H   LINE      ---      ---       #270
      00FF6660H   LINE      ---      ---       #273
      00FF6662H   LINE      ---      ---       #274
      R7          REGSYM    ---      BYTE      hwPageIdx
      R10         REGSYM    ---      BYTE      hwPageSize
      R3          REGSYM    ---      BYTE      lrxTotalPageSize
      ---         BLOCKEND  ---      ---       LVL=0

      00FF7355H   BLOCK     CODE     ---       LVL=0
      00FF7355H   LINE      ---      ---       #276
      00FF7355H   LINE      ---      ---       #283
      ---         BLOCKEND  ---      ---       LVL=0

      00FF735AH   BLOCK     CODE     ---       LVL=0
      00FF735AH   LINE      ---      ---       #285
      00FF735AH   LINE      ---      ---       #297
      00FF7365H   LINE      ---      ---       #299
      ---         BLOCKEND  ---      ---       LVL=0

      00FF77D0H   BLOCK     CODE     ---       LVL=0
      00FF77D0H   LINE      ---      ---       #301
      00FF77D0H   LINE      ---      ---       #304
      00FF77D0H   BLOCK     CODE     NEAR LAB  LVL=1
      00FF77D0H   LINE      ---      ---       #310
      00FF77D6H   LINE      ---      ---       #313
      WR4         REGSYM    ---      WORD      prevHwWritePageIdx
      ---         BLOCKEND  CODE     ---       LVL=1
      00FF77EEH   LINE      ---      ---       #314
      00FF77EEH   LINE      CODE     ---       #314

      00FF6663H   BLOCK     CODE     ---       LVL=0
L251 LINKER/LOCATER V4.66.93.0                                                        12/18/2023  14:21:09  PAGE 67


      00FF6663H   LINE      ---      ---       #317
      00FF6663H   LINE      ---      ---       #321
      00FF6669H   LINE      ---      ---       #323
      00FF666CH   LINE      ---      ---       #324
      00FF666CH   LINE      ---      ---       #326
      00FF6678H   LINE      ---      ---       #328
      00FF6683H   LINE      ---      ---       #329
      00FF668CH   LINE      ---      ---       #330
      00FF6694H   LINE      ---      ---       #331
      00FF669BH   LINE      ---      ---       #333
      00FF66C8H   LINE      ---      ---       #336
      00FF66E3H   LINE      ---      ---       #338
      00FF66E5H   LINE      ---      ---       #339
      ---         BLOCKEND  ---      ---       LVL=0

      00FF6B8AH   BLOCK     CODE     ---       LVL=0
      00FF6B8AH   LINE      ---      ---       #342
      00FF6B8AH   LINE      ---      ---       #345
      00FF6B8AH   BLOCK     CODE     NEAR LAB  LVL=1
      00FF6B8AH   LINE      ---      ---       #350
      00FF6BB7H   LINE      ---      ---       #352
      REG=3       REGSYM    ---      ---       woAddr
      ---         BLOCKEND  CODE     ---       LVL=1
      00FF6BB7H   LINE      ---      ---       #353
      00FF6BB7H   LINE      CODE     ---       #353

      00FF6BB8H   BLOCK     CODE     ---       LVL=0
      00FF6BB8H   LINE      ---      ---       #356
      00FF6BB8H   LINE      ---      ---       #360
      00FF6BBDH   LINE      ---      ---       #362
      00FF6BBDH   LINE      ---      ---       #363
      00FF6BBDH   LINE      ---      ---       #365
      00FF6BD2H   LINE      ---      ---       #366
      ---         BLOCKEND  ---      ---       LVL=0

      00FF77EFH   BLOCK     CODE     ---       LVL=0
      00FF77EFH   LINE      ---      ---       #370
      00FF77EFH   LINE      ---      ---       #373
      00FF77EFH   BLOCK     CODE     NEAR LAB  LVL=1
      00FF77EFH   LINE      ---      ---       #374
      00FF7810H   LINE      ---      ---       #377
      00FF7810H   LINE      ---      ---       #379
      00FF781BH   LINE      ---      ---       #381
      00FF782AH   LINE      ---      ---       #383
      00FF782AH   LINE      ---      ---       #384
      00FF782AH   LINE      ---      ---       #388
      0000B5CEH   SYMBOL    EDATA    BYTE      nextWo
      0000B5CFH   SYMBOL    EDATA    BYTE      currRo
      ---         BLOCKEND  CODE     ---       LVL=1
      00FF783EH   LINE      ---      ---       #389
      00FF783EH   LINE      CODE     ---       #389

      ---         MODULE    ---      ---       bmu_tx
      00FF783FH   PUBLIC    CODE     ---       BMU_LocalTxqStartAddGet
      00FF7861H   PUBLIC    CODE     ---       BMU_TxqStartAddGet
      00FF7884H   PUBLIC    CODE     ---       BMU_TxqStatusUpd
      00FF789BH   PUBLIC    CODE     ---       BMU_TxqStatusRecovery
      00FF78BFH   PUBLIC    CODE     ---       BMU_TxqPktSearch
      00FF78F7H   PUBLIC    CODE     ---       BMU_TxPktLengthGet
      00FF3E1EH   PUBLIC    CODE     ---       BMU_TxConfig
      00FF7990H   PUBLIC    CODE     ---       BMU_LocalTxQueueGet
      00FF79CAH   PUBLIC    CODE     ---       BMU_LocalTxQueueSet
      00FF496CH   PUBLIC    CODE     ---       BMU_TxQueueGet
      00FF7FE8H   PUBLIC    CODE     ---       BMU_TxQueueClear

L251 LINKER/LOCATER V4.66.93.0                                                        12/18/2023  14:21:09  PAGE 68


      00FF783FH   BLOCK     CODE     ---       LVL=0
      00FF783FH   LINE      ---      ---       #27
      00FF783FH   LINE      ---      ---       #29
      00FF7860H   LINE      ---      ---       #30
      ---         BLOCKEND  ---      ---       LVL=0

      00FF7861H   BLOCK     CODE     ---       LVL=0
      00FF7861H   LINE      ---      ---       #32
      00FF7861H   LINE      ---      ---       #36
      00FF7883H   LINE      ---      ---       #37
      R7          REGSYM    ---      BYTE      dataQueueId
      ---         BLOCKEND  ---      ---       LVL=0

      00FF7884H   BLOCK     CODE     ---       LVL=0
      00FF7884H   LINE      ---      ---       #39
      00FF7884H   LINE      ---      ---       #41
      00FF788FH   LINE      ---      ---       #42
      00FF789AH   LINE      ---      ---       #43
      ---         BLOCKEND  ---      ---       LVL=0

      00FF789BH   BLOCK     CODE     ---       LVL=0
      00FF789BH   LINE      ---      ---       #45
      00FF789FH   LINE      ---      ---       #49
      00FF78A7H   LINE      ---      ---       #50
      00FF78BCH   LINE      ---      ---       #51
      R15         REGSYM    ---      BYTE      txQueueId
      ---         BLOCKEND  ---      ---       LVL=0

      00FF78BFH   BLOCK     CODE     ---       LVL=0
      00FF78BFH   LINE      ---      ---       #53
      00FF78C3H   LINE      ---      ---       #57
      REG=0       REGSYM    ---      ---       pPktNum
      REG=1       REGSYM    ---      ---       pQList
      00FF78C3H   BLOCK     CODE     NEAR LAB  LVL=1
      00FF78C3H   LINE      ---      ---       #62
      00FF78CAH   LINE      ---      ---       #63
      00FF78D0H   LINE      ---      ---       #64
      00FF78D4H   LINE      ---      ---       #65
      00FF78D6H   LINE      ---      ---       #67
      00FF78DBH   LINE      ---      ---       #69
      00FF78E2H   LINE      ---      ---       #70
      00FF78E5H   LINE      ---      ---       #71
      00FF78E7H   LINE      ---      ---       #72
      00FF78E7H   LINE      ---      ---       #73
      00FF78E9H   LINE      ---      ---       #75
      00FF78EBH   LINE      ---      ---       #76
      00FF78EBH   LINE      ---      ---       #77
      00FF78F2H   LINE      ---      ---       #80
      R10         REGSYM    ---      BYTE      rTxqEmpty
      R7          REGSYM    ---      BYTE      rTxqDiff
      R6          REGSYM    ---      BYTE      idx
      ---         BLOCKEND  CODE     ---       LVL=1
      00FF78F6H   LINE      ---      ---       #81
      00FF78F6H   LINE      CODE     ---       #81

      00FF78F7H   BLOCK     CODE     ---       LVL=0
      00FF78F7H   LINE      ---      ---       #83
      00FF78FFH   LINE      ---      ---       #126
      00FF7912H   LINE      ---      ---       #127
      00FF7915H   LINE      ---      ---       #130
      00FF7928H   LINE      ---      ---       #131
      00FF793EH   LINE      ---      ---       #134
      00FF795CH   LINE      ---      ---       #135
      00FF795EH   LINE      ---      ---       #136
      00FF7973H   LINE      ---      ---       #137
L251 LINKER/LOCATER V4.66.93.0                                                        12/18/2023  14:21:09  PAGE 69


      00FF797AH   LINE      ---      ---       #139
      00FF798BH   LINE      ---      ---       #143
      00FF798DH   LINE      ---      ---       #144
      R10         REGSYM    ---      BYTE      queueId
      R15         REGSYM    ---      BYTE      pktId
      REG=4       REGSYM    ---      ---       pPktLength
      ---         BLOCKEND  ---      ---       LVL=0

      00FF3E17H   BLOCK     CODE     ---       LVL=0
      00FF3E1EH   LINE      ---      ---       #147
      00FF3E22H   LINE      ---      ---       #154
      00FF3E2CH   LINE      ---      ---       #157
      00FF3E2CH   LINE      ---      ---       #159
      00FF3E31H   LINE      ---      ---       #160
      00FF3E33H   LINE      ---      ---       #163
      00FF3E46H   LINE      ---      ---       #164
      00FF3E48H   LINE      ---      ---       #167
      00FF3E5CH   LINE      ---      ---       #169
      00FF3E73H   LINE      ---      ---       #175
      00FF3E7FH   LINE      ---      ---       #177
      00FF3E8EH   LINE      ---      ---       #179
      00FF3E98H   LINE      ---      ---       #183
      00FF3E98H   LINE      ---      ---       #187
      00FF3E9CH   LINE      ---      ---       #189
      00FF3E9EH   LINE      ---      ---       #192
      00FF3E9EH   LINE      ---      ---       #195
      00FF3EAAH   LINE      ---      ---       #197
      00FF3EACH   LINE      ---      ---       #199
      00FF3EACH   LINE      ---      ---       #200
      00FF3EAEH   LINE      ---      ---       #201
      00FF3EAEH   LINE      ---      ---       #212
      00FF3EB0H   LINE      ---      ---       #213
      00FF3E17H   SYMBOL    CODE     NEAR LAB  ?L?COM0028
      WR6         REGSYM    ---      INT       queueType
      R10         REGSYM    ---      BYTE      queueId
      R9          REGSYM    ---      BYTE      pktId
      ---         BLOCKEND  ---      ---       LVL=0

      00FF7990H   BLOCK     CODE     ---       LVL=0
      00FF7990H   LINE      ---      ---       #216
      00FF7996H   LINE      ---      ---       #221
      WR10        REGSYM    ---      WORD      length
      WR2         REGSYM    ---      WORD      offset
      REG=4       REGSYM    ---      ---       pData
      00FF7996H   BLOCK     CODE     NEAR LAB  LVL=1
      00FF7996H   LINE      ---      ---       #226
      00FF799AH   LINE      ---      ---       #227
      00FF799DH   LINE      ---      ---       #230
      00FF79A6H   LINE      ---      ---       #233
      00FF79C0H   LINE      ---      ---       #234
      00FF79C7H   LINE      ---      ---       #236
      WR6         REGSYM    ---      WORD      bufferAddress
      REG=2       REGSYM    ---      ---       pBufferAddress
      ---         BLOCKEND  CODE     ---       LVL=1
      00FF79C9H   LINE      ---      ---       #237
      00FF79C9H   LINE      CODE     ---       #237

      00FF79CAH   BLOCK     CODE     ---       LVL=0
      00FF79CAH   LINE      ---      ---       #240
      00FF79D0H   LINE      ---      ---       #246
      WR8         REGSYM    ---      WORD      length
      WR30        REGSYM    ---      WORD      offset
      REG=14      REGSYM    ---      ---       pData
      R11         REGSYM    ---      BYTE      bTxqInit
      00FF79D0H   BLOCK     CODE     NEAR LAB  LVL=1
L251 LINKER/LOCATER V4.66.93.0                                                        12/18/2023  14:21:09  PAGE 70


      00FF79D0H   LINE      ---      ---       #252
      00FF79D4H   LINE      ---      ---       #253
      00FF79D7H   LINE      ---      ---       #256
      00FF79E1H   LINE      ---      ---       #257
      00FF79E3H   LINE      ---      ---       #259
      00FF79FFH   LINE      ---      ---       #260
      00FF7A01H   LINE      ---      ---       #263
      00FF7A10H   LINE      ---      ---       #264
      00FF7A12H   LINE      ---      ---       #265
      00FF7A26H   LINE      ---      ---       #266
      00FF7A28H   LINE      ---      ---       #269
      00FF7A31H   LINE      ---      ---       #272
      00FF7A4BH   LINE      ---      ---       #273
      00FF7A52H   LINE      ---      ---       #275
      WR4         REGSYM    ---      WORD      bufferAddress
      DR0         REGSYM    ---      DWORD     tempLength
      REG=3       REGSYM    ---      ---       pBufferAddress
      ---         BLOCKEND  CODE     ---       LVL=1
      00FF7A54H   LINE      ---      ---       #276
      00FF7A54H   LINE      CODE     ---       #276

      00FF496CH   BLOCK     CODE     ---       LVL=0
      00FF496CH   LINE      ---      ---       #279
      00FF4974H   LINE      ---      ---       #285
      R10         REGSYM    ---      BYTE      queueId
      WR8         REGSYM    ---      WORD      length
      WR28        REGSYM    ---      WORD      offset
      REG=15      REGSYM    ---      ---       pData
      00FF4974H   BLOCK     CODE     NEAR LAB  LVL=1
      00FF4974H   LINE      ---      ---       #289
      00FF4979H   LINE      ---      ---       #290
      00FF497BH   LINE      ---      ---       #293
      00FF498FH   LINE      ---      ---       #294
      00FF4991H   LINE      ---      ---       #297
      00FF4995H   LINE      ---      ---       #298
      00FF4998H   LINE      ---      ---       #302
      00FF49ACH   LINE      ---      ---       #303
      00FF49B4H   LINE      ---      ---       #304
      00FF49BDH   LINE      ---      ---       #310
      00FF49C6H   LINE      ---      ---       #312
      WR2         REGSYM    ---      WORD      bufferAddress
      ---         BLOCKEND  CODE     ---       LVL=1
      00FF49C8H   LINE      ---      ---       #313
      00FF49C8H   LINE      CODE     ---       #313

      00FF7FE8H   BLOCK     CODE     ---       LVL=0
      00FF7FE8H   LINE      ---      ---       #353
      00FF7FECH   LINE      ---      ---       #359
      00FF7FFFH   LINE      ---      ---       #360
      00FF8001H   LINE      ---      ---       #362
      00FF8036H   LINE      ---      ---       #364
      00FF8039H   LINE      ---      ---       #367
      00FF804CH   LINE      ---      ---       #369
      00FF8061H   LINE      ---      ---       #373
      00FF806AH   LINE      ---      ---       #375
      00FF806CH   LINE      ---      ---       #376
      R9          REGSYM    ---      BYTE      queueId
      R10         REGSYM    ---      BYTE      pktId
      ---         BLOCKEND  ---      ---       LVL=0

      ---         MODULE    ---      ---       bmu_ble
      00FF806DH   PUBLIC    CODE     ---       BMU_PrivacyIrkClr
      00FF80DEH   PUBLIC    CODE     ---       BMU_PrivacyIrkSet
      00FF81DEH   PUBLIC    CODE     ---       BMU_PrivacyIrkGet
      00FF8117H   PUBLIC    CODE     ---       BMU_PrivacyLocalRpaGen
L251 LINKER/LOCATER V4.66.93.0                                                        12/18/2023  14:21:09  PAGE 71


      00FF8213H   PUBLIC    CODE     ---       BMU_PrivacyIrkFullSearch
      00FF81A5H   PUBLIC    CODE     ---       BMU_PrivacyIrkSingleSearch

      00FF80DEH   BLOCK     CODE     ---       LVL=0
      00FF80DEH   LINE      ---      ---       #25
      00FF80E0H   LINE      ---      ---       #31
      R3          REGSYM    ---      BYTE      idx
      REG=4       REGSYM    ---      ---       pIrk
      ---         BLOCKEND  ---      ---       LVL=0

      00FF81DEH   BLOCK     CODE     ---       LVL=0
      00FF81DEH   LINE      ---      ---       #34
      00FF81DEH   LINE      ---      ---       #40
      R1          REGSYM    ---      BYTE      idx
      REG=3       REGSYM    ---      ---       pIrk
      ---         BLOCKEND  ---      ---       LVL=0

      00FF806DH   BLOCK     CODE     ---       LVL=0
      00FF806DH   LINE      ---      ---       #44
      00FF806FH   LINE      ---      ---       #49
      00FF8071H   LINE      ---      ---       #52
      00FF80A6H   LINE      ---      ---       #53
      00FF80A8H   LINE      ---      ---       #57
      R11         REGSYM    ---      BYTE      bClrAll
      R10         REGSYM    ---      BYTE      idx
      ---         BLOCKEND  ---      ---       LVL=0

      00FF8117H   BLOCK     CODE     ---       LVL=0
      00FF8117H   LINE      ---      ---       #61
      00FF8121H   LINE      ---      ---       #67
      0000B5E7H   SYMBOL    EDATA    BYTE      idx
      REG=3       REGSYM    ---      ---       pIrk
      REG=6       REGSYM    ---      ---       pPrand
      REG=7       REGSYM    ---      ---       pHash
      00FF8121H   BLOCK     CODE     NEAR LAB  LVL=1
      00FF8121H   LINE      ---      ---       #71
      00FF8123H   LINE      ---      ---       #74
      00FF813EH   LINE      ---      ---       #75
      00FF8154H   LINE      ---      ---       #78
      00FF815DH   LINE      ---      ---       #81
      00FF8178H   LINE      ---      ---       #84
      00FF8180H   LINE      ---      ---       #87
      00FF818AH   LINE      ---      ---       #90
      00FF8195H   LINE      ---      ---       #91
      00FF8198H   LINE      ---      ---       #92
      00FF819EH   LINE      ---      ---       #93
      DR4         REGSYM    ---      DWORD     regTemp
      ---         BLOCKEND  CODE     ---       LVL=1
      00FF81A2H   LINE      ---      ---       #94
      00FF81A2H   LINE      CODE     ---       #94

      00FF8213H   BLOCK     CODE     ---       LVL=0
      00FF8213H   LINE      ---      ---       #96
      00FF821BH   LINE      ---      ---       #101
      REG=2       REGSYM    ---      ---       pHash
      REG=7       REGSYM    ---      ---       pPrand
      REG=6       REGSYM    ---      ---       pResult
      00FF821BH   BLOCK     CODE     NEAR LAB  LVL=1
      00FF821BH   LINE      ---      ---       #105
      00FF8226H   LINE      ---      ---       #108
      00FF8241H   LINE      ---      ---       #109
      00FF8257H   LINE      ---      ---       #112
      00FF8263H   LINE      ---      ---       #115
      00FF826BH   LINE      ---      ---       #118
      00FF8273H   LINE      ---      ---       #121
L251 LINKER/LOCATER V4.66.93.0                                                        12/18/2023  14:21:09  PAGE 72


      00FF827DH   LINE      ---      ---       #124
      00FF8287H   LINE      ---      ---       #126
      00FF828DH   LINE      ---      ---       #127
      00FF8291H   LINE      ---      ---       #128
      00FF8291H   LINE      ---      ---       #129
      DR4         REGSYM    ---      DWORD     regTemp
      ---         BLOCKEND  CODE     ---       LVL=1
      00FF8292H   LINE      ---      ---       #130
      00FF8292H   LINE      CODE     ---       #130

      00FF81A5H   BLOCK     CODE     ---       LVL=0
      00FF81A5H   LINE      ---      ---       #132
      00FF81ADH   LINE      ---      ---       #138
      R11         REGSYM    ---      BYTE      idx
      REG=0       REGSYM    ---      ---       pIrk
      REG=1       REGSYM    ---      ---       pPrand
      REG=7       REGSYM    ---      ---       pHash
      00FF81ADH   BLOCK     CODE     NEAR LAB  LVL=1
      00FF81ADH   LINE      ---      ---       #139
      00FF81B3H   LINE      ---      ---       #142
      00FF81BDH   LINE      ---      ---       #145
      00FF81D2H   LINE      ---      ---       #146
      00FF81D6H   LINE      ---      ---       #147
      00FF81D9H   LINE      ---      ---       #148
      0000B589H   SYMBOL    EDATA    DWORD     regTemp
      ---         BLOCKEND  CODE     ---       LVL=1
      00FF81DBH   LINE      ---      ---       #149
      00FF81DBH   LINE      CODE     ---       #149

      ---         MODULE    ---      ---       mac
      00FF26FCH   PUBLIC    CODE     ---       mac_FunEventQAdd?_
      00FF25DDH   PUBLIC    CODE     ---       mac_IntEventQAdd?_
      00FF24CCH   PUBLIC    CODE     ---       mac_FunEventQGet?_
      00FF8295H   PUBLIC    CODE     ---       mac_IntEventQGet?_
      00FF41E4H   PUBLIC    CODE     ---       MAC_SleepCheck
      00FF82C2H   PUBLIC    CODE     ---       Mac_TimeoutHdlr
      00FF1435H   PUBLIC    CODE     ---       mac_Init
      00FF38D2H   PUBLIC    CODE     ---       mac_CheckRxBusy
      00FF3845H   PUBLIC    CODE     ---       mac_CheckIsrRxReceived
      00FF30AAH   PUBLIC    CODE     ---       mac_FatalClear
      00FF82CDH   PUBLIC    CODE     ---       mac
      00FF48CBH   PUBLIC    CODE     ---       mac_IntEventQueueHandler
      00FF832BH   PUBLIC    CODE     ---       mac_CheckBmuErr
      00FF25A7H   PUBLIC    CODE     ---       mac_IntEventQueueClearTxData
      00FF835FH   PUBLIC    CODE     ---       mac_FunEventQInit
      00FF836BH   PUBLIC    CODE     ---       mac_IntEventQInit
      00FF48E0H   PUBLIC    CODE     ---       pciQueueGetandMacIntQueueAdd
      00FF3183H   PUBLIC    CODE     ---       mac_FunEventQueueExist
      00FF8377H   PUBLIC    CODE     ---       mac_TrxPar_Init
      00FF8566H   PUBLIC    CODE     ---       mac_IntEventQueueExist
      0000B283H   PUBLIC    EDATA    ---       gMacFunCtrl
      0000B284H   PUBLIC    EDATA    ---       gMacFunEventQ
      0000B29EH   PUBLIC    EDATA    ---       gMacIntEventQ
      000000A8H.7 SFRSYM    DATA     BIT       EA
      00000080H   SFRSYM    DATA     BYTE      P0

      00FF26F8H   BLOCK     CODE     ---       LVL=0
      00FF26FCH   LINE      ---      ---       #95
      00FF26FEH   LINE      ---      ---       #98
      00FF2702H   LINE      ---      ---       #99
      00FF2702H   LINE      ---      ---       #101
      00FF2704H   LINE      ---      ---       #104
      00FF2715H   LINE      ---      ---       #106
      00FF2719H   LINE      ---      ---       #109
      00FF2725H   LINE      ---      ---       #111
L251 LINKER/LOCATER V4.66.93.0                                                        12/18/2023  14:21:09  PAGE 73


      00FF272AH   LINE      ---      ---       #112
      00FF272CH   LINE      ---      ---       #118
      00FF272FH   LINE      ---      ---       #120
      00FF2731H   LINE      ---      ---       #121
      00FF2731H   LINE      ---      ---       #123
      00FF2733H   LINE      ---      ---       #124
      00FF26F8H   SYMBOL    CODE     NEAR LAB  ?L?COM004B
      WR4         REGSYM    ---      WORD      state
      ---         BLOCKEND  ---      ---       LVL=0

      00FF24CCH   BLOCK     CODE     ---       LVL=0
      00FF24CCH   LINE      ---      ---       #133
      00FF24CCH   LINE      ---      ---       #134
      00FF24CCH   BLOCK     CODE     NEAR LAB  LVL=1
      00FF24CCH   LINE      ---      ---       #138
      00FF24CEH   LINE      ---      ---       #140
      00FF24DBH   LINE      ---      ---       #142
      00FF24DFH   LINE      ---      ---       #145
      00FF24E5H   LINE      ---      ---       #148
      00FF24F1H   LINE      ---      ---       #150
      00FF24F6H   LINE      ---      ---       #151
      00FF24F6H   LINE      ---      ---       #154
      00FF24F8H   LINE      ---      ---       #156
      WR6         REGSYM    ---      WORD      ret
      ---         BLOCKEND  CODE     ---       LVL=1
      00FF24F8H   LINE      ---      ---       #157
      00FF24F8H   LINE      CODE     ---       #157

      00FF835FH   BLOCK     CODE     ---       LVL=0
      00FF835FH   LINE      ---      ---       #166
      00FF835FH   LINE      ---      ---       #168
      ---         BLOCKEND  ---      ---       LVL=0

      00FF25D9H   BLOCK     CODE     ---       LVL=0
      00FF25DDH   LINE      ---      ---       #178
      00FF25DFH   LINE      ---      ---       #181
      00FF25E3H   LINE      ---      ---       #182
      00FF25E3H   LINE      ---      ---       #186
      00FF25E5H   LINE      ---      ---       #190
      00FF25F6H   LINE      ---      ---       #192
      00FF25FAH   LINE      ---      ---       #195
      00FF2606H   LINE      ---      ---       #197
      00FF260BH   LINE      ---      ---       #198
      00FF260DH   LINE      ---      ---       #204
      00FF2610H   LINE      ---      ---       #205
      00FF2612H   LINE      ---      ---       #206
      00FF2612H   LINE      ---      ---       #209
      00FF2614H   LINE      ---      ---       #211
      00FF25D9H   SYMBOL    CODE     NEAR LAB  ?L?COM004A
      WR4         REGSYM    ---      WORD      state
      ---         BLOCKEND  ---      ---       LVL=0

      00FF8295H   BLOCK     CODE     ---       LVL=0
      00FF8295H   LINE      ---      ---       #222
      00FF8295H   LINE      ---      ---       #223
      00FF8295H   BLOCK     CODE     NEAR LAB  LVL=1
      00FF8295H   LINE      ---      ---       #227
      00FF8297H   LINE      ---      ---       #229
      00FF82A4H   LINE      ---      ---       #231
      00FF82A8H   LINE      ---      ---       #234
      00FF82AEH   LINE      ---      ---       #237
      00FF82BAH   LINE      ---      ---       #239
      00FF82BFH   LINE      ---      ---       #240
      00FF82BFH   LINE      ---      ---       #243
      00FF82C1H   LINE      ---      ---       #245
L251 LINKER/LOCATER V4.66.93.0                                                        12/18/2023  14:21:09  PAGE 74


      WR6         REGSYM    ---      WORD      ret
      ---         BLOCKEND  CODE     ---       LVL=1
      00FF82C1H   LINE      ---      ---       #246
      00FF82C1H   LINE      CODE     ---       #246

      00FF836BH   BLOCK     CODE     ---       LVL=0
      00FF836BH   LINE      ---      ---       #255
      00FF836BH   LINE      ---      ---       #257
      ---         BLOCKEND  ---      ---       LVL=0

      00FF48E0H   BLOCK     CODE     ---       LVL=0
      00FF48E0H   LINE      ---      ---       #261
      00FF48E0H   LINE      ---      ---       #262
      00FF48E0H   BLOCK     CODE     NEAR LAB  LVL=1
      00FF48E0H   LINE      ---      ---       #263
      00FF48E4H   LINE      ---      ---       #264
      00FF48E9H   LINE      ---      ---       #266
      00FF48F0H   LINE      ---      ---       #267
      R7          REGSYM    ---      BYTE      pciQueueNum
      ---         BLOCKEND  CODE     ---       LVL=1
      ---         BLOCKEND  CODE     ---       LVL=0

      00FF3183H   BLOCK     CODE     ---       LVL=0
      00FF3183H   LINE      ---      ---       #272
      00FF3183H   LINE      ---      ---       #274
      00FF3191H   LINE      ---      ---       #275
      ---         BLOCKEND  ---      ---       LVL=0

      00FF48CBH   BLOCK     CODE     ---       LVL=0
      00FF48CBH   LINE      ---      ---       #277
      00FF48CBH   LINE      ---      ---       #278
      00FF48CBH   BLOCK     CODE     NEAR LAB  LVL=1
      00FF48CBH   LINE      ---      ---       #282
      00FF48CDH   LINE      ---      ---       #288
      00FF48CFH   LINE      ---      ---       #292
      00FF48D2H   LINE      ---      ---       #293
      00FF48DAH   LINE      ---      ---       #296
      00FF48DAH   LINE      ---      ---       #297
      00FF48DCH   LINE      ---      ---       #298
      00FF48DCH   LINE      ---      ---       #301
      00FF48DCH   LINE      ---      ---       #306
      00FF48DFH   LINE      ---      ---       #311
      00FF48DFH   LINE      ---      ---       #313
      WR6         REGSYM    ---      WORD      macIntEventQueue
      ---         BLOCKEND  CODE     ---       LVL=1
      00FF48DFH   LINE      ---      ---       #315
      00FF48DFH   LINE      CODE     ---       #315

      00FF8377H   BLOCK     CODE     ---       LVL=0
      00FF8377H   LINE      ---      ---       #317
      00FF8377H   LINE      ---      ---       #318
      00FF8377H   BLOCK     CODE     NEAR LAB  LVL=1
      00FF8377H   LINE      ---      ---       #320
      00FF837CH   LINE      ---      ---       #321
      00FF8385H   LINE      ---      ---       #324
      00FF83A3H   LINE      ---      ---       #325
      00FF83AEH   LINE      ---      ---       #329
      00FF83B6H   LINE      ---      ---       #330
      00FF83BCH   LINE      ---      ---       #331
      00FF83C2H   LINE      ---      ---       #332
      00FF83C8H   LINE      ---      ---       #333
      00FF83CEH   LINE      ---      ---       #334
      00FF83D6H   LINE      ---      ---       #335
      00FF83DEH   LINE      ---      ---       #337
      00FF83E2H   LINE      ---      ---       #340
L251 LINKER/LOCATER V4.66.93.0                                                        12/18/2023  14:21:09  PAGE 75


      00FF83E7H   LINE      ---      ---       #341
      00FF83EBH   LINE      ---      ---       #342
      00FF83F1H   LINE      ---      ---       #351
      00FF83F5H   LINE      ---      ---       #352
      00FF83F9H   LINE      ---      ---       #353
      00FF83FDH   LINE      ---      ---       #354
      00FF83FFH   LINE      ---      ---       #356
      00FF8410H   LINE      ---      ---       #357
      00FF8420H   LINE      ---      ---       #358
      00FF8430H   LINE      ---      ---       #359
      00FF8441H   LINE      ---      ---       #360
      00FF844DH   LINE      ---      ---       #361
      00FF845FH   LINE      ---      ---       #364
      00FF8467H   LINE      ---      ---       #365
      00FF846DH   LINE      ---      ---       #366
      00FF8473H   LINE      ---      ---       #367
      00FF8477H   LINE      ---      ---       #369
      00FF847CH   LINE      ---      ---       #370
      00FF8480H   LINE      ---      ---       #371
      00FF8486H   LINE      ---      ---       #373
      00FF848EH   LINE      ---      ---       #375
      00FF84A1H   LINE      ---      ---       #378
      00FF84A1H   LINE      ---      ---       #379
      00FF84A7H   LINE      ---      ---       #380
      00FF84ACH   LINE      ---      ---       #381
      00FF84B0H   LINE      ---      ---       #382
      00FF84B0H   LINE      ---      ---       #383
      00FF84B0H   LINE      ---      ---       #384
      00FF84B0H   LINE      ---      ---       #385
      00FF84B0H   LINE      ---      ---       #386
      00FF84B2H   LINE      ---      ---       #390
      00FF84B2H   LINE      ---      ---       #391
      00FF84BAH   LINE      ---      ---       #392
      00FF84C0H   LINE      ---      ---       #393
      00FF84C8H   LINE      ---      ---       #394
      00FF84CCH   LINE      ---      ---       #395
      00FF84DCH   LINE      ---      ---       #396
      00FF84EEH   LINE      ---      ---       #397
      00FF84FCH   LINE      ---      ---       #398
      00FF84FEH   LINE      ---      ---       #402
      00FF84FEH   LINE      ---      ---       #403
      00FF8506H   LINE      ---      ---       #404
      00FF850CH   LINE      ---      ---       #405
      00FF8518H   LINE      ---      ---       #406
      00FF851CH   LINE      ---      ---       #407
      00FF852CH   LINE      ---      ---       #408
      00FF853EH   LINE      ---      ---       #409
      00FF8548H   LINE      ---      ---       #410
      00FF8548H   LINE      ---      ---       #425
      00FF8548H   LINE      ---      ---       #426
      00FF854EH   LINE      ---      ---       #431
      00FF8553H   LINE      ---      ---       #435
      00FF8557H   LINE      ---      ---       #436
      00FF855BH   LINE      ---      ---       #437
      00FF855FH   LINE      ---      ---       #440
      0000B5E8H   SYMBOL    EDATA    BYTE      i
      WR4         REGSYM    ---      WORD      bufferAddress_LOCAL
      REG=3       REGSYM    ---      ---       pOutput
      ---         BLOCKEND  CODE     ---       LVL=1
      00FF8565H   LINE      ---      ---       #447
      00FF8565H   LINE      CODE     ---       #447

      00FF82C2H   BLOCK     CODE     ---       LVL=0
      00FF82C2H   LINE      ---      ---       #450
      00FF82C2H   LINE      ---      ---       #453
L251 LINKER/LOCATER V4.66.93.0                                                        12/18/2023  14:21:09  PAGE 76


      00FF82C9H   LINE      ---      ---       #454
      00FF82CCH   LINE      ---      ---       #455
      ---         BLOCKEND  ---      ---       LVL=0

      00FF1435H   BLOCK     CODE     ---       LVL=0
      00FF1435H   LINE      ---      ---       #457
      00FF1435H   LINE      ---      ---       #461
      00FF143DH   LINE      ---      ---       #465
      00FF1440H   LINE      ---      ---       #469
      00FF1442H   LINE      ---      ---       #473
      00FF1445H   LINE      ---      ---       #476
      00FF1448H   LINE      ---      ---       #479
      00FF144BH   LINE      ---      ---       #484
      00FF1452H   LINE      ---      ---       #494
      00FF1455H   LINE      ---      ---       #504
      00FF1458H   LINE      ---      ---       #505
      00FF145AH   LINE      ---      ---       #506
      00FF145CH   LINE      ---      ---       #507
      00FF145FH   LINE      ---      ---       #512
      00FF1462H   LINE      ---      ---       #517
      00FF146EH   LINE      ---      ---       #519
      ---         BLOCKEND  ---      ---       LVL=0

      00FF8566H   BLOCK     CODE     ---       LVL=0
      00FF8566H   LINE      ---      ---       #522
      00FF8566H   LINE      ---      ---       #523
      00FF8566H   BLOCK     CODE     NEAR LAB  LVL=1
      00FF8566H   LINE      ---      ---       #525
      00FF8574H   LINE      ---      ---       #526
      R11         REGSYM    ---      BYTE      retValue
      ---         BLOCKEND  CODE     ---       LVL=1
      00FF8574H   LINE      ---      ---       #527
      00FF8574H   LINE      CODE     ---       #527

      00FF25A7H   BLOCK     CODE     ---       LVL=0
      00FF25A7H   LINE      ---      ---       #531
      00FF25ABH   LINE      ---      ---       #532
      00FF25ABH   BLOCK     CODE     NEAR LAB  LVL=1
      00FF25ABH   LINE      ---      ---       #533
      00FF25ABH   LINE      ---      ---       #536
      00FF25AEH   LINE      ---      ---       #537
      00FF25B3H   LINE      ---      ---       #538
      00FF25B9H   LINE      ---      ---       #542
      00FF25BEH   LINE      ---      ---       #545
      00FF25C1H   LINE      ---      ---       #546
      00FF25C1H   LINE      ---      ---       #548
      00FF25C3H   LINE      ---      ---       #549
      00FF25C6H   LINE      ---      ---       #550
      00FF25CCH   LINE      ---      ---       #551
      00FF25D0H   LINE      ---      ---       #552
      R15         REGSYM    ---      BYTE      count
      WR12        REGSYM    ---      WORD      event
      ---         BLOCKEND  CODE     ---       LVL=1
      00FF25D4H   LINE      ---      ---       #556
      00FF25D4H   LINE      CODE     ---       #556

      00FF41E4H   BLOCK     CODE     ---       LVL=0
      00FF41E4H   LINE      ---      ---       #560
      00FF41E4H   LINE      ---      ---       #566
      00FF41EBH   LINE      ---      ---       #569
      00FF41F0H   LINE      ---      ---       #570
      00FF41F2H   LINE      ---      ---       #577
      00FF4203H   LINE      ---      ---       #581
      00FF4206H   LINE      ---      ---       #582
      00FF4206H   LINE      ---      ---       #586
L251 LINKER/LOCATER V4.66.93.0                                                        12/18/2023  14:21:09  PAGE 77


      00FF420BH   LINE      ---      ---       #587
      00FF420DH   LINE      ---      ---       #612
      00FF4213H   LINE      ---      ---       #614
      00FF4215H   LINE      ---      ---       #615
      00FF4215H   LINE      ---      ---       #617
      00FF4221H   LINE      ---      ---       #619
      00FF4223H   LINE      ---      ---       #620
      00FF4223H   LINE      ---      ---       #622
      00FF4229H   LINE      ---      ---       #624
      00FF4239H   LINE      ---      ---       #626
      00FF423FH   LINE      ---      ---       #628
      00FF4247H   LINE      ---      ---       #629
      00FF4249H   LINE      ---      ---       #630
      00FF4249H   LINE      ---      ---       #633
      00FF424CH   LINE      ---      ---       #634
      00FF424CH   LINE      ---      ---       #635
      00FF424DH   LINE      ---      ---       #638
      ---         BLOCKEND  ---      ---       LVL=0

      00FF832BH   BLOCK     CODE     ---       LVL=0
      00FF832BH   LINE      ---      ---       #642
      00FF832BH   LINE      ---      ---       #643
      00FF832BH   BLOCK     CODE     NEAR LAB  LVL=1
      00FF832BH   LINE      ---      ---       #649
      00FF8337H   LINE      ---      ---       #650
      00FF8342H   LINE      ---      ---       #651
      00FF8351H   LINE      ---      ---       #652
      00FF835CH   LINE      ---      ---       #653
      R10         REGSYM    ---      BYTE      tempReg
      ---         BLOCKEND  CODE     ---       LVL=1
      00FF835EH   LINE      ---      ---       #654
      00FF835EH   LINE      CODE     ---       #654

      00FF38D2H   BLOCK     CODE     ---       LVL=0
      00FF38D2H   LINE      ---      ---       #657
      00FF38D2H   LINE      ---      ---       #662
      00FF38F2H   LINE      ---      ---       #665
      00FF38F5H   LINE      ---      ---       #666
      00FF38F5H   LINE      ---      ---       #668
      00FF38F6H   LINE      ---      ---       #669
      ---         BLOCKEND  ---      ---       LVL=0

      00FF3845H   BLOCK     CODE     ---       LVL=0
      00FF3845H   LINE      ---      ---       #672
      00FF3845H   LINE      ---      ---       #675
      00FF3846H   LINE      ---      ---       #676
      00FF3847H   LINE      ---      ---       #677
      00FF3851H   LINE      ---      ---       #678
      00FF3854H   LINE      ---      ---       #679
      00FF3854H   LINE      ---      ---       #681
      00FF3855H   LINE      ---      ---       #682
      ---         BLOCKEND  ---      ---       LVL=0

      00FF30AAH   BLOCK     CODE     ---       LVL=0
      00FF30AAH   LINE      ---      ---       #685
      00FF30AAH   LINE      ---      ---       #688
      00FF30B0H   LINE      ---      ---       #690
      ---         BLOCKEND  ---      ---       LVL=0

      00FF82CDH   BLOCK     CODE     ---       LVL=0
      00FF82CDH   LINE      ---      ---       #708
      00FF82CDH   LINE      ---      ---       #722
      00FF82E6H   LINE      ---      ---       #725
      00FF82E6H   LINE      ---      ---       #726
      00FF82E8H   LINE      ---      ---       #727
L251 LINKER/LOCATER V4.66.93.0                                                        12/18/2023  14:21:09  PAGE 78


      00FF82EAH   LINE      ---      ---       #730
      00FF82EAH   LINE      ---      ---       #731
      00FF82ECH   LINE      ---      ---       #732
      00FF82EEH   LINE      ---      ---       #734
      00FF82EEH   LINE      ---      ---       #736
      00FF82F1H   LINE      ---      ---       #740
      00FF82F3H   LINE      ---      ---       #741
      00FF82F3H   LINE      ---      ---       #743
      00FF82F6H   LINE      ---      ---       #747
      00FF82F8H   LINE      ---      ---       #755
      00FF82F8H   LINE      ---      ---       #759
      00FF82FBH   LINE      ---      ---       #761
      00FF82FDH   LINE      ---      ---       #763
      00FF82FDH   LINE      ---      ---       #767
      00FF8300H   LINE      ---      ---       #769
      00FF8300H   LINE      ---      ---       #771
      00FF8300H   LINE      ---      ---       #772
      00FF8302H   LINE      ---      ---       #773
      ---         BLOCKEND  ---      ---       LVL=0

      ---         MODULE    ---      ---       mac_frame_parse
      00FF8575H   PUBLIC    CODE     ---       panIdPresent
      00FF861BH   PUBLIC    CODE     ---       mac_parseHdr

      00FF8575H   BLOCK     CODE     ---       LVL=0
      00FF8575H   LINE      ---      ---       #24
      00FF8577H   LINE      ---      ---       #25
      R11         REGSYM    ---      BYTE      destAddrModeIn
      R10         REGSYM    ---      BYTE      srcAddrModeIn
      R6          REGSYM    ---      BYTE      panIdCompIn
      00FF8577H   BLOCK     CODE     NEAR LAB  LVL=1
      00FF8577H   LINE      ---      ---       #26
      00FF857BH   LINE      ---      ---       #27
      00FF857FH   LINE      ---      ---       #28
      00FF8583H   LINE      ---      ---       #30
      00FF8588H   LINE      ---      ---       #31
      00FF858CH   LINE      ---      ---       #33
      00FF8592H   LINE      ---      ---       #35
      00FF8598H   LINE      ---      ---       #37
      00FF859FH   LINE      ---      ---       #39
      00FF859FH   LINE      ---      ---       #40
      00FF85A1H   LINE      ---      ---       #42
      00FF85B1H   LINE      ---      ---       #44
      00FF85B7H   LINE      ---      ---       #46
      00FF85B7H   LINE      ---      ---       #47
      00FF85B7H   LINE      ---      ---       #49
      00FF85B9H   LINE      ---      ---       #50
      00FF85C0H   LINE      ---      ---       #52
      00FF85C6H   LINE      ---      ---       #54
      00FF85CCH   LINE      ---      ---       #56
      00FF85CCH   LINE      ---      ---       #57
      00FF85CEH   LINE      ---      ---       #59
      00FF85DEH   LINE      ---      ---       #61
      00FF85E4H   LINE      ---      ---       #62
      00FF85EAH   LINE      ---      ---       #64
      00FF85F0H   LINE      ---      ---       #65
      00FF85F0H   LINE      ---      ---       #67
      00FF85F1H   LINE      ---      ---       #68
      00FF85F8H   LINE      ---      ---       #70
      00FF8605H   LINE      ---      ---       #72
      00FF860BH   LINE      ---      ---       #74
      00FF860BH   LINE      ---      ---       #75
      00FF860DH   LINE      ---      ---       #77
      00FF8614H   LINE      ---      ---       #79
      00FF861AH   LINE      ---      ---       #80
L251 LINKER/LOCATER V4.66.93.0                                                        12/18/2023  14:21:09  PAGE 79


      0000B5BBH   SYMBOL    EDATA    BYTE      destAddrMode
      0000B5BCH   SYMBOL    EDATA    BYTE      srcAddrMode
      0000B5BDH   SYMBOL    EDATA    BYTE      panIdComp
      ---         BLOCKEND  CODE     ---       LVL=1
      00FF861AH   LINE      ---      ---       #83
      00FF861AH   LINE      CODE     ---       #83

      00FF861BH   BLOCK     CODE     ---       LVL=0
      00FF861BH   LINE      ---      ---       #86
      00FF8621H   LINE      ---      ---       #92
      00FF8630H   LINE      ---      ---       #93
      00FF8632H   LINE      ---      ---       #94
      00FF863BH   LINE      ---      ---       #95
      00FF864BH   LINE      ---      ---       #96
      00FF865DH   LINE      ---      ---       #97
      00FF8671H   LINE      ---      ---       #98
      00FF8687H   LINE      ---      ---       #99
      00FF8697H   LINE      ---      ---       #100
      00FF86A6H   LINE      ---      ---       #101
      00FF86B6H   LINE      ---      ---       #103
      00FF86BFH   LINE      ---      ---       #105
      00FF86C6H   LINE      ---      ---       #107
      00FF86D4H   LINE      ---      ---       #108
      00FF86DAH   LINE      ---      ---       #110
      00FF86E1H   LINE      ---      ---       #111
      00FF86E3H   LINE      ---      ---       #112
      00FF86E3H   LINE      ---      ---       #114
      00FF86ECH   LINE      ---      ---       #117
      00FF86EFH   LINE      ---      ---       #119
      00FF86F6H   LINE      ---      ---       #120
      00FF86F8H   LINE      ---      ---       #121
      00FF86FAH   LINE      ---      ---       #124
      00FF8709H   LINE      ---      ---       #125
      00FF870BH   LINE      ---      ---       #126
      00FF871AH   LINE      ---      ---       #127
      00FF871CH   LINE      ---      ---       #128
      00FF871CH   LINE      ---      ---       #129
      00FF871CH   LINE      ---      ---       #131
      00FF8722H   LINE      ---      ---       #133
      00FF8729H   LINE      ---      ---       #134
      00FF872BH   LINE      ---      ---       #135
      00FF872BH   LINE      ---      ---       #137
      00FF8736H   LINE      ---      ---       #139
      00FF8739H   LINE      ---      ---       #142
      00FF8739H   LINE      ---      ---       #144
      00FF8739H   LINE      ---      ---       #145
      00FF8739H   LINE      ---      ---       #146
      00FF873BH   LINE      ---      ---       #150
      00FF873BH   LINE      ---      ---       #152
      00FF873BH   LINE      ---      ---       #153
      00FF873BH   LINE      ---      ---       #154
      00FF873BH   LINE      ---      ---       #155
      00FF873BH   LINE      ---      ---       #156
      00FF873BH   LINE      ---      ---       #157
      00FF873DH   LINE      ---      ---       #159
      00FF8748H   LINE      ---      ---       #162
      00FF8751H   LINE      ---      ---       #164
      00FF8758H   LINE      ---      ---       #165
      00FF875AH   LINE      ---      ---       #166
      00FF8761H   LINE      ---      ---       #168
      00FF8768H   LINE      ---      ---       #169
      00FF876AH   LINE      ---      ---       #170
      00FF876CH   LINE      ---      ---       #173
      00FF877BH   LINE      ---      ---       #174
      00FF877DH   LINE      ---      ---       #175
L251 LINKER/LOCATER V4.66.93.0                                                        12/18/2023  14:21:09  PAGE 80


      00FF878CH   LINE      ---      ---       #176
      00FF878EH   LINE      ---      ---       #177
      00FF878EH   LINE      ---      ---       #178
      00FF878EH   LINE      ---      ---       #180
      00FF8797H   LINE      ---      ---       #182
      00FF879DH   LINE      ---      ---       #184
      00FF87A4H   LINE      ---      ---       #185
      00FF87A6H   LINE      ---      ---       #186
      00FF87A6H   LINE      ---      ---       #188
      00FF87ADH   LINE      ---      ---       #191
      00FF87BCH   LINE      ---      ---       #193
      00FF87C3H   LINE      ---      ---       #194
      00FF87C5H   LINE      ---      ---       #195
      00FF87C7H   LINE      ---      ---       #199
      00FF87D6H   LINE      ---      ---       #201
      00FF87E5H   LINE      ---      ---       #202
      00FF87E7H   LINE      ---      ---       #203
      00FF87F6H   LINE      ---      ---       #205
      00FF87F8H   LINE      ---      ---       #207
      00FF87F8H   LINE      ---      ---       #208
      00FF87F8H   LINE      ---      ---       #214
      00FF8801H   LINE      ---      ---       #217
      00FF8808H   LINE      ---      ---       #218
      00FF8808H   LINE      ---      ---       #219
      00FF8812H   LINE      ---      ---       #254
      REG=7       REGSYM    ---      ---       dptr
      REG=6       REGSYM    ---      ---       hdr
      ---         BLOCKEND  ---      ---       LVL=0

      ---         MODULE    ---      ---       mac_isr
      00FF8815H   PUBLIC    CODE     ---       mac_IsrHandler
      00FF17C2H   PUBLIC    CODE     ---       mac_IsrInit
      00FF88A6H   PUBLIC    CODE     ---       mac_BmuIsrInit
      00FF3FD1H   PUBLIC    CODE     ---       mac_isr_reg_cb
      0000B525H   PUBLIC    EDATA    ---       g_mac_isr_cb_handle
      00000080H   SFRSYM    DATA     BYTE      P0

      00FF8815H   BLOCK     CODE     ---       LVL=0
      00FF8815H   LINE      ---      ---       #44
      00FF8819H   LINE      ---      ---       #46
      00FF881CH   LINE      ---      ---       #48
      00FF8824H   LINE      ---      ---       #49
      00FF882AH   LINE      ---      ---       #50
      00FF882AH   LINE      ---      ---       #52
      00FF882DH   LINE      ---      ---       #53
      00FF8830H   LINE      ---      ---       #55
      00FF8830H   LINE      ---      ---       #57
      00FF8835H   LINE      ---      ---       #59
      00FF883DH   LINE      ---      ---       #60
      00FF8843H   LINE      ---      ---       #61
      00FF8843H   LINE      ---      ---       #63
      00FF8846H   LINE      ---      ---       #64
      00FF8849H   LINE      ---      ---       #65
      00FF8849H   LINE      ---      ---       #67
      00FF884EH   LINE      ---      ---       #69
      00FF8856H   LINE      ---      ---       #70
      00FF885CH   LINE      ---      ---       #71
      00FF885CH   LINE      ---      ---       #73
      00FF885FH   LINE      ---      ---       #74
      00FF8862H   LINE      ---      ---       #75
      00FF8862H   LINE      ---      ---       #78
      00FF8867H   LINE      ---      ---       #84
      00FF8878H   LINE      ---      ---       #85
      00FF887BH   LINE      ---      ---       #86
      00FF887BH   LINE      ---      ---       #87
L251 LINKER/LOCATER V4.66.93.0                                                        12/18/2023  14:21:09  PAGE 81


      00FF887BH   LINE      ---      ---       #88
      00FF887DH   LINE      ---      ---       #89
      00FF887DH   LINE      ---      ---       #93
      00FF8880H   LINE      ---      ---       #94
      00FF8883H   LINE      ---      ---       #95
      00FF888AH   LINE      ---      ---       #96
      00FF888AH   LINE      ---      ---       #98
      00FF888FH   LINE      ---      ---       #100
      00FF8897H   LINE      ---      ---       #101
      00FF889DH   LINE      ---      ---       #102
      00FF889DH   LINE      ---      ---       #104
      00FF88A0H   LINE      ---      ---       #105
      00FF88A3H   LINE      ---      ---       #106
      R15         REGSYM    ---      BYTE      intSts
      ---         BLOCKEND  ---      ---       LVL=0

      00FF17C2H   BLOCK     CODE     ---       LVL=0
      00FF17C2H   LINE      ---      ---       #132
      00FF17C2H   LINE      ---      ---       #134
      ---         BLOCKEND  ---      ---       LVL=0

      00FF88A6H   BLOCK     CODE     ---       LVL=0
      00FF88A6H   LINE      ---      ---       #141
      00FF88A6H   LINE      ---      ---       #150
      ---         BLOCKEND  ---      ---       LVL=0

      00FF3FD1H   BLOCK     CODE     ---       LVL=0
      00FF3FD1H   LINE      ---      ---       #153
      00FF3FD3H   LINE      ---      ---       #155
      REG=2       REGSYM    ---      ---       cb
      ---         BLOCKEND  ---      ---       LVL=0

      ---         MODULE    ---      ---       mac_cmd_hdlr
      00FF88B2H   PUBLIC    CODE     ---       Pci_SetRfFreq
      00FF4711H   PUBLIC    CODE     ---       Pci_SetRxTaskPara
      00FF4662H   PUBLIC    CODE     ---       Pci_EnableSingleTone
      00FF46A0H   PUBLIC    CODE     ---       Pci_SetRfeSecurityCmd
      00FF7AEEH   PUBLIC    CODE     ---       Pci_SetRfeTxEnableCmd
      00FF89A1H   PUBLIC    CODE     ---       Pci_SetRfeTxDisableCmd
      00FF89B7H   PUBLIC    CODE     ---       Pci_SetRfeRxEnableCmd
      00FF3192H   PUBLIC    CODE     ---       Pci_SetRfeRxDisableCmd
      00FF4428H   PUBLIC    CODE     ---       Pci_GetCrcCount
      00FF8B31H   PUBLIC    CODE     ---       Pci_SetRfSleep
      00FF8B50H   PUBLIC    CODE     ---       Pci_SetRfIdle
      00FF4492H   PUBLIC    CODE     ---       Pci_GetRssi
      00FF44FBH   PUBLIC    CODE     ---       Pci_GetPhyStatus
      00FF8B66H   PUBLIC    CODE     ---       Pci_SetClockMode
      00FF8BB2H   PUBLIC    CODE     ---       Pci_SetRfbAutoState
      00FF8C2CH   PUBLIC    CODE     ---       Pci_SetRfeMode
      00FF8C36H   PUBLIC    CODE     ---       Pci_SetGaussianFilterType
      00FF4260H   PUBLIC    CODE     ---       Pci_SetWakeOnRadio
      00FF3261H   PUBLIC    CODE     ---       Pci_InitFsk
      00FF8C49H   PUBLIC    CODE     ---       Pci_SetFskModem
      00FF32E6H   PUBLIC    CODE     ---       Pci_SetFskMac
      00FF31ACH   PUBLIC    CODE     ---       Pci_SetFskPreamble
      00FF329AH   PUBLIC    CODE     ---       Pci_SetFskSfd
      00FF33A8H   PUBLIC    CODE     ---       Pci_SetFskType
      00FF31DFH   PUBLIC    CODE     ---       Pci_BleCmdInitBle
      00FF8C8BH   PUBLIC    CODE     ---       Pci_BleCmdSetBleModem
      00FF8E49H   PUBLIC    CODE     ---       Pci_BleCmdSetBleMac
      00FF8FF7H   PUBLIC    CODE     ---       Pci_BlePhy_SetHtrp_Para
      00FF8E11H   PUBLIC    CODE     ---       Pci_BlePhy_SetHtrp_Map_Channel
      00FF8DE1H   PUBLIC    CODE     ---       Pci_BlePhy_SetHtrp_Sec
      00FF909AH   PUBLIC    CODE     ---       Pci_BlePhy_SetHtrp_Tx_Enable
      00FF8DC3H   PUBLIC    CODE     ---       Pci_BlePhy_SetHtrp_Rx_Enable
L251 LINKER/LOCATER V4.66.93.0                                                        12/18/2023  14:21:09  PAGE 82


      00FF8DA6H   PUBLIC    CODE     ---       Pci_BlePhy_SetHtrp_Disable
      00FF90BFH   PUBLIC    CODE     ---       Pci_BlePhy_SetHtrp_Initiate
      00FF2F1EH   PUBLIC    CODE     ---       Pci_BlePhy_GetHtrp_Status
      00FF9102H   PUBLIC    CODE     ---       Pci_InitZigbee
      00FF5A59H   PUBLIC    CODE     ---       Pci_Parse15p4AddressFilter
      00FF5F5DH   PUBLIC    CODE     ---       Pci_Parse15p4MacPib
      00FF5EE9H   PUBLIC    CODE     ---       Pci_Parse15p4PhyPib
      00FF5E98H   PUBLIC    CODE     ---       Pci_Parse15p4AutoAck
      00FF59F5H   PUBLIC    CODE     ---       Pci_Parse15p4PendingBit
      00FF59D6H   PUBLIC    CODE     ---       Pci_Parse15p4SmEnable
      00FF5880H   PUBLIC    CODE     ---       Pci_Set15p4CslReceiverCtrl
      00FF596AH   PUBLIC    CODE     ---       Pci_Get15p4CslAccuracy
      00FF59A0H   PUBLIC    CODE     ---       Pci_Get15p4CslUncertainty
      00FF5F22H   PUBLIC    CODE     ---       Pci_Update15p4CslSampleTime
      00FF9175H   PUBLIC    CODE     ---       Pci_OqpskCmdInitOqpsk
      00FF91B2H   PUBLIC    CODE     ---       Pci_OqpskCmdSetOqpskModem
      00FF333EH   PUBLIC    CODE     ---       Pci_OqpskCmdSetOqpskMac
      00FF49C9H   PUBLIC    CODE     ---       MAC_CmdQueueParse
      00FF3D8BH   PUBLIC    CODE     ---       Pci_SetPhr
      00FF8A73H   PUBLIC    CODE     ---       Pci_RfeRxParaCheck
      00FF30B8H   PUBLIC    CODE     ---       SetRfIdle
      00FF5A22H   PUBLIC    CODE     ---       get_pan_number
      00FF3205H   PUBLIC    CODE     ---       Pci_ParaReset
      00FF7B8DH   PUBLIC    CODE     ---       Pci_RfeTxParaCheck
      00FF5B10H   PUBLIC    CODE     ---       Reverse_Uint32cpy
      00FF5B33H   PUBLIC    CODE     ---       Pci_Parset15p4SmEntryCtrl
      00FF435BH   PUBLIC    CODE     ---       Pci_ParseCommonCmd
      00FF58EFH   PUBLIC    CODE     ---       Pci_Parse15p4SwMacCmd
      00FF8D3FH   PUBLIC    CODE     ---       Pci_ParseBleCmd
      00FF3233H   PUBLIC    CODE     ---       Pci_ParseFskCmd
      00FF4C0FH   PUBLIC    CODE     ---       Pci_ParseOqpskCmd
      00FF4B55H   PUBLIC    CODE     ---       Pci_ParseCmnSysCmd
      00FF4D4EH   PUBLIC    CODE     ---       Pci_ParseCmnHalCmd
      0000B351H   PUBLIC    EDATA    BYTE      gSleepEnable
      0000B352H   PUBLIC    EDATA    ---       g15p4Mac
      0000B365H   PUBLIC    EDATA    ---       g15p4Phy
      00FF11A7H   PUBLIC    HCONST   ---       gPciCommonCmdLen
      00FF11C6H   PUBLIC    HCONST   ---       gPciFskCmdLen
      00FF11CCH   PUBLIC    HCONST   ---       gPciBleCmdLen
      00FF11D7H   PUBLIC    HCONST   ---       gPci15p4MacCmdLen
      00FF11E4H   PUBLIC    HCONST   ---       gPciOqpskCmdLen
      00FF11E8H   PUBLIC    HCONST   ---       gCmnSysCmdLen
      00FF11EAH   PUBLIC    HCONST   ---       gCmnHalCmdLen
      000000A8H.7 SFRSYM    DATA     BIT       EA
      00000080H   SFRSYM    DATA     BYTE      P0

      00FF5A22H   BLOCK     CODE     ---       LVL=0
      00FF5A22H   LINE      ---      ---       #304
      00FF5A22H   LINE      ---      ---       #305
      00FF5A22H   BLOCK     CODE     NEAR LAB  LVL=1
      00FF5A22H   LINE      ---      ---       #307
      00FF5A2BH   LINE      ---      ---       #310
      00FF5A49H   LINE      ---      ---       #311
      00FF5A54H   LINE      ---      ---       #313
      0000B5E9H   SYMBOL    EDATA    BYTE      Pannum
      WR6         REGSYM    ---      WORD      bufferAddress_LOCAL
      REG=2       REGSYM    ---      ---       pInput
      ---         BLOCKEND  CODE     ---       LVL=1
      00FF5A58H   LINE      ---      ---       #314
      00FF5A58H   LINE      CODE     ---       #314

      00FF3D86H   BLOCK     CODE     ---       LVL=0
      00FF3D8BH   LINE      ---      ---       #317
      00FF3D93H   LINE      ---      ---       #318
      00FF3D86H   SYMBOL    CODE     NEAR LAB  ?L?COM0041
L251 LINKER/LOCATER V4.66.93.0                                                        12/18/2023  14:21:09  PAGE 83


      WR14        REGSYM    ---      WORD      pktLen
      R13         REGSYM    ---      BYTE      dateType
      00FF3D93H   BLOCK     CODE     NEAR LAB  LVL=1
      00FF3D93H   LINE      ---      ---       #322
      00FF3DA1H   LINE      ---      ---       #325
      00FF3DA1H   LINE      ---      ---       #326
      00FF3DA9H   LINE      ---      ---       #327
      00FF3DB3H   LINE      ---      ---       #328
      00FF3DB3H   LINE      ---      ---       #329
      00FF3DB5H   LINE      ---      ---       #332
      00FF3DB5H   LINE      ---      ---       #333
      00FF3DC1H   LINE      ---      ---       #334
      00FF3DC8H   LINE      ---      ---       #335
      00FF3DC8H   LINE      ---      ---       #336
      00FF3DCAH   LINE      ---      ---       #339
      00FF3DCAH   LINE      ---      ---       #340
      0000B5D0H   SYMBOL    EDATA    WORD      phrContent
      00FF3DCAH   BLOCK     CODE     NEAR LAB  LVL=2
      00FF3DCAH   LINE      ---      ---       #343
      00FF3DD9H   LINE      ---      ---       #345
      00FF3DE6H   LINE      ---      ---       #346
      00FF3DEBH   LINE      ---      ---       #347
      00FF3DF6H   LINE      ---      ---       #348
      00FF3DFAH   LINE      ---      ---       #349
      00FF3E05H   LINE      ---      ---       #350
      R10         REGSYM    ---      BYTE      crcType
      ---         BLOCKEND  CODE     ---       LVL=2
      00FF3E12H   LINE      ---      ---       #352
      00FF3E12H   LINE      ---      ---       #378
      00FF3E12H   LINE      ---      ---       #379
      00FF3E12H   LINE      ---      ---       #380
      00FF3E12H   LINE      CODE     ---       #380
      ---         BLOCKEND  CODE     ---       LVL=0

      00FF3201H   BLOCK     CODE     ---       LVL=0
      00FF3205H   LINE      ---      ---       #383
      00FF3205H   LINE      ---      ---       #385
      00FF3209H   LINE      ---      ---       #386
      00FF320FH   LINE      ---      ---       #388
      00FF321BH   LINE      ---      ---       #389
      00FF321FH   LINE      ---      ---       #390
      00FF3225H   LINE      ---      ---       #391
      00FF322AH   LINE      ---      ---       #392
      00FF322EH   LINE      ---      ---       #393
      00FF3232H   LINE      ---      ---       #394
      00FF3201H   SYMBOL    CODE     NEAR LAB  ?L?COM0043
      WR6         REGSYM    ---      INT       rfkBand
      ---         BLOCKEND  ---      ---       LVL=0

      00FF46A0H   BLOCK     CODE     ---       LVL=0
      00FF46A0H   LINE      ---      ---       #397
      00FF46A6H   LINE      ---      ---       #398
      REG=7       REGSYM    ---      ---       pCmdAddress
      00FF46A6H   BLOCK     CODE     NEAR LAB  LVL=1
      00FF46A6H   LINE      ---      ---       #403
      00FF46ABH   LINE      ---      ---       #410
      00FF46AEH   LINE      ---      ---       #420
      00FF46AEH   LINE      ---      ---       #428
      00FF46C4H   LINE      ---      ---       #429
      00FF46C8H   LINE      ---      ---       #431
      00FF46D8H   LINE      ---      ---       #445
      REG=7       REGSYM    ---      ---       pCmdIn
      R13         REGSYM    ---      BYTE      Pannum
      ---         BLOCKEND  CODE     ---       LVL=1
      00FF46E2H   LINE      ---      ---       #446
L251 LINKER/LOCATER V4.66.93.0                                                        12/18/2023  14:21:09  PAGE 84


      00FF46E2H   LINE      CODE     ---       #446

      00FF7B8DH   BLOCK     CODE     ---       LVL=0
      00FF7B8DH   LINE      ---      ---       #450
      00FF7B93H   LINE      ---      ---       #453
      00FF7B9DH   LINE      ---      ---       #454
      00FF7BA0H   LINE      ---      ---       #457
      00FF7BA8H   LINE      ---      ---       #458
      00FF7BABH   LINE      ---      ---       #461
      00FF7BC7H   LINE      ---      ---       #462
      00FF7BCAH   LINE      ---      ---       #465
      00FF7BCEH   LINE      ---      ---       #466
      00FF7BD1H   LINE      ---      ---       #469
      00FF7BDFH   LINE      ---      ---       #470
      00FF7BE2H   LINE      ---      ---       #473
      00FF7BECH   LINE      ---      ---       #475
      00FF7C00H   LINE      ---      ---       #476
      00FF7C03H   LINE      ---      ---       #477
      00FF7C09H   LINE      ---      ---       #479
      00FF7C13H   LINE      ---      ---       #480
      00FF7C16H   LINE      ---      ---       #481
      00FF7C16H   LINE      ---      ---       #482
      00FF7C20H   LINE      ---      ---       #484
      00FF7C2AH   LINE      ---      ---       #485
      00FF7C2DH   LINE      ---      ---       #486
      00FF7C2DH   LINE      ---      ---       #487
      00FF7C31H   LINE      ---      ---       #488
      00FF7C34H   LINE      ---      ---       #489
      00FF7C3EH   LINE      ---      ---       #490
      00FF7C41H   LINE      ---      ---       #491
      00FF7C41H   LINE      ---      ---       #493
      00FF7C43H   LINE      ---      ---       #494
      WR12        REGSYM    ---      WORD      txCounter
      WR14        REGSYM    ---      WORD      txStepSize
      ---         BLOCKEND  ---      ---       LVL=0

      00FF8A73H   BLOCK     CODE     ---       LVL=0
      00FF8A73H   LINE      ---      ---       #496
      00FF8A79H   LINE      ---      ---       #499
      00FF8A83H   LINE      ---      ---       #500
      00FF8A86H   LINE      ---      ---       #503
      00FF8A8EH   LINE      ---      ---       #504
      00FF8A91H   LINE      ---      ---       #507
      00FF8A9CH   LINE      ---      ---       #510
      00FF8AA0H   LINE      ---      ---       #511
      00FF8AA3H   LINE      ---      ---       #514
      00FF8AB7H   LINE      ---      ---       #515
      00FF8ABAH   LINE      ---      ---       #516
      00FF8ABAH   LINE      ---      ---       #518
      00FF8ABCH   LINE      ---      ---       #519
      R11         REGSYM    ---      BYTE      rxType
      R15         REGSYM    ---      BYTE      queueType
      R10         REGSYM    ---      BYTE      ackEnable
      DR0         REGSYM    ---      DWORD     ackInterval
      ---         BLOCKEND  ---      ---       LVL=0

      00FF7AEEH   BLOCK     CODE     ---       LVL=0
      00FF7AEEH   LINE      ---      ---       #523
      00FF7AF2H   LINE      ---      ---       #524
      REG=7       REGSYM    ---      ---       pCmdAddress
      00FF7AF2H   BLOCK     CODE     NEAR LAB  LVL=1
      00FF7AF2H   LINE      ---      ---       #538
      00FF7AF5H   LINE      ---      ---       #542
      00FF7B10H   LINE      ---      ---       #545
      00FF7B10H   LINE      ---      ---       #549
L251 LINKER/LOCATER V4.66.93.0                                                        12/18/2023  14:21:09  PAGE 85


      00FF7B18H   LINE      ---      ---       #550
      00FF7B20H   LINE      ---      ---       #551
      00FF7B28H   LINE      ---      ---       #552
      00FF7B34H   LINE      ---      ---       #553
      00FF7B3CH   LINE      ---      ---       #554
      00FF7B44H   LINE      ---      ---       #555
      00FF7B4CH   LINE      ---      ---       #558
      00FF7B58H   LINE      ---      ---       #560
      00FF7B60H   LINE      ---      ---       #561
      00FF7B62H   LINE      ---      ---       #562
      00FF7B62H   LINE      ---      ---       #565
      00FF7B74H   LINE      ---      ---       #568
      00FF7B7AH   LINE      ---      ---       #569
      00FF7B82H   LINE      ---      ---       #592
      REG=7       REGSYM    ---      ---       pCmdIn
      ---         BLOCKEND  CODE     ---       LVL=1
      00FF7B8AH   LINE      ---      ---       #593
      00FF7B8AH   LINE      CODE     ---       #593

      00FF89A1H   BLOCK     CODE     ---       LVL=0
      00FF89A1H   LINE      ---      ---       #595
      00FF89A1H   LINE      ---      ---       #597
      00FF89A1H   LINE      ---      ---       #609
      00FF89A4H   LINE      ---      ---       #614
      00FF89AAH   LINE      ---      ---       #620
      00FF89AFH   LINE      ---      ---       #623
      ---         BLOCKEND  ---      ---       LVL=0

      00FF89B7H   BLOCK     CODE     ---       LVL=0
      00FF89B7H   LINE      ---      ---       #626
      00FF89BBH   LINE      ---      ---       #627
      REG=7       REGSYM    ---      ---       pCmdAddress
      00FF89BBH   BLOCK     CODE     NEAR LAB  LVL=1
      00FF89BBH   LINE      ---      ---       #642
      00FF89BEH   LINE      ---      ---       #646
      00FF89D9H   LINE      ---      ---       #649
      00FF89D9H   LINE      ---      ---       #653
      00FF89E5H   LINE      ---      ---       #654
      00FF89EDH   LINE      ---      ---       #655
      00FF89F5H   LINE      ---      ---       #656
      00FF89FDH   LINE      ---      ---       #659
      00FF8A13H   LINE      ---      ---       #661
      00FF8A1BH   LINE      ---      ---       #662
      00FF8A1DH   LINE      ---      ---       #663
      00FF8A1DH   LINE      ---      ---       #666
      00FF8A33H   LINE      ---      ---       #669
      00FF8A39H   LINE      ---      ---       #670
      00FF8A41H   LINE      ---      ---       #682
      00FF8A49H   LINE      ---      ---       #684
      00FF8A5AH   LINE      ---      ---       #688
      00FF8A66H   LINE      ---      ---       #690
      00FF8A66H   LINE      ---      ---       #693
      REG=7       REGSYM    ---      ---       pCmdIn
      DR12        REGSYM    ---      DWORD     periodicReportCycle
      ---         BLOCKEND  CODE     ---       LVL=1
      00FF8A70H   LINE      ---      ---       #694
      00FF8A70H   LINE      CODE     ---       #694

      00FF3192H   BLOCK     CODE     ---       LVL=0
      00FF3192H   LINE      ---      ---       #696
      00FF3192H   LINE      ---      ---       #698
      00FF3192H   LINE      ---      ---       #710
      00FF3194H   LINE      ---      ---       #715
      00FF319AH   LINE      ---      ---       #724
      00FF319DH   LINE      ---      ---       #734
L251 LINKER/LOCATER V4.66.93.0                                                        12/18/2023  14:21:09  PAGE 86


      00FF31A2H   LINE      ---      ---       #741
      ---         BLOCKEND  ---      ---       LVL=0

      00FF4428H   BLOCK     CODE     ---       LVL=0
      00FF4428H   LINE      ---      ---       #744
      00FF4428H   LINE      ---      ---       #746
      00FF4428H   LINE      ---      ---       #747
      00FF4432H   LINE      ---      ---       #748
      ---         BLOCKEND  ---      ---       LVL=0

      00FF44FBH   BLOCK     CODE     ---       LVL=0
      00FF44FBH   LINE      ---      ---       #751
      00FF44FBH   LINE      ---      ---       #753
      00FF44FBH   LINE      ---      ---       #754
      00FF4505H   LINE      ---      ---       #755
      ---         BLOCKEND  ---      ---       LVL=0

      00FF8B31H   BLOCK     CODE     ---       LVL=0
      00FF8B31H   LINE      ---      ---       #761
      00FF8B35H   LINE      ---      ---       #766
      00FF8B38H   LINE      ---      ---       #772
      00FF8B3CH   LINE      ---      ---       #774
      00FF8B43H   LINE      ---      ---       #776
      00FF8B4DH   LINE      ---      ---       #777
      REG=7       REGSYM    ---      ---       pCmdAddress
      ---         BLOCKEND  ---      ---       LVL=0

      00FF8B50H   BLOCK     CODE     ---       LVL=0
      00FF8B50H   LINE      ---      ---       #779
      00FF8B50H   LINE      ---      ---       #781
      00FF8B50H   LINE      ---      ---       #786
      00FF8B53H   LINE      ---      ---       #795
      00FF8B58H   LINE      ---      ---       #797
      00FF8B5CH   LINE      ---      ---       #799
      ---         BLOCKEND  ---      ---       LVL=0

      00FF4492H   BLOCK     CODE     ---       LVL=0
      00FF4492H   LINE      ---      ---       #804
      00FF4492H   LINE      ---      ---       #806
      00FF4492H   LINE      ---      ---       #807
      00FF449CH   LINE      ---      ---       #811
      ---         BLOCKEND  ---      ---       LVL=0

      00FF8B66H   BLOCK     CODE     ---       LVL=0
      00FF8B66H   LINE      ---      ---       #817
      00FF8B6AH   LINE      ---      ---       #818
      REG=7       REGSYM    ---      ---       pCmdAddress
      00FF8B6AH   BLOCK     CODE     NEAR LAB  LVL=1
      00FF8B6AH   LINE      ---      ---       #827
      00FF8B6DH   LINE      ---      ---       #831
      00FF8B71H   LINE      ---      ---       #832
      00FF8B78H   LINE      ---      ---       #833
      00FF8B7CH   LINE      ---      ---       #835
      00FF8B81H   LINE      ---      ---       #838
      00FF8B84H   LINE      ---      ---       #839
      00FF8B84H   LINE      ---      ---       #840
      00FF8B88H   LINE      ---      ---       #843
      00FF8B8DH   LINE      ---      ---       #846
      00FF8BA5H   LINE      ---      ---       #848
      0000B5EAH   SYMBOL    EDATA    BYTE      ModemType
      R13         REGSYM    ---      BYTE      rfkBandType
      R12         REGSYM    ---      BYTE      ClockMode
      ---         BLOCKEND  CODE     ---       LVL=1
      00FF8BAFH   LINE      ---      ---       #849
      00FF8BAFH   LINE      CODE     ---       #849
L251 LINKER/LOCATER V4.66.93.0                                                        12/18/2023  14:21:09  PAGE 87



      00FF8BB2H   BLOCK     CODE     ---       LVL=0
      00FF8BB2H   LINE      ---      ---       #852
      00FF8BB6H   LINE      ---      ---       #858
      00FF8BB9H   LINE      ---      ---       #865
      00FF8BBDH   LINE      ---      ---       #867
      00FF8BC6H   LINE      ---      ---       #869
      00FF8BCAH   LINE      ---      ---       #870
      00FF8BD1H   LINE      ---      ---       #872
      00FF8BDFH   LINE      ---      ---       #874
      00FF8BE5H   LINE      ---      ---       #875
      00FF8BEDH   LINE      ---      ---       #876
      00FF8BEDH   LINE      ---      ---       #877
      00FF8BF5H   LINE      ---      ---       #878
      00FF8BFAH   LINE      ---      ---       #879
      00FF8BFCH   LINE      ---      ---       #882
      00FF8C02H   LINE      ---      ---       #883
      00FF8C08H   LINE      ---      ---       #885
      00FF8C0EH   LINE      ---      ---       #887
      00FF8C1FH   LINE      ---      ---       #888
      00FF8C1FH   LINE      ---      ---       #891
      00FF8C1FH   LINE      ---      ---       #893
      00FF8C29H   LINE      ---      ---       #894
      REG=7       REGSYM    ---      ---       pCmdAddress
      ---         BLOCKEND  ---      ---       LVL=0

      00FF8C2CH   BLOCK     CODE     ---       LVL=0
      00FF8C2CH   LINE      ---      ---       #896
      00FF8C2CH   LINE      ---      ---       #924
      00FF8C2CH   LINE      ---      ---       #928
      ---         BLOCKEND  ---      ---       LVL=0

      00FF8C36H   BLOCK     CODE     ---       LVL=0
      00FF8C36H   LINE      ---      ---       #931
      00FF8C36H   LINE      ---      ---       #932
      REG=3       REGSYM    ---      ---       pCmdAddress
      00FF8C36H   BLOCK     CODE     NEAR LAB  LVL=1
      00FF8C36H   LINE      ---      ---       #947
      00FF8C36H   LINE      ---      ---       #949
      00FF8C3FH   LINE      ---      ---       #951
      REG=3       REGSYM    ---      ---       pCmdIn
      ---         BLOCKEND  CODE     ---       LVL=1
      ---         BLOCKEND  CODE     ---       LVL=0

      00FF4260H   BLOCK     CODE     ---       LVL=0
      00FF4260H   LINE      ---      ---       #957
      00FF4264H   LINE      ---      ---       #958
      REG=7       REGSYM    ---      ---       pCmdAddress
      00FF4264H   BLOCK     CODE     NEAR LAB  LVL=1
      00FF4264H   LINE      ---      ---       #969
      00FF4267H   LINE      ---      ---       #973
      00FF4281H   LINE      ---      ---       #976
      00FF4285H   LINE      ---      ---       #977
      00FF4291H   LINE      ---      ---       #980
      00FF4297H   LINE      ---      ---       #981
      00FF42A4H   LINE      ---      ---       #984
      00FF42A4H   LINE      ---      ---       #985
      00FF42B4H   LINE      ---      ---       #987
      00FF42B4H   LINE      ---      ---       #988
      00FF42B4H   LINE      ---      ---       #989
      00FF42C0H   LINE      ---      ---       #990
      00FF42C2H   LINE      ---      ---       #993
      00FF42C2H   LINE      ---      ---       #994
      00FF42DAH   LINE      ---      ---       #996
      00FF42DAH   LINE      ---      ---       #997
L251 LINKER/LOCATER V4.66.93.0                                                        12/18/2023  14:21:09  PAGE 88


      00FF42DAH   LINE      ---      ---       #998
      00FF42E2H   LINE      ---      ---       #999
      00FF42E2H   LINE      ---      ---       #1001
      00FF42E2H   LINE      ---      ---       #1002
      00FF42E2H   LINE      ---      ---       #1004
      00FF42E2H   LINE      ---      ---       #1005
      00FF42F8H   LINE      ---      ---       #1007
      00FF42F8H   LINE      ---      ---       #1008
      00FF42F8H   LINE      ---      ---       #1009
      00FF42FDH   LINE      ---      ---       #1011
      00FF4301H   LINE      ---      ---       #1012
      00FF4307H   LINE      ---      ---       #1013
      00FF4319H   LINE      ---      ---       #1014
      00FF4330H   LINE      ---      ---       #1015
      00FF4336H   LINE      ---      ---       #1016
      00FF433AH   LINE      ---      ---       #1017
      00FF433EH   LINE      ---      ---       #1018
      00FF4344H   LINE      ---      ---       #1022
      00FF434CH   LINE      ---      ---       #1024
      00FF434CH   LINE      ---      ---       #1025
      00FF434CH   SYMBOL    CODE     NEAR LAB  DONE?1940?mac_cmd_hdlr
      0000B5BEH   SYMBOL    EDATA    ---       pCmdIn
      DR12        REGSYM    ---      DWORD     freqTmp
      0000B5C0H   SYMBOL    EDATA    BYTE      result
      00FF4362H   SYMBOL    CODE     NEAR LAB  DONE?1940
      ---         BLOCKEND  CODE     ---       LVL=1
      00FF4358H   LINE      ---      ---       #1026
      00FF4358H   LINE      CODE     ---       #1026

      00FF9102H   BLOCK     CODE     ---       LVL=0
      00FF9102H   LINE      ---      ---       #1055
      00FF9102H   LINE      ---      ---       #1064
      00FF9102H   LINE      ---      ---       #1067
      00FF9107H   LINE      ---      ---       #1069
      00FF910FH   LINE      ---      ---       #1070
      00FF9113H   LINE      ---      ---       #1071
      00FF9119H   LINE      ---      ---       #1072
      00FF911EH   LINE      ---      ---       #1082
      00FF9121H   LINE      ---      ---       #1085
      00FF913BH   LINE      ---      ---       #1086
      00FF914BH   LINE      ---      ---       #1087
      00FF915DH   LINE      ---      ---       #1088
      00FF916BH   LINE      ---      ---       #1091
      ---         BLOCKEND  ---      ---       LVL=0

      00FF5B10H   BLOCK     CODE     ---       LVL=0
      00FF5B10H   LINE      ---      ---       #1094
      00FF5B14H   LINE      ---      ---       #1096
      00FF5B1BH   LINE      ---      ---       #1097
      00FF5B23H   LINE      ---      ---       #1098
      00FF5B2BH   LINE      ---      ---       #1099
      00FF5B32H   LINE      ---      ---       #1100
      REG=0       REGSYM    ---      ---       aValue
      REG=1       REGSYM    ---      ---       aBuffer
      ---         BLOCKEND  ---      ---       LVL=0

      00FF5A59H   BLOCK     CODE     ---       LVL=0
      00FF5A59H   LINE      ---      ---       #1103
      00FF5A5FH   LINE      ---      ---       #1104
      REG=7       REGSYM    ---      ---       pCmdAddress
      00FF5A5FH   BLOCK     CODE     NEAR LAB  LVL=1
      00FF5A5FH   LINE      ---      ---       #1106
      00FF5A63H   LINE      ---      ---       #1111
      00FF5A67H   LINE      ---      ---       #1113
      00FF5A6EH   LINE      ---      ---       #1114
L251 LINKER/LOCATER V4.66.93.0                                                        12/18/2023  14:21:09  PAGE 89


      00FF5A70H   LINE      ---      ---       #1117
      00FF5A83H   LINE      ---      ---       #1119
      00FF5A8EH   LINE      ---      ---       #1120
      00FF5A90H   LINE      ---      ---       #1122
      00FF5AA3H   LINE      ---      ---       #1123
      00FF5AA5H   LINE      ---      ---       #1125
      00FF5AB8H   LINE      ---      ---       #1126
      00FF5ABAH   LINE      ---      ---       #1128
      00FF5AC5H   LINE      ---      ---       #1129
      00FF5AC7H   LINE      ---      ---       #1131
      00FF5AD0H   LINE      ---      ---       #1150
      00FF5AE4H   LINE      ---      ---       #1151
      00FF5AF8H   LINE      ---      ---       #1152
      00FF5B06H   LINE      ---      ---       #1160
      R13         REGSYM    ---      BYTE      Pannum
      ---         BLOCKEND  CODE     ---       LVL=1
      00FF5B0BH   LINE      ---      ---       #1161
      00FF5B0BH   LINE      CODE     ---       #1161

      00FF5F5DH   BLOCK     CODE     ---       LVL=0
      00FF5F5DH   LINE      ---      ---       #1164
      00FF5F61H   LINE      ---      ---       #1166
      00FF5F7CH   LINE      ---      ---       #1169
      00FF5F89H   LINE      ---      ---       #1172
      00FF5F91H   LINE      ---      ---       #1175
      00FF5F9BH   LINE      ---      ---       #1176
      REG=7       REGSYM    ---      ---       pCmdAddress
      ---         BLOCKEND  ---      ---       LVL=0

      00FF5EE9H   BLOCK     CODE     ---       LVL=0
      00FF5EE9H   LINE      ---      ---       #1178
      00FF5EEDH   LINE      ---      ---       #1180
      00FF5F08H   LINE      ---      ---       #1183
      00FF5F15H   LINE      ---      ---       #1185
      00FF5F1FH   LINE      ---      ---       #1186
      REG=7       REGSYM    ---      ---       pCmdAddress
      ---         BLOCKEND  ---      ---       LVL=0

      00FF5E98H   BLOCK     CODE     ---       LVL=0
      00FF5E98H   LINE      ---      ---       #1188
      00FF5E98H   LINE      ---      ---       #1190
      00FF5EA0H   LINE      ---      ---       #1191
      REG=3       REGSYM    ---      ---       pCmdAddress
      ---         BLOCKEND  ---      ---       LVL=0

      00FF59F5H   BLOCK     CODE     ---       LVL=0
      00FF59F5H   LINE      ---      ---       #1194
      00FF59F9H   LINE      ---      ---       #1195
      REG=7       REGSYM    ---      ---       pCmdAddress
      00FF59F9H   BLOCK     CODE     NEAR LAB  LVL=1
      00FF59F9H   LINE      ---      ---       #1200
      00FF59FBH   LINE      ---      ---       #1202
      00FF5A05H   LINE      ---      ---       #1207
      00FF5A0BH   LINE      ---      ---       #1208
      00FF5A15H   LINE      ---      ---       #1210
      R6          REGSYM    ---      BYTE      Pannum
      ---         BLOCKEND  CODE     ---       LVL=1
      00FF5A1FH   LINE      ---      ---       #1214
      00FF5A1FH   LINE      CODE     ---       #1214

      00FF59D6H   BLOCK     CODE     ---       LVL=0
      00FF59D6H   LINE      ---      ---       #1218
      00FF59D6H   LINE      ---      ---       #1220
      00FF59DCH   LINE      ---      ---       #1222
      REG=3       REGSYM    ---      ---       pCmdAddress
L251 LINKER/LOCATER V4.66.93.0                                                        12/18/2023  14:21:09  PAGE 90


      ---         BLOCKEND  ---      ---       LVL=0

      00FF5B33H   BLOCK     CODE     ---       LVL=0
      00FF5B33H   LINE      ---      ---       #1225
      00FF5B3BH   LINE      ---      ---       #1226
      REG=6       REGSYM    ---      ---       pCmdAddress
      R14         REGSYM    ---      BYTE      cmdSubheader
      R15         REGSYM    ---      BYTE      type
      00FF5B3BH   BLOCK     CODE     NEAR LAB  LVL=1
      00FF5B3BH   LINE      ---      ---       #1227
      00FF5B40H   LINE      ---      ---       #1230
      00FF5B48H   LINE      ---      ---       #1232
      00FF5B77H   LINE      ---      ---       #1234
      00FF5B77H   LINE      ---      ---       #1235
      00FF5B7DH   LINE      ---      ---       #1236
      00FF5B7FH   LINE      ---      ---       #1238
      00FF5B7FH   LINE      ---      ---       #1239
      00FF5B7FH   LINE      ---      ---       #1240
      00FF5B7FH   LINE      ---      ---       #1241
      00FF5B7FH   LINE      ---      ---       #1243
      00FF5B8BH   LINE      ---      ---       #1244
      00FF5B8EH   LINE      ---      ---       #1246
      00FF5B98H   LINE      ---      ---       #1248
      00FF5B98H   LINE      ---      ---       #1249
      00FF5B9AH   LINE      ---      ---       #1253
      00FF5BA2H   LINE      ---      ---       #1254
      00FF5BA2H   LINE      ---      ---       #1255
      00FF5BA4H   LINE      ---      ---       #1257
      00FF5BA4H   LINE      ---      ---       #1258
      00FF5BA4H   LINE      ---      ---       #1259
      00FF5BA4H   LINE      ---      ---       #1260
      00FF5BA4H   LINE      ---      ---       #1261
      00FF5BADH   LINE      ---      ---       #1262
      00FF5BAFH   LINE      ---      ---       #1264
      00FF5BAFH   LINE      ---      ---       #1265
      00FF5BB9H   LINE      ---      ---       #1267
      00FF5BBBH   LINE      ---      ---       #1268
      00FF5BBBH   LINE      ---      ---       #1269
      00FF5BBDH   LINE      ---      ---       #1271
      00FF5BBDH   LINE      ---      ---       #1272
      00FF5BC3H   LINE      ---      ---       #1273
      00FF5BC3H   LINE      ---      ---       #1274
      00FF5BC3H   LINE      ---      ---       #1276
      0000B5D2H   SYMBOL    EDATA    BYTE      cmdCnfStatus
      0000B5D3H   SYMBOL    EDATA    BYTE      listidx
      ---         BLOCKEND  CODE     ---       LVL=1
      00FF5BCEH   LINE      ---      ---       #1277
      00FF5BCEH   LINE      CODE     ---       #1277

      00FF5880H   BLOCK     CODE     ---       LVL=0
      00FF5880H   LINE      ---      ---       #1294
      00FF5884H   LINE      ---      ---       #1296
      00FF5887H   LINE      ---      ---       #1298
      00FF58A2H   LINE      ---      ---       #1299
      00FF58A6H   LINE      ---      ---       #1301
      00FF58ADH   LINE      ---      ---       #1302
      00FF58AFH   LINE      ---      ---       #1304
      00FF58BAH   LINE      ---      ---       #1305
      00FF58C8H   LINE      ---      ---       #1307
      00FF58D2H   LINE      ---      ---       #1309
      00FF58D8H   LINE      ---      ---       #1310
      00FF58EAH   LINE      ---      ---       #1312
      00FF58ECH   LINE      ---      ---       #1314
      REG=7       REGSYM    ---      ---       pCmdAddress
      ---         BLOCKEND  ---      ---       LVL=0
L251 LINKER/LOCATER V4.66.93.0                                                        12/18/2023  14:21:09  PAGE 91



      00FF596AH   BLOCK     CODE     ---       LVL=0
      00FF596AH   LINE      ---      ---       #1316
      00FF596AH   LINE      ---      ---       #1318
      00FF596AH   LINE      ---      ---       #1319
      00FF5974H   LINE      ---      ---       #1321
      ---         BLOCKEND  ---      ---       LVL=0

      00FF59A0H   BLOCK     CODE     ---       LVL=0
      00FF59A0H   LINE      ---      ---       #1324
      00FF59A0H   LINE      ---      ---       #1326
      00FF59A0H   LINE      ---      ---       #1327
      00FF59AAH   LINE      ---      ---       #1329
      ---         BLOCKEND  ---      ---       LVL=0

      00FF5F22H   BLOCK     CODE     ---       LVL=0
      00FF5F22H   LINE      ---      ---       #1333
      00FF5F26H   LINE      ---      ---       #1335
      00FF5F41H   LINE      ---      ---       #1336
      00FF5F45H   LINE      ---      ---       #1338
      00FF5F50H   LINE      ---      ---       #1339
      00FF5F5AH   LINE      ---      ---       #1341
      REG=7       REGSYM    ---      ---       pCmdAddress
      ---         BLOCKEND  ---      ---       LVL=0

      00FF9175H   BLOCK     CODE     ---       LVL=0
      00FF9175H   LINE      ---      ---       #1346
      00FF9179H   LINE      ---      ---       #1347
      REG=7       REGSYM    ---      ---       pCmdAddress
      00FF9179H   BLOCK     CODE     NEAR LAB  LVL=1
      00FF9179H   LINE      ---      ---       #1360
      00FF917CH   LINE      ---      ---       #1364
      00FF917EH   LINE      ---      ---       #1365
      00FF9186H   LINE      ---      ---       #1368
      00FF918DH   LINE      ---      ---       #1370
      00FF91A5H   LINE      ---      ---       #1377
      REG=3       REGSYM    ---      ---       pCmdIn
      R15         REGSYM    ---      BYTE      rfkBandType
      ---         BLOCKEND  CODE     ---       LVL=1
      00FF91AFH   LINE      ---      ---       #1378
      00FF91AFH   LINE      CODE     ---       #1378

      00FF91B2H   BLOCK     CODE     ---       LVL=0
      00FF91B2H   LINE      ---      ---       #1380
      00FF91B6H   LINE      ---      ---       #1386
      00FF91B9H   LINE      ---      ---       #1393
      00FF91BDH   LINE      ---      ---       #1395
      00FF91C4H   LINE      ---      ---       #1396
      00FF91CAH   LINE      ---      ---       #1399
      00FF91D6H   LINE      ---      ---       #1400
      00FF91E8H   LINE      ---      ---       #1403
      00FF91EDH   LINE      ---      ---       #1404
      REG=7       REGSYM    ---      ---       pCmdAddress
      ---         BLOCKEND  ---      ---       LVL=0

      00FF333EH   BLOCK     CODE     ---       LVL=0
      00FF333EH   LINE      ---      ---       #1405
      REG=7       REGSYM    ---      ---       pCmdAddress
      00FF3342H   BLOCK     CODE     NEAR LAB  LVL=1
      00FF3344H   LINE      ---      ---       #1421
      00FF3348H   LINE      ---      ---       #1423
      00FF334BH   LINE      ---      ---       #1440
      00FF334DH   LINE      ---      ---       #1441
      00FF3357H   LINE      ---      ---       #1442
      00FF335AH   LINE      ---      ---       #1443
L251 LINKER/LOCATER V4.66.93.0                                                        12/18/2023  14:21:09  PAGE 92


      00FF3366H   LINE      ---      ---       #1445
      00FF3369H   LINE      ---      ---       #1446
      00FF336DH   LINE      ---      ---       #1447
      00FF3370H   LINE      ---      ---       #1448
      00FF3376H   LINE      ---      ---       #1450
      00FF337EH   LINE      ---      ---       #1453
      R11         REGSYM    ---      BYTE      crcType
      R11         REGSYM    ---      BYTE      whiteningEn
      R13         REGSYM    ---      BYTE      result
      ---         BLOCKEND  CODE     ---       LVL=1
      00FF3388H   LINE      ---      ---       #1454
      00FF3388H   LINE      CODE     ---       #1454

      00FF31DFH   BLOCK     CODE     ---       LVL=0
      00FF31DFH   LINE      ---      ---       #1506
      00FF31DFH   LINE      ---      ---       #1517
      00FF31E1H   LINE      ---      ---       #1526
      00FF31F7H   LINE      ---      ---       #1533
      ---         BLOCKEND  ---      ---       LVL=0

      00FF8C8BH   BLOCK     CODE     ---       LVL=0
      00FF8C8BH   LINE      ---      ---       #1536
      00FF8C91H   LINE      ---      ---       #1537
      REG=7       REGSYM    ---      ---       pCmdAddress
      00FF8C91H   BLOCK     CODE     NEAR LAB  LVL=1
      00FF8C91H   LINE      ---      ---       #1544
      00FF8C94H   LINE      ---      ---       #1551
      00FF8C94H   LINE      ---      ---       #1553
      00FF8C9DH   LINE      ---      ---       #1555
      00FF8CA9H   LINE      ---      ---       #1556
      00FF8CB3H   LINE      ---      ---       #1558
      00FF8CC1H   LINE      ---      ---       #1559
      00FF8CD5H   LINE      ---      ---       #1560
      00FF8CE9H   LINE      ---      ---       #1565
      00FF8CEBH   LINE      ---      ---       #1568
      00FF8CEFH   LINE      ---      ---       #1570
      00FF8CF5H   LINE      ---      ---       #1572
      00FF8CFEH   LINE      ---      ---       #1573
      00FF8D05H   LINE      ---      ---       #1575
      00FF8D0DH   LINE      ---      ---       #1576
      00FF8D0DH   LINE      ---      ---       #1578
      00FF8D17H   LINE      ---      ---       #1580
      00FF8D23H   LINE      ---      ---       #1581
      00FF8D35H   LINE      ---      ---       #1586
      00FF8D35H   LINE      ---      ---       #1588
      REG=7       REGSYM    ---      ---       pCmdIn
      ---         BLOCKEND  CODE     ---       LVL=1
      00FF8D3AH   LINE      ---      ---       #1589
      00FF8D3AH   LINE      CODE     ---       #1589

      00FF8E49H   BLOCK     CODE     ---       LVL=0
      00FF8E49H   LINE      ---      ---       #1591
      00FF8E4DH   LINE      ---      ---       #1592
      REG=7       REGSYM    ---      ---       pCmdAddress
      00FF8E4DH   BLOCK     CODE     NEAR LAB  LVL=1
      00FF8E4DH   LINE      ---      ---       #1599
      00FF8E50H   LINE      ---      ---       #1603
      00FF8E6BH   LINE      ---      ---       #1606
      00FF8E6BH   LINE      ---      ---       #1609
      00FF8E71H   LINE      ---      ---       #1610
      00FF8E75H   LINE      ---      ---       #1612
      00FF8E80H   LINE      ---      ---       #1614
      00FF8E8FH   LINE      ---      ---       #1615
      00FF8EA8H   LINE      ---      ---       #1616
      00FF8EC2H   LINE      ---      ---       #1624
L251 LINKER/LOCATER V4.66.93.0                                                        12/18/2023  14:21:09  PAGE 93


      REG=7       REGSYM    ---      ---       pCmdIn
      ---         BLOCKEND  CODE     ---       LVL=1
      00FF8ECCH   LINE      ---      ---       #1625
      00FF8ECCH   LINE      CODE     ---       #1625

      00FF8FF7H   BLOCK     CODE     ---       LVL=0
      00FF8FF7H   LINE      ---      ---       #1628
      00FF8FFBH   LINE      ---      ---       #1629
      REG=7       REGSYM    ---      ---       pCmdAddress
      00FF8FFBH   BLOCK     CODE     NEAR LAB  LVL=1
      00FF8FFBH   LINE      ---      ---       #1632
      00FF9001H   LINE      ---      ---       #1633
      00FF9009H   LINE      ---      ---       #1634
      00FF900BH   LINE      ---      ---       #1635
      00FF900BH   LINE      ---      ---       #1637
      00FF9026H   LINE      ---      ---       #1639
      00FF9028H   LINE      ---      ---       #1641
      00FF9030H   LINE      ---      ---       #1642
      00FF9038H   LINE      ---      ---       #1643
      00FF9040H   LINE      ---      ---       #1644
      00FF9048H   LINE      ---      ---       #1645
      00FF9050H   LINE      ---      ---       #1646
      00FF9058H   LINE      ---      ---       #1647
      00FF9060H   LINE      ---      ---       #1648
      00FF9068H   LINE      ---      ---       #1649
      00FF9074H   LINE      ---      ---       #1650
      00FF9080H   LINE      ---      ---       #1651
      00FF908DH   LINE      ---      ---       #1653
      REG=3       REGSYM    ---      ---       p_para
      ---         BLOCKEND  CODE     ---       LVL=1
      00FF9097H   LINE      ---      ---       #1654
      00FF9097H   LINE      CODE     ---       #1654

      00FF8E11H   BLOCK     CODE     ---       LVL=0
      00FF8E11H   LINE      ---      ---       #1656
      00FF8E11H   LINE      ---      ---       #1657
      REG=3       REGSYM    ---      ---       pCmdAddress
      00FF8E11H   BLOCK     CODE     NEAR LAB  LVL=1
      00FF8E11H   LINE      ---      ---       #1658
      00FF8E13H   LINE      ---      ---       #1661
      00FF8E19H   LINE      ---      ---       #1662
      00FF8E21H   LINE      ---      ---       #1663
      00FF8E23H   LINE      ---      ---       #1664
      00FF8E23H   LINE      ---      ---       #1669
      00FF8E36H   LINE      ---      ---       #1672
      REG=2       REGSYM    ---      ---       para
      R6          REGSYM    ---      BYTE      result
      ---         BLOCKEND  CODE     ---       LVL=1
      ---         BLOCKEND  CODE     ---       LVL=0

      00FF8DE1H   BLOCK     CODE     ---       LVL=0
      00FF8DE1H   LINE      ---      ---       #1675
      00FF8DE1H   LINE      ---      ---       #1676
      REG=3       REGSYM    ---      ---       pCmdAddress
      00FF8DE1H   BLOCK     CODE     NEAR LAB  LVL=1
      00FF8DE1H   LINE      ---      ---       #1677
      00FF8DE3H   LINE      ---      ---       #1679
      00FF8DE9H   LINE      ---      ---       #1680
      00FF8DF1H   LINE      ---      ---       #1681
      00FF8DF3H   LINE      ---      ---       #1682
      00FF8DF3H   LINE      ---      ---       #1684
      00FF8DFBH   LINE      ---      ---       #1686
      00FF8DFDH   LINE      ---      ---       #1690
      00FF8E07H   LINE      ---      ---       #1692
      00FF8E07H   LINE      ---      ---       #1694
L251 LINKER/LOCATER V4.66.93.0                                                        12/18/2023  14:21:09  PAGE 94


      REG=2       REGSYM    ---      ---       para
      ---         BLOCKEND  CODE     ---       LVL=1
      ---         BLOCKEND  CODE     ---       LVL=0

      00FF909AH   BLOCK     CODE     ---       LVL=0
      00FF909AH   LINE      ---      ---       #1697
      00FF909AH   LINE      ---      ---       #1699
      00FF909AH   LINE      ---      ---       #1701
      00FF90A0H   LINE      ---      ---       #1702
      00FF90A8H   LINE      ---      ---       #1703
      00FF90AAH   LINE      ---      ---       #1704
      00FF90AAH   LINE      ---      ---       #1706
      00FF90B0H   LINE      ---      ---       #1707
      00FF90B5H   LINE      ---      ---       #1709
      ---         BLOCKEND  ---      ---       LVL=0

      00FF8DC3H   BLOCK     CODE     ---       LVL=0
      00FF8DC3H   LINE      ---      ---       #1712
      00FF8DC3H   LINE      ---      ---       #1714
      00FF8DC3H   LINE      ---      ---       #1716
      00FF8DC9H   LINE      ---      ---       #1717
      00FF8DD4H   LINE      ---      ---       #1718
      00FF8DD4H   LINE      ---      ---       #1719
      00FF8DD4H   LINE      ---      ---       #1721
      00FF8DD6H   LINE      ---      ---       #1722
      00FF8DDCH   LINE      ---      ---       #1723
      ---         BLOCKEND  ---      ---       LVL=0

      00FF8DA6H   BLOCK     CODE     ---       LVL=0
      00FF8DA6H   LINE      ---      ---       #1726
      00FF8DA6H   LINE      ---      ---       #1728
      00FF8DA6H   LINE      ---      ---       #1730
      00FF8DB4H   LINE      ---      ---       #1731
      00FF8DBFH   LINE      ---      ---       #1732
      00FF8DBFH   LINE      ---      ---       #1733
      00FF8DBFH   LINE      ---      ---       #1738
      ---         BLOCKEND  ---      ---       LVL=0

      00FF90BFH   BLOCK     CODE     ---       LVL=0
      00FF90BFH   LINE      ---      ---       #1742
      00FF90C1H   LINE      ---      ---       #1743
      REG=3       REGSYM    ---      ---       pCmdAddress
      00FF90C1H   BLOCK     CODE     NEAR LAB  LVL=1
      00FF90C1H   LINE      ---      ---       #1744
      00FF90C3H   LINE      ---      ---       #1745
      00FF90CCH   LINE      ---      ---       #1747
      00FF90D4H   LINE      ---      ---       #1748
      00FF90D6H   LINE      ---      ---       #1749
      00FF90D6H   LINE      ---      ---       #1754
      00FF90D9H   LINE      ---      ---       #1760
      00FF90F5H   LINE      ---      ---       #1762
      REG=7       REGSYM    ---      ---       para
      ---         BLOCKEND  CODE     ---       LVL=1
      00FF90FFH   LINE      ---      ---       #1764
      00FF90FFH   LINE      CODE     ---       #1764

      00FF2F1EH   BLOCK     CODE     ---       LVL=0
      00FF2F1EH   LINE      ---      ---       #1766
      00FF2F20H   LINE      ---      ---       #1767
      REG=3       REGSYM    ---      ---       pCmdAddress
      00FF2F20H   BLOCK     CODE     NEAR LAB  LVL=1
      00FF2F20H   LINE      ---      ---       #1768
      00FF2F22H   LINE      ---      ---       #1770
      00FF2F2BH   LINE      ---      ---       #1771
      00FF2F35H   LINE      ---      ---       #1772
L251 LINKER/LOCATER V4.66.93.0                                                        12/18/2023  14:21:09  PAGE 95


      00FF2F37H   LINE      ---      ---       #1773
      00FF2F37H   LINE      ---      ---       #1775
      00FF2F40H   LINE      ---      ---       #1777
      00FF2F51H   LINE      ---      ---       #1779
      00FF2F51H   LINE      ---      ---       #1780
      00FF2F54H   LINE      ---      ---       #1781
      00FF2F56H   LINE      ---      ---       #1782
      00FF2F56H   LINE      ---      ---       #1783
      00FF2F59H   LINE      ---      ---       #1784
      00FF2F5BH   LINE      ---      ---       #1785
      00FF2F5BH   LINE      ---      ---       #1786
      00FF2F5EH   LINE      ---      ---       #1787
      00FF2F60H   LINE      ---      ---       #1788
      00FF2F60H   LINE      ---      ---       #1789
      00FF2F63H   LINE      ---      ---       #1790
      00FF2F63H   LINE      ---      ---       #1791
      REG=7       REGSYM    ---      ---       para
      ---         BLOCKEND  CODE     ---       LVL=1
      00FF2F63H   LINE      ---      ---       #1793
      00FF2F63H   LINE      CODE     ---       #1793

      00FF3261H   BLOCK     CODE     ---       LVL=0
      00FF3261H   LINE      ---      ---       #1800
      00FF3265H   LINE      ---      ---       #1801
      REG=7       REGSYM    ---      ---       pCmdAddress
      00FF3265H   BLOCK     CODE     NEAR LAB  LVL=1
      00FF3265H   LINE      ---      ---       #1813
      00FF3267H   LINE      ---      ---       #1820
      00FF326BH   LINE      ---      ---       #1822
      00FF3270H   LINE      ---      ---       #1825
      00FF3273H   LINE      ---      ---       #1826
      00FF3273H   LINE      ---      ---       #1829
      00FF3277H   LINE      ---      ---       #1831
      00FF328DH   LINE      ---      ---       #1837
      R15         REGSYM    ---      BYTE      rfkBandType
      ---         BLOCKEND  CODE     ---       LVL=1
      00FF3297H   LINE      ---      ---       #1838
      00FF3297H   LINE      CODE     ---       #1838

      00FF8C49H   BLOCK     CODE     ---       LVL=0
      00FF8C49H   LINE      ---      ---       #1840
      00FF8C4DH   LINE      ---      ---       #1841
      REG=7       REGSYM    ---      ---       pCmdAddress
      00FF8C4DH   BLOCK     CODE     NEAR LAB  LVL=1
      00FF8C4DH   LINE      ---      ---       #1848
      00FF8C50H   LINE      ---      ---       #1855
      00FF8C54H   LINE      ---      ---       #1857
      00FF8C5BH   LINE      ---      ---       #1858
      00FF8C61H   LINE      ---      ---       #1859
      00FF8C65H   LINE      ---      ---       #1860
      00FF8C71H   LINE      ---      ---       #1861
      00FF8C83H   LINE      ---      ---       #1863
      R15         REGSYM    ---      BYTE      modIdx
      ---         BLOCKEND  CODE     ---       LVL=1
      00FF8C88H   LINE      ---      ---       #1864
      00FF8C88H   LINE      CODE     ---       #1864

      00FF32E6H   BLOCK     CODE     ---       LVL=0
      00FF32E6H   LINE      ---      ---       #1866
      REG=7       REGSYM    ---      ---       pCmdAddress
      00FF32EAH   BLOCK     CODE     NEAR LAB  LVL=1
      00FF32ECH   LINE      ---      ---       #1882
      00FF32F0H   LINE      ---      ---       #1884
      00FF32F3H   LINE      ---      ---       #1885
      00FF32F5H   LINE      ---      ---       #1886
L251 LINKER/LOCATER V4.66.93.0                                                        12/18/2023  14:21:09  PAGE 96


      00FF32FFH   LINE      ---      ---       #1887
      00FF3302H   LINE      ---      ---       #1888
      00FF330EH   LINE      ---      ---       #1890
      00FF3311H   LINE      ---      ---       #1892
      00FF3315H   LINE      ---      ---       #1893
      00FF3318H   LINE      ---      ---       #1894
      00FF331EH   LINE      ---      ---       #1896
      00FF3326H   LINE      ---      ---       #1902
      R11         REGSYM    ---      BYTE      crcType
      R11         REGSYM    ---      BYTE      whiteningEn
      R13         REGSYM    ---      BYTE      result
      ---         BLOCKEND  CODE     ---       LVL=1
      00FF3330H   LINE      ---      ---       #1903
      00FF3330H   LINE      CODE     ---       #1903

      00FF31ACH   BLOCK     CODE     ---       LVL=0
      00FF31ACH   LINE      ---      ---       #1905
      00FF31B0H   LINE      ---      ---       #1906
      REG=7       REGSYM    ---      ---       pCmdAddress
      00FF31B0H   BLOCK     CODE     NEAR LAB  LVL=1
      00FF31B0H   LINE      ---      ---       #1913
      00FF31B2H   LINE      ---      ---       #1920
      00FF31B6H   LINE      ---      ---       #1922
      00FF31B9H   LINE      ---      ---       #1923
      00FF31BBH   LINE      ---      ---       #1929
      R11         REGSYM    ---      BYTE      preambleLen
      ---         BLOCKEND  CODE     ---       LVL=1
      00FF31C5H   LINE      ---      ---       #1930
      00FF31C5H   LINE      CODE     ---       #1930

      00FF329AH   BLOCK     CODE     ---       LVL=0
      00FF329AH   LINE      ---      ---       #1932
      00FF329EH   LINE      ---      ---       #1933
      REG=7       REGSYM    ---      ---       pCmdAddress
      00FF329EH   BLOCK     CODE     NEAR LAB  LVL=1
      00FF329EH   LINE      ---      ---       #1940
      00FF32A0H   LINE      ---      ---       #1944
      00FF32BBH   LINE      ---      ---       #1945
      00FF32BFH   LINE      ---      ---       #1947
      00FF32C8H   LINE      ---      ---       #1948
      00FF32D1H   LINE      ---      ---       #1949
      00FF32D9H   LINE      ---      ---       #1955
      DR12        REGSYM    ---      DWORD     sfdContent
      ---         BLOCKEND  CODE     ---       LVL=1
      00FF32E3H   LINE      ---      ---       #1956
      00FF32E3H   LINE      CODE     ---       #1956

      00FF33A8H   BLOCK     CODE     ---       LVL=0
      00FF33A8H   LINE      ---      ---       #1958
      00FF33A8H   LINE      ---      ---       #1959
      REG=3       REGSYM    ---      ---       pCmdAddress
      00FF33A8H   BLOCK     CODE     NEAR LAB  LVL=1
      00FF33A8H   LINE      ---      ---       #1968
      00FF33A8H   LINE      ---      ---       #1970
      00FF33B0H   LINE      ---      ---       #1976
      REG=3       REGSYM    ---      ---       pCmdIn
      ---         BLOCKEND  CODE     ---       LVL=1
      ---         BLOCKEND  CODE     ---       LVL=0

      00FF88B2H   BLOCK     CODE     ---       LVL=0
      00FF88B2H   LINE      ---      ---       #2065
      00FF88B6H   LINE      ---      ---       #2066
      REG=7       REGSYM    ---      ---       pCmdAddress
      00FF88B6H   BLOCK     CODE     NEAR LAB  LVL=1
      00FF88B6H   LINE      ---      ---       #2077
L251 LINKER/LOCATER V4.66.93.0                                                        12/18/2023  14:21:09  PAGE 97


      00FF88C3H   LINE      ---      ---       #2087
      00FF88C6H   LINE      ---      ---       #2092
      00FF88E1H   LINE      ---      ---       #2095
      00FF88E3H   LINE      ---      ---       #2096
      00FF88EBH   LINE      ---      ---       #2099
      00FF88F1H   LINE      ---      ---       #2100
      00FF88FEH   LINE      ---      ---       #2103
      00FF88FEH   LINE      ---      ---       #2104
      00FF890EH   LINE      ---      ---       #2106
      00FF890EH   LINE      ---      ---       #2107
      00FF890EH   LINE      ---      ---       #2109
      00FF891AH   LINE      ---      ---       #2111
      00FF891CH   LINE      ---      ---       #2114
      00FF891CH   LINE      ---      ---       #2115
      00FF8934H   LINE      ---      ---       #2117
      00FF8934H   LINE      ---      ---       #2118
      00FF8934H   LINE      ---      ---       #2120
      00FF893CH   LINE      ---      ---       #2122
      00FF893CH   LINE      ---      ---       #2124
      00FF893CH   LINE      ---      ---       #2125
      00FF893CH   LINE      ---      ---       #2127
      00FF893CH   LINE      ---      ---       #2128
      00FF8941H   LINE      ---      ---       #2130
      00FF8945H   LINE      ---      ---       #2131
      00FF8949H   LINE      ---      ---       #2133
      00FF8950H   LINE      ---      ---       #2135
      00FF8965H   LINE      ---      ---       #2137
      00FF8987H   LINE      ---      ---       #2138
      00FF8992H   LINE      ---      ---       #2139
      00FF8992H   LINE      ---      ---       #2145
      00FF8992H   LINE      ---      ---       #2146
      00FF8992H   SYMBOL    CODE     NEAR LAB  DONE?5341?mac_cmd_hdlr
      REG=3       REGSYM    ---      ---       pCmdIn
      DR12        REGSYM    ---      DWORD     freqTmp
      0000B58DH   SYMBOL    EDATA    BYTE      result
      0000B58EH   SYMBOL    EDATA    WORD      bufferAddress_LOCAL
      REG=3       REGSYM    ---      ---       pOutput
      0000B590H   SYMBOL    EDATA    BYTE      channelTmp
      00FF89A4H   SYMBOL    CODE     NEAR LAB  DONE?5341
      ---         BLOCKEND  CODE     ---       LVL=1
      00FF899EH   LINE      ---      ---       #2147
      00FF899EH   LINE      CODE     ---       #2147

      00FF4711H   BLOCK     CODE     ---       LVL=0
      00FF4711H   LINE      ---      ---       #2151
      00FF4715H   LINE      ---      ---       #2156
      00FF4718H   LINE      ---      ---       #2159
      00FF4732H   LINE      ---      ---       #2160
      00FF4736H   LINE      ---      ---       #2162
      00FF4741H   LINE      ---      ---       #2169
      00FF4747H   LINE      ---      ---       #2170
      00FF474FH   LINE      ---      ---       #2172
      00FF4757H   LINE      ---      ---       #2173
      REG=7       REGSYM    ---      ---       pCmdAddress
      ---         BLOCKEND  ---      ---       LVL=0

      00FF4662H   BLOCK     CODE     ---       LVL=0
      00FF4662H   LINE      ---      ---       #2177
      00FF4666H   LINE      ---      ---       #2182
      00FF466AH   LINE      ---      ---       #2185
      00FF467AH   LINE      ---      ---       #2186
      00FF467FH   LINE      ---      ---       #2189
      00FF4686H   LINE      ---      ---       #2190
      00FF468CH   LINE      ---      ---       #2194
      00FF4695H   LINE      ---      ---       #2195
L251 LINKER/LOCATER V4.66.93.0                                                        12/18/2023  14:21:09  PAGE 98


      00FF469DH   LINE      ---      ---       #2196
      REG=7       REGSYM    ---      ---       pCmdAddress
      ---         BLOCKEND  ---      ---       LVL=0

      00FF30B4H   BLOCK     CODE     ---       LVL=0
      00FF30B8H   LINE      ---      ---       #2215
      00FF30BCH   LINE      ---      ---       #2216
      00FF30B4H   SYMBOL    CODE     NEAR LAB  ?L?COM004E
      00FF30BCH   BLOCK     CODE     NEAR LAB  LVL=1
      00FF30BCH   LINE      ---      ---       #2220
      00FF30BCH   LINE      ---      ---       #2222
      00FF30BEH   LINE      ---      ---       #2223
      00FF30C4H   LINE      ---      ---       #2227
      00FF30C8H   LINE      ---      ---       #2230
      00FF30CAH   LINE      ---      ---       #2232
      00FF30DBH   LINE      ---      ---       #2234
      00FF30DBH   LINE      ---      ---       #2235
      00FF30DBH   LINE      ---      ---       #2237
      00FF30DBH   LINE      ---      ---       #2238
      00FF30DEH   LINE      ---      ---       #2239
      00FF30E1H   LINE      ---      ---       #2240
      00FF30E3H   LINE      ---      ---       #2243
      00FF30E3H   LINE      ---      ---       #2247
      00FF30E5H   LINE      ---      ---       #2250
      00FF30E8H   LINE      ---      ---       #2251
      00FF30F3H   LINE      ---      ---       #2252
      00FF30F6H   LINE      ---      ---       #2253
      00FF30FBH   LINE      ---      ---       #2254
      00FF3100H   LINE      ---      ---       #2255
      00FF3106H   LINE      ---      ---       #2256
      00FF3124H   LINE      ---      ---       #2258
      00FF3127H   LINE      ---      ---       #2259
      00FF3132H   LINE      ---      ---       #2260
      00FF3132H   LINE      ---      ---       #2261
      00FF3135H   LINE      ---      ---       #2272
      00FF3137H   LINE      ---      ---       #2275
      00FF3137H   LINE      ---      ---       #2276
      00FF313CH   LINE      ---      ---       #2277
      00FF313CH   LINE      ---      ---       #2278
      00FF3141H   LINE      ---      ---       #2279
      00FF3141H   LINE      ---      ---       #2320
      00FF3141H   LINE      ---      ---       #2321
      00FF3141H   LINE      ---      ---       #2322
      00FF3141H   LINE      ---      ---       #2328
      00FF3144H   LINE      ---      ---       #2334
      00FF3146H   LINE      ---      ---       #2341
      00FF314BH   LINE      ---      ---       #2343
      00FF314DH   LINE      ---      ---       #2344
      00FF314FH   LINE      ---      ---       #2347
      00FF3152H   LINE      ---      ---       #2348
      00FF3157H   LINE      ---      ---       #2349
      00FF315BH   LINE      ---      ---       #2351
      00FF3171H   LINE      ---      ---       #2356
      00FF3174H   LINE      ---      ---       #2358
      00FF317AH   LINE      ---      ---       #2359
      R10         REGSYM    ---      BYTE      MacState
      R13         REGSYM    ---      BYTE      queueClr
      WR14        REGSYM    ---      WORD      macFunEventQueue
      ---         BLOCKEND  CODE     ---       LVL=1
      00FF317EH   LINE      ---      ---       #2370
      00FF317EH   LINE      CODE     ---       #2370

      00FF435BH   BLOCK     CODE     ---       LVL=0
      00FF435BH   LINE      ---      ---       #2373
      00FF435DH   LINE      ---      ---       #2375
L251 LINKER/LOCATER V4.66.93.0                                                        12/18/2023  14:21:09  PAGE 99


      00FF43CAH   LINE      ---      ---       #2377
      00FF43CAH   LINE      ---      ---       #2378
      00FF43CFH   LINE      ---      ---       #2379
      00FF43CFH   LINE      ---      ---       #2381
      00FF43CFH   LINE      ---      ---       #2382
      00FF43D3H   LINE      ---      ---       #2383
      00FF43D3H   LINE      ---      ---       #2385
      00FF43D3H   LINE      ---      ---       #2386
      00FF43D7H   LINE      ---      ---       #2387
      00FF43D7H   LINE      ---      ---       #2389
      00FF43D7H   LINE      ---      ---       #2390
      00FF43DBH   LINE      ---      ---       #2391
      00FF43DBH   LINE      ---      ---       #2394
      00FF43DBH   LINE      ---      ---       #2395
      00FF43E0H   LINE      ---      ---       #2396
      00FF43E0H   LINE      ---      ---       #2397
      00FF43E0H   LINE      ---      ---       #2398
      00FF43E5H   LINE      ---      ---       #2399
      00FF43E5H   LINE      ---      ---       #2400
      00FF43E5H   LINE      ---      ---       #2401
      00FF43EAH   LINE      ---      ---       #2402
      00FF43EAH   LINE      ---      ---       #2403
      00FF43EAH   LINE      ---      ---       #2404
      00FF43EFH   LINE      ---      ---       #2405
      00FF43EFH   LINE      ---      ---       #2406
      00FF43EFH   LINE      ---      ---       #2407
      00FF43F3H   LINE      ---      ---       #2408
      00FF43F3H   LINE      ---      ---       #2409
      00FF43F3H   LINE      ---      ---       #2410
      00FF43F7H   LINE      ---      ---       #2411
      00FF43F7H   LINE      ---      ---       #2414
      00FF43F7H   LINE      ---      ---       #2415
      00FF43FCH   LINE      ---      ---       #2416
      00FF43FCH   LINE      ---      ---       #2417
      00FF43FCH   LINE      ---      ---       #2418
      00FF4401H   LINE      ---      ---       #2419
      00FF4401H   LINE      ---      ---       #2420
      00FF4401H   LINE      ---      ---       #2421
      00FF4401H   LINE      ---      ---       #2422
      00FF4403H   LINE      ---      ---       #2424
      00FF4403H   LINE      ---      ---       #2425
      00FF4407H   LINE      ---      ---       #2426
      00FF4407H   LINE      ---      ---       #2427
      00FF4407H   LINE      ---      ---       #2428
      00FF440CH   LINE      ---      ---       #2429
      00FF440CH   LINE      ---      ---       #2431
      00FF440CH   LINE      ---      ---       #2432
      00FF4411H   LINE      ---      ---       #2433
      00FF4411H   LINE      ---      ---       #2434
      00FF4411H   LINE      ---      ---       #2435
      00FF4416H   LINE      ---      ---       #2436
      00FF4416H   LINE      ---      ---       #2437
      00FF4416H   LINE      ---      ---       #2438
      00FF441BH   LINE      ---      ---       #2439
      00FF441BH   LINE      ---      ---       #2442
      00FF441BH   LINE      ---      ---       #2443
      00FF441EH   LINE      ---      ---       #2444
      00FF4422H   LINE      ---      ---       #2445
      00FF4422H   LINE      ---      ---       #2447
      00FF4422H   LINE      ---      ---       #2448
      00FF4427H   LINE      ---      ---       #2449
      00FF4427H   LINE      ---      ---       #2450
      00FF4427H   LINE      ---      ---       #2451
      R11         REGSYM    ---      BYTE      cmdId
      REG=4       REGSYM    ---      ---       pCmdAddress
L251 LINKER/LOCATER V4.66.93.0                                                        12/18/2023  14:21:09  PAGE 100


      REG=2       REGSYM    ---      ---       pCmdCnfStatus
      ---         BLOCKEND  ---      ---       LVL=0

      00FF58EFH   BLOCK     CODE     ---       LVL=0
      00FF58EFH   LINE      ---      ---       #2454
      00FF58F1H   LINE      ---      ---       #2456
      00FF5926H   LINE      ---      ---       #2458
      00FF5926H   LINE      ---      ---       #2459
      00FF592BH   LINE      ---      ---       #2460
      00FF592BH   LINE      ---      ---       #2461
      00FF592BH   LINE      ---      ---       #2462
      00FF592FH   LINE      ---      ---       #2463
      00FF592FH   LINE      ---      ---       #2464
      00FF592FH   LINE      ---      ---       #2465
      00FF5933H   LINE      ---      ---       #2466
      00FF5933H   LINE      ---      ---       #2467
      00FF5933H   LINE      ---      ---       #2468
      00FF5937H   LINE      ---      ---       #2469
      00FF5937H   LINE      ---      ---       #2470
      00FF5937H   LINE      ---      ---       #2471
      00FF593BH   LINE      ---      ---       #2472
      00FF593BH   LINE      ---      ---       #2473
      00FF593BH   LINE      ---      ---       #2474
      00FF593FH   LINE      ---      ---       #2475
      00FF593FH   LINE      ---      ---       #2477
      00FF593FH   LINE      ---      ---       #2478
      00FF5943H   LINE      ---      ---       #2479
      00FF5943H   LINE      ---      ---       #2480
      00FF5943H   LINE      ---      ---       #2481
      00FF5949H   LINE      ---      ---       #2482
      00FF594BH   LINE      ---      ---       #2483
      00FF594BH   LINE      ---      ---       #2484
      00FF5954H   LINE      ---      ---       #2485
      00FF5954H   LINE      ---      ---       #2489
      00FF5954H   LINE      ---      ---       #2490
      00FF5958H   LINE      ---      ---       #2491
      00FF5958H   LINE      ---      ---       #2492
      00FF5958H   LINE      ---      ---       #2493
      00FF595CH   LINE      ---      ---       #2494
      00FF595CH   LINE      ---      ---       #2495
      00FF595CH   LINE      ---      ---       #2496
      00FF5960H   LINE      ---      ---       #2497
      00FF5960H   LINE      ---      ---       #2498
      00FF5960H   LINE      ---      ---       #2499
      00FF5964H   LINE      ---      ---       #2500
      00FF5964H   LINE      ---      ---       #2503
      00FF5964H   LINE      ---      ---       #2504
      00FF5969H   LINE      ---      ---       #2505
      00FF5969H   LINE      ---      ---       #2506
      00FF5969H   LINE      ---      ---       #2507
      R11         REGSYM    ---      BYTE      cmdId
      REG=4       REGSYM    ---      ---       pCmdAddress
      REG=2       REGSYM    ---      ---       pCmdCnfStatus
      ---         BLOCKEND  ---      ---       LVL=0

      00FF8D3FH   BLOCK     CODE     ---       LVL=0
      00FF8D3FH   LINE      ---      ---       #2511
      00FF8D41H   LINE      ---      ---       #2513
      00FF8D70H   LINE      ---      ---       #2515
      00FF8D70H   LINE      ---      ---       #2516
      00FF8D75H   LINE      ---      ---       #2517
      00FF8D75H   LINE      ---      ---       #2518
      00FF8D75H   LINE      ---      ---       #2519
      00FF8D79H   LINE      ---      ---       #2520
      00FF8D79H   LINE      ---      ---       #2521
L251 LINKER/LOCATER V4.66.93.0                                                        12/18/2023  14:21:09  PAGE 101


      00FF8D79H   LINE      ---      ---       #2522
      00FF8D7DH   LINE      ---      ---       #2523
      00FF8D7DH   LINE      ---      ---       #2559
      00FF8D7DH   LINE      ---      ---       #2560
      00FF8D81H   LINE      ---      ---       #2561
      00FF8D81H   LINE      ---      ---       #2563
      00FF8D81H   LINE      ---      ---       #2564
      00FF8D85H   LINE      ---      ---       #2565
      00FF8D85H   LINE      ---      ---       #2567
      00FF8D85H   LINE      ---      ---       #2568
      00FF8D89H   LINE      ---      ---       #2569
      00FF8D89H   LINE      ---      ---       #2571
      00FF8D89H   LINE      ---      ---       #2572
      00FF8D8EH   LINE      ---      ---       #2573
      00FF8D8EH   LINE      ---      ---       #2575
      00FF8D8EH   LINE      ---      ---       #2576
      00FF8D92H   LINE      ---      ---       #2577
      00FF8D92H   LINE      ---      ---       #2579
      00FF8D92H   LINE      ---      ---       #2580
      00FF8D96H   LINE      ---      ---       #2581
      00FF8D96H   LINE      ---      ---       #2583
      00FF8D96H   LINE      ---      ---       #2584
      00FF8D9BH   LINE      ---      ---       #2585
      00FF8D9BH   LINE      ---      ---       #2587
      00FF8D9BH   LINE      ---      ---       #2588
      00FF8DA0H   LINE      ---      ---       #2589
      00FF8DA0H   LINE      ---      ---       #2594
      00FF8DA0H   LINE      ---      ---       #2595
      00FF8DA5H   LINE      ---      ---       #2596
      00FF8DA5H   LINE      ---      ---       #2597
      00FF8DA5H   LINE      ---      ---       #2599
      R11         REGSYM    ---      BYTE      cmdId
      REG=4       REGSYM    ---      ---       pCmdAddress
      REG=2       REGSYM    ---      ---       pCmdCnfStatus
      ---         BLOCKEND  ---      ---       LVL=0

      00FF3233H   BLOCK     CODE     ---       LVL=0
      00FF3233H   LINE      ---      ---       #2603
      00FF3235H   LINE      ---      ---       #2605
      00FF324EH   LINE      ---      ---       #2607
      00FF324EH   LINE      ---      ---       #2608
      00FF3250H   LINE      ---      ---       #2609
      00FF3250H   LINE      ---      ---       #2610
      00FF3250H   LINE      ---      ---       #2611
      00FF3253H   LINE      ---      ---       #2612
      00FF3253H   LINE      ---      ---       #2613
      00FF3253H   LINE      ---      ---       #2614
      00FF3255H   LINE      ---      ---       #2615
      00FF3255H   LINE      ---      ---       #2616
      00FF3255H   LINE      ---      ---       #2617
      00FF3257H   LINE      ---      ---       #2618
      00FF3257H   LINE      ---      ---       #2619
      00FF3257H   LINE      ---      ---       #2620
      00FF3259H   LINE      ---      ---       #2621
      00FF3259H   LINE      ---      ---       #2622
      00FF3259H   LINE      ---      ---       #2623
      00FF325BH   LINE      ---      ---       #2624
      00FF325BH   LINE      ---      ---       #2625
      00FF325BH   LINE      ---      ---       #2626
      00FF3260H   LINE      ---      ---       #2627
      00FF3260H   LINE      ---      ---       #2628
      00FF3260H   LINE      ---      ---       #2630
      R3          REGSYM    ---      BYTE      cmdId
      REG=3       REGSYM    ---      ---       pCmdAddress
      REG=2       REGSYM    ---      ---       pCmdCnfStatus
L251 LINKER/LOCATER V4.66.93.0                                                        12/18/2023  14:21:09  PAGE 102


      ---         BLOCKEND  ---      ---       LVL=0

      00FF4C0FH   BLOCK     CODE     ---       LVL=0
      00FF4C0FH   LINE      ---      ---       #2634
      00FF4C11H   LINE      ---      ---       #2636
      00FF4C1DH   LINE      ---      ---       #2638
      00FF4C1DH   LINE      ---      ---       #2639
      00FF4C20H   LINE      ---      ---       #2640
      00FF4C20H   LINE      ---      ---       #2641
      00FF4C20H   LINE      ---      ---       #2642
      00FF4C23H   LINE      ---      ---       #2643
      00FF4C23H   LINE      ---      ---       #2644
      00FF4C23H   LINE      ---      ---       #2645
      00FF4C26H   LINE      ---      ---       #2646
      00FF4C26H   LINE      ---      ---       #2647
      00FF4C26H   LINE      ---      ---       #2648
      00FF4C2BH   LINE      ---      ---       #2649
      00FF4C2BH   LINE      ---      ---       #2650
      00FF4C2BH   LINE      ---      ---       #2652
      R3          REGSYM    ---      BYTE      cmdId
      REG=3       REGSYM    ---      ---       pCmdAddress
      REG=2       REGSYM    ---      ---       pCmdCnfStatus
      ---         BLOCKEND  ---      ---       LVL=0

      00FF4B55H   BLOCK     CODE     ---       LVL=0
      00FF4B55H   LINE      ---      ---       #2682
      00FF4B57H   LINE      ---      ---       #2684
      00FF4B5BH   LINE      ---      ---       #2686
      00FF4B5BH   LINE      ---      ---       #2687
      00FF4B5DH   LINE      ---      ---       #2688
      00FF4B5DH   LINE      ---      ---       #2694
      00FF4B5DH   LINE      ---      ---       #2695
      00FF4B62H   LINE      ---      ---       #2696
      00FF4B62H   LINE      ---      ---       #2697
      00FF4B62H   LINE      ---      ---       #2698
      R3          REGSYM    ---      BYTE      cmdId
      REG=3       REGSYM    ---      ---       pCmdAddress
      REG=2       REGSYM    ---      ---       pCmdCnfStatus
      ---         BLOCKEND  ---      ---       LVL=0

      00FF4D4EH   BLOCK     CODE     ---       LVL=0
      00FF4D4EH   LINE      ---      ---       #2701
      00FF4D50H   LINE      ---      ---       #2703
      00FF4D88H   LINE      ---      ---       #2705
      00FF4D88H   LINE      ---      ---       #2706
      00FF4D8CH   LINE      ---      ---       #2707
      00FF4D8CH   LINE      ---      ---       #2708
      00FF4D8CH   LINE      ---      ---       #2709
      00FF4D90H   LINE      ---      ---       #2710
      00FF4D90H   LINE      ---      ---       #2712
      00FF4D90H   LINE      ---      ---       #2713
      00FF4D94H   LINE      ---      ---       #2714
      00FF4D94H   LINE      ---      ---       #2715
      00FF4D94H   LINE      ---      ---       #2716
      00FF4D99H   LINE      ---      ---       #2717
      00FF4D99H   LINE      ---      ---       #2718
      00FF4D99H   LINE      ---      ---       #2719
      00FF4D9DH   LINE      ---      ---       #2720
      00FF4D9DH   LINE      ---      ---       #2721
      00FF4D9DH   LINE      ---      ---       #2722
      00FF4DA1H   LINE      ---      ---       #2723
      00FF4DA1H   LINE      ---      ---       #2724
      00FF4DA1H   LINE      ---      ---       #2725
      00FF4DA5H   LINE      ---      ---       #2726
      00FF4DA5H   LINE      ---      ---       #2727
L251 LINKER/LOCATER V4.66.93.0                                                        12/18/2023  14:21:09  PAGE 103


      00FF4DA5H   LINE      ---      ---       #2728
      00FF4DA9H   LINE      ---      ---       #2729
      00FF4DA9H   LINE      ---      ---       #2730
      00FF4DA9H   LINE      ---      ---       #2731
      00FF4DADH   LINE      ---      ---       #2732
      00FF4DADH   LINE      ---      ---       #2733
      00FF4DADH   LINE      ---      ---       #2734
      00FF4DB1H   LINE      ---      ---       #2735
      00FF4DB1H   LINE      ---      ---       #2737
      00FF4DB1H   LINE      ---      ---       #2738
      00FF4DB5H   LINE      ---      ---       #2739
      00FF4DB5H   LINE      ---      ---       #2741
      00FF4DB5H   LINE      ---      ---       #2742
      00FF4DBAH   LINE      ---      ---       #2743
      00FF4DBAH   LINE      ---      ---       #2744
      00FF4DBAH   LINE      ---      ---       #2745
      00FF4DBEH   LINE      ---      ---       #2746
      00FF4DBEH   LINE      ---      ---       #2747
      00FF4DBEH   LINE      ---      ---       #2748
      00FF4DC2H   LINE      ---      ---       #2749
      00FF4DC2H   LINE      ---      ---       #2751
      00FF4DC2H   LINE      ---      ---       #2752
      00FF4DC7H   LINE      ---      ---       #2753
      00FF4DC7H   LINE      ---      ---       #2754
      00FF4DC7H   LINE      ---      ---       #2755
      R11         REGSYM    ---      BYTE      cmdId
      REG=4       REGSYM    ---      ---       pCmdAddress
      REG=2       REGSYM    ---      ---       pCmdCnfStatus
      ---         BLOCKEND  ---      ---       LVL=0

      00FF49C9H   BLOCK     CODE     ---       LVL=0
      00FF49C9H   LINE      ---      ---       #2757
      00FF49CDH   LINE      ---      ---       #2758
      00FF49CDH   BLOCK     CODE     NEAR LAB  LVL=1
      00FF49CDH   LINE      ---      ---       #2763
      00FF49D2H   LINE      ---      ---       #2768
      00FF49D5H   LINE      ---      ---       #2769
      00FF49D8H   LINE      ---      ---       #2772
      00FF49DEH   LINE      ---      ---       #2773
      00FF49DEH   LINE      ---      ---       #2774
      00FF49E4H   LINE      ---      ---       #2782
      00FF49E6H   LINE      ---      ---       #2783
      00FF49E9H   LINE      ---      ---       #2784
      00FF49EDH   LINE      ---      ---       #2785
      00FF49F1H   LINE      ---      ---       #2786
      00FF4A05H   LINE      ---      ---       #2788
      00FF4A05H   LINE      ---      ---       #2790
      00FF4A1DH   LINE      ---      ---       #2792
      00FF4A1DH   LINE      ---      ---       #2793
      00FF4A32H   LINE      ---      ---       #2794
      00FF4A3DH   LINE      ---      ---       #2796
      00FF4A3DH   LINE      ---      ---       #2797
      00FF4A3FH   LINE      ---      ---       #2800
      00FF4A3FH   LINE      ---      ---       #2801
      00FF4A54H   LINE      ---      ---       #2802
      00FF4A5FH   LINE      ---      ---       #2804
      00FF4A5FH   LINE      ---      ---       #2805
      00FF4A61H   LINE      ---      ---       #2809
      00FF4A61H   LINE      ---      ---       #2810
      00FF4A76H   LINE      ---      ---       #2811
      00FF4A81H   LINE      ---      ---       #2813
      00FF4A81H   LINE      ---      ---       #2814
      00FF4A83H   LINE      ---      ---       #2818
      00FF4A83H   LINE      ---      ---       #2819
      00FF4A96H   LINE      ---      ---       #2820
L251 LINKER/LOCATER V4.66.93.0                                                        12/18/2023  14:21:09  PAGE 104


      00FF4AA1H   LINE      ---      ---       #2822
      00FF4AA1H   LINE      ---      ---       #2823
      00FF4AA3H   LINE      ---      ---       #2827
      00FF4AA3H   LINE      ---      ---       #2828
      00FF4AB6H   LINE      ---      ---       #2829
      00FF4AC0H   LINE      ---      ---       #2831
      00FF4AC0H   LINE      ---      ---       #2832
      00FF4AC2H   LINE      ---      ---       #2844
      00FF4AC2H   LINE      ---      ---       #2845
      00FF4AC2H   LINE      ---      ---       #2846
      00FF4AC2H   LINE      ---      ---       #2847
      00FF4AC2H   LINE      ---      ---       #2848
      00FF4AC4H   LINE      ---      ---       #2851
      00FF4AC4H   LINE      ---      ---       #2853
      00FF4ACEH   LINE      ---      ---       #2856
      00FF4ACEH   LINE      ---      ---       #2857
      00FF4AE1H   LINE      ---      ---       #2858
      00FF4AEBH   LINE      ---      ---       #2860
      00FF4AEBH   LINE      ---      ---       #2861
      00FF4AEDH   LINE      ---      ---       #2864
      00FF4AEDH   LINE      ---      ---       #2865
      00FF4B00H   LINE      ---      ---       #2866
      00FF4B0AH   LINE      ---      ---       #2868
      00FF4B0CH   LINE      ---      ---       #2869
      00FF4B0EH   LINE      ---      ---       #2871
      00FF4B0EH   LINE      ---      ---       #2872
      00FF4B10H   LINE      ---      ---       #2873
      00FF4B10H   LINE      ---      ---       #2874
      00FF4B10H   LINE      ---      ---       #2875
      00FF4B12H   LINE      ---      ---       #2878
      00FF4B12H   LINE      ---      ---       #2879
      00FF4B18H   LINE      ---      ---       #2880
      00FF4B18H   LINE      ---      ---       #2881
      00FF4B18H   LINE      ---      ---       #2884
      00FF4B20H   LINE      ---      ---       #2886
      00FF4B23H   LINE      ---      ---       #2887
      00FF4B26H   LINE      ---      ---       #2888
      00FF4B29H   LINE      ---      ---       #2890
      00FF4B2FH   LINE      ---      ---       #2891
      00FF4B2FH   LINE      ---      ---       #2893
      00FF4B35H   LINE      ---      ---       #2898
      00FF4B42H   LINE      ---      ---       #2900
      00FF4B48H   LINE      ---      ---       #2901
      00FF4B50H   LINE      ---      ---       #2902
      R4          REGSYM    ---      BYTE      cmdLen
      REG=3       REGSYM    ---      ---       pCmdAddress
      REG=1       REGSYM    ---      ---       pRuciHeader
      R14         REGSYM    ---      BYTE      ruciHeader
      R15         REGSYM    ---      BYTE      ruciSubheader
      0000B5EBH   SYMBOL    EDATA    BYTE      cmdCnfStatus
      ---         BLOCKEND  CODE     ---       LVL=1
      ---         BLOCKEND  CODE     ---       LVL=0
      00FF3E12H   LINE      ---      ---       #381

      ---         MODULE    ---      ---       mac_task_ctrl
      00FF6FB1H   PUBLIC    CODE     ---       RxTask_AlwaysOn_Set
      00FF91F0H   PUBLIC    CODE     ---       R2tTask_Set
      00FF1856H   PUBLIC    CODE     ---       TrtTask_Set
      00FF9358H   PUBLIC    CODE     ---       RxTask_RxTimer_Set
      00FF930BH   PUBLIC    CODE     ---       RxTask_Timeout_Set
      00FF9366H   PUBLIC    CODE     ---       TxContTask_Set
      00FF9426H   PUBLIC    CODE     ---       TxTask_Set
      00FF19AEH   PUBLIC    CODE     ---       T2RTask_Set
      00FF946BH   PUBLIC    CODE     ---       TxRtcTask_Set
      00FF0008H   PUBLIC    CODE     ---       AllTask_Stop
L251 LINKER/LOCATER V4.66.93.0                                                        12/18/2023  14:21:09  PAGE 105


      0000B591H   PUBLIC    EDATA    DWORD     gMac_Frame_Pending_Rx_Time
      0000B384H   PUBLIC    EDATA    BYTE      ?T2RTask_Set?BYTE

      00FF6FB1H   BLOCK     CODE     ---       LVL=0
      00FF6FB1H   LINE      ---      ---       #23
      00FF6FB1H   LINE      ---      ---       #24
      00FF6FB1H   BLOCK     CODE     NEAR LAB  LVL=1
      00FF6FB1H   LINE      ---      ---       #28
      00FF6FB7H   LINE      ---      ---       #29
      00FF6FBDH   LINE      ---      ---       #30
      00FF6FC3H   LINE      ---      ---       #31
      00FF6FC8H   LINE      ---      ---       #32
      00FF6FCEH   LINE      ---      ---       #33
      00FF6FD2H   LINE      ---      ---       #34
      00FF6FD6H   LINE      ---      ---       #36
      00FF6FDFH   LINE      ---      ---       #38
      0000B446H   SYMBOL    EDATA    ---       taskControl
      ---         BLOCKEND  CODE     ---       LVL=1
      ---         BLOCKEND  CODE     ---       LVL=0

      00FF91F0H   BLOCK     CODE     ---       LVL=0
      00FF91F0H   LINE      ---      ---       #43
      00FF91F0H   LINE      ---      ---       #44
      WR6         REGSYM    ---      WORD      pktInterval
      DR0         REGSYM    ---      DWORD     rxWaitDuration
      00FF91F0H   BLOCK     CODE     NEAR LAB  LVL=1
      00FF91F0H   LINE      ---      ---       #48
      00FF91F6H   LINE      ---      ---       #49
      00FF91FBH   LINE      ---      ---       #50
      00FF9201H   LINE      ---      ---       #51
      00FF9207H   LINE      ---      ---       #52
      00FF920BH   LINE      ---      ---       #53
      00FF9219H   LINE      ---      ---       #54
      00FF921FH   LINE      ---      ---       #56
      00FF9228H   LINE      ---      ---       #58
      00FF922EH   LINE      ---      ---       #59
      00FF9233H   LINE      ---      ---       #60
      00FF9237H   LINE      ---      ---       #61
      00FF923BH   LINE      ---      ---       #62
      00FF9241H   LINE      ---      ---       #63
      00FF9245H   LINE      ---      ---       #64
      00FF9249H   LINE      ---      ---       #66
      00FF9252H   LINE      ---      ---       #68
      0000B454H   SYMBOL    EDATA    ---       taskControl
      ---         BLOCKEND  CODE     ---       LVL=1
      ---         BLOCKEND  CODE     ---       LVL=0

      00FF1856H   BLOCK     CODE     ---       LVL=0
      00FF1856H   LINE      ---      ---       #72
      00FF185EH   LINE      ---      ---       #73
      WR14        REGSYM    ---      WORD      pktInterval
      0000B3B1H   SYMBOL    EDATA    DWORD     rxWaitDuration
      00FF185EH   BLOCK     CODE     NEAR LAB  LVL=1
      00FF185EH   LINE      ---      ---       #77
      00FF1863H   LINE      ---      ---       #78
      00FF1867H   LINE      ---      ---       #79
      00FF186DH   LINE      ---      ---       #80
      00FF1873H   LINE      ---      ---       #81
      00FF1885H   LINE      ---      ---       #82
      00FF188BH   LINE      ---      ---       #83
      00FF1891H   LINE      ---      ---       #84
      00FF1897H   LINE      ---      ---       #86
      00FF189DH   LINE      ---      ---       #87
      00FF18A2H   LINE      ---      ---       #88
      00FF18A8H   LINE      ---      ---       #89
L251 LINKER/LOCATER V4.66.93.0                                                        12/18/2023  14:21:09  PAGE 106


      00FF18AEH   LINE      ---      ---       #90
      00FF18B6H   LINE      ---      ---       #91
      00FF18C6H   LINE      ---      ---       #92
      00FF18CCH   LINE      ---      ---       #93
      00FF18D4H   LINE      ---      ---       #95
      00FF18DAH   LINE      ---      ---       #96
      00FF18DFH   LINE      ---      ---       #97
      00FF18E3H   LINE      ---      ---       #98
      00FF18E7H   LINE      ---      ---       #99
      00FF18EDH   LINE      ---      ---       #100
      00FF18F1H   LINE      ---      ---       #101
      00FF18F5H   LINE      ---      ---       #102
      0000B3B5H   SYMBOL    EDATA    ---       taskControl
      ---         BLOCKEND  CODE     ---       LVL=1
      00FF18FDH   LINE      ---      ---       #106
      00FF18FDH   LINE      CODE     ---       #106

      00FF9358H   BLOCK     CODE     ---       LVL=0
      00FF9358H   LINE      ---      ---       #111
      00FF935AH   LINE      ---      ---       #114
      00FF9365H   LINE      ---      ---       #116
      DR8         REGSYM    ---      DWORD     ccaDuration
      ---         BLOCKEND  ---      ---       LVL=0

      00FF930BH   BLOCK     CODE     ---       LVL=0
      00FF930BH   LINE      ---      ---       #118
      00FF930DH   LINE      ---      ---       #119
      DR28        REGSYM    ---      DWORD     rxOnTime
      00FF930DH   BLOCK     CODE     NEAR LAB  LVL=1
      00FF930DH   LINE      ---      ---       #123
      00FF9313H   LINE      ---      ---       #124
      00FF9318H   LINE      ---      ---       #125
      00FF931EH   LINE      ---      ---       #126
      00FF9323H   LINE      ---      ---       #127
      00FF933BH   LINE      ---      ---       #128
      00FF9341H   LINE      ---      ---       #129
      00FF9347H   LINE      ---      ---       #131
      00FF9350H   LINE      ---      ---       #133
      0000B462H   SYMBOL    EDATA    ---       taskControl
      ---         BLOCKEND  CODE     ---       LVL=1
      ---         BLOCKEND  CODE     ---       LVL=0

      00FF9366H   BLOCK     CODE     ---       LVL=0
      00FF9366H   LINE      ---      ---       #139
      00FF9370H   LINE      ---      ---       #140
      WR6         REGSYM    ---      WORD      pktInterval
      R15         REGSYM    ---      BYTE      mode
      0000B3C3H   SYMBOL    EDATA    DWORD     rtcAnchor
      00FF9370H   BLOCK     CODE     NEAR LAB  LVL=1
      00FF9370H   LINE      ---      ---       #144
      00FF937EH   LINE      ---      ---       #145
      00FF9382H   LINE      ---      ---       #146
      00FF9388H   LINE      ---      ---       #149
      00FF938EH   LINE      ---      ---       #150
      00FF9392H   LINE      ---      ---       #151
      00FF9396H   LINE      ---      ---       #153
      00FF939FH   LINE      ---      ---       #155
      00FF93A5H   LINE      ---      ---       #156
      00FF93ABH   LINE      ---      ---       #159
      00FF93B1H   LINE      ---      ---       #160
      00FF93B5H   LINE      ---      ---       #161
      00FF93BAH   LINE      ---      ---       #162
      00FF93BEH   LINE      ---      ---       #164
      00FF93C6H   LINE      ---      ---       #166
      0000B3C7H   SYMBOL    EDATA    ---       taskControl
L251 LINKER/LOCATER V4.66.93.0                                                        12/18/2023  14:21:09  PAGE 107


      WR12        REGSYM    ---      WORD      pktIntervalTemp
      ---         BLOCKEND  CODE     ---       LVL=1
      00FF93CFH   LINE      ---      ---       #168
      00FF93CFH   LINE      CODE     ---       #168

      00FF9426H   BLOCK     CODE     ---       LVL=0
      00FF9426H   LINE      ---      ---       #172
      00FF942CH   LINE      ---      ---       #173
      R15         REGSYM    ---      BYTE      mode
      DR0         REGSYM    ---      DWORD     rtcAnchor
      00FF942CH   BLOCK     CODE     NEAR LAB  LVL=1
      00FF942CH   LINE      ---      ---       #176
      00FF9430H   LINE      ---      ---       #177
      00FF9435H   LINE      ---      ---       #178
      00FF9439H   LINE      ---      ---       #179
      00FF943DH   LINE      ---      ---       #180
      00FF9443H   LINE      ---      ---       #181
      00FF9447H   LINE      ---      ---       #182
      00FF944CH   LINE      ---      ---       #183
      00FF9454H   LINE      ---      ---       #185
      00FF9458H   LINE      ---      ---       #187
      00FF9461H   LINE      ---      ---       #188
      0000B470H   SYMBOL    EDATA    ---       taskControl
      ---         BLOCKEND  CODE     ---       LVL=1
      00FF9468H   LINE      ---      ---       #189
      00FF9468H   LINE      CODE     ---       #189

      00FF19AEH   BLOCK     CODE     ---       LVL=0
      00FF19AEH   LINE      ---      ---       #193
      00FF19BAH   LINE      ---      ---       #194
      WR12        REGSYM    ---      WORD      interFrameSpace
      0000B387H   SYMBOL    EDATA    DWORD     rxWaitDuration
      R14         REGSYM    ---      BYTE      bRtcAutoEn
      0000B38BH   SYMBOL    EDATA    DWORD     rtcValue
      R15         REGSYM    ---      BYTE      bRxFramePending
      00FF19BAH   BLOCK     CODE     NEAR LAB  LVL=1
      00FF19BAH   LINE      ---      ---       #198
      00FF19C0H   LINE      ---      ---       #199
      00FF19C5H   LINE      ---      ---       #200
      00FF19CBH   LINE      ---      ---       #202
      00FF19CFH   LINE      ---      ---       #204
      00FF19E1H   LINE      ---      ---       #205
      00FF19E3H   LINE      ---      ---       #206
      00FF19E5H   LINE      ---      ---       #210
      00FF19EBH   LINE      ---      ---       #211
      00FF19F0H   LINE      ---      ---       #212
      00FF19F0H   LINE      ---      ---       #213
      00FF19F8H   LINE      ---      ---       #214
      00FF19FEH   LINE      ---      ---       #215
      00FF1A06H   LINE      ---      ---       #218
      00FF1A0AH   LINE      ---      ---       #220
      00FF1A10H   LINE      ---      ---       #221
      00FF1A15H   LINE      ---      ---       #222
      00FF1A1BH   LINE      ---      ---       #223
      00FF1A21H   LINE      ---      ---       #224
      00FF1A26H   LINE      ---      ---       #225
      00FF1A2EH   LINE      ---      ---       #226
      00FF1A34H   LINE      ---      ---       #227
      00FF1A3CH   LINE      ---      ---       #228
      00FF1A3CH   LINE      ---      ---       #231
      00FF1A41H   LINE      ---      ---       #232
      00FF1A45H   LINE      ---      ---       #233
      00FF1A4BH   LINE      ---      ---       #234
      00FF1A51H   LINE      ---      ---       #235
      00FF1A63H   LINE      ---      ---       #236
L251 LINKER/LOCATER V4.66.93.0                                                        12/18/2023  14:21:09  PAGE 108


      00FF1A87H   LINE      ---      ---       #238
      00FF1A8DH   LINE      ---      ---       #239
      00FF1AA7H   LINE      ---      ---       #240
      00FF1AAFH   LINE      ---      ---       #241
      00FF1AB4H   LINE      ---      ---       #242
      00FF1AB6H   LINE      ---      ---       #245
      00FF1ABCH   LINE      ---      ---       #246
      00FF1AC2H   LINE      ---      ---       #247
      00FF1AC8H   LINE      ---      ---       #248
      00FF1ACFH   LINE      ---      ---       #249
      0000B390H   SYMBOL    EDATA    ---       taskControl
      ---         BLOCKEND  CODE     ---       LVL=1
      00FF1ACFH   LINE      ---      ---       #253
      00FF1ACFH   LINE      CODE     ---       #253

      00FF946BH   BLOCK     CODE     ---       LVL=0
      00FF946BH   LINE      ---      ---       #255
      00FF946DH   LINE      ---      ---       #256
      DR0         REGSYM    ---      DWORD     rtcValue
      00FF946DH   BLOCK     CODE     NEAR LAB  LVL=1
      00FF946DH   LINE      ---      ---       #260
      00FF9473H   LINE      ---      ---       #261
      00FF9478H   LINE      ---      ---       #262
      00FF947CH   LINE      ---      ---       #263
      00FF9480H   LINE      ---      ---       #264
      00FF9486H   LINE      ---      ---       #265
      00FF948AH   LINE      ---      ---       #266
      00FF948EH   LINE      ---      ---       #268
      00FF9497H   LINE      ---      ---       #270
      0000B47EH   SYMBOL    EDATA    ---       taskControl
      ---         BLOCKEND  CODE     ---       LVL=1
      ---         BLOCKEND  CODE     ---       LVL=0

      00FF0008H   BLOCK     CODE     ---       LVL=0
      00FF0008H   LINE      ---      ---       #283
      00FF0008H   LINE      ---      ---       #286
      ---         BLOCKEND  ---      ---       LVL=0

      ---         MODULE    ---      ---       ruci_data_parse
      00FF949FH   PUBLIC    CODE     ---       PciDataControlFieldParse

      00FF949FH   BLOCK     CODE     ---       LVL=0
      00FF949FH   LINE      ---      ---       #39
      00FF94A3H   LINE      ---      ---       #40
      REG=7       REGSYM    ---      ---       pCmdAddress
      00FF94A3H   BLOCK     CODE     NEAR LAB  LVL=1
      00FF94A3H   LINE      ---      ---       #43
      00FF94AAH   LINE      ---      ---       #44
      00FF94B0H   LINE      ---      ---       #45
      00FF94B4H   LINE      ---      ---       #46
      00FF94B4H   LINE      ---      ---       #47
      00FF94BEH   LINE      ---      ---       #48
      00FF94C0H   LINE      ---      ---       #50
      00FF94C3H   LINE      ---      ---       #51
      00FF94C5H   LINE      ---      ---       #53
      00FF94CFH   LINE      ---      ---       #54
      00FF94D7H   LINE      ---      ---       #55
      00FF94DEH   LINE      ---      ---       #59
      00FF94EAH   LINE      ---      ---       #60
      00FF94ECH   LINE      ---      ---       #61
      R10         REGSYM    ---      BYTE      tmp
      00FF94ECH   BLOCK     CODE     NEAR LAB  LVL=2
      00FF94ECH   LINE      ---      ---       #62
      00FF94F5H   LINE      ---      ---       #65
      00FF94F7H   LINE      ---      ---       #66
L251 LINKER/LOCATER V4.66.93.0                                                        12/18/2023  14:21:09  PAGE 109


      00FF9501H   LINE      ---      ---       #67
      00FF9508H   LINE      ---      ---       #68
      00FF9513H   LINE      ---      ---       #69
      00FF9533H   LINE      ---      ---       #70
      WR12        REGSYM    ---      WORD      bufferAddress_LOCAL
      REG=3       REGSYM    ---      ---       pOutput
      ---         BLOCKEND  CODE     ---       LVL=2
      00FF953EH   LINE      ---      ---       #71
      00FF953EH   LINE      ---      ---       #73
      00FF953EH   LINE      CODE     ---       #73
      ---         BLOCKEND  CODE     ---       LVL=0

      ---         MODULE    ---      ---       mac_event_gen
      00FF2ED5H   PUBLIC    CODE     ---       PciCnfEventSendtoMsgQueue
      00FF4434H   PUBLIC    CODE     ---       PciGetCrcEventSendtoMsgQueue
      00FF4507H   PUBLIC    CODE     ---       PciGetPhyStatusEventSendtoMsgQueue
      00FF9542H   PUBLIC    CODE     ---       PciBurstTxdoneEventSendtoMsgQueue
      00FF449EH   PUBLIC    CODE     ---       PciGetRssiEventSendtoMsgQueue
      00FF9573H   PUBLIC    CODE     ---       PciHtrpConnToEventdoneEventSendtoMsgQueue
      00FF95ACH   PUBLIC    CODE     ---       PciHtrpPerEventdoneEventSendtoMsgQueue
      00FF95F1H   PUBLIC    CODE     ---       PciHtrpGetRssiEventSendtoMsgQueue
      00FF9623H   PUBLIC    CODE     ---       PciHtrpFwStatusEventdoneEventSendtoMsgQueue
      00FF38F7H   PUBLIC    CODE     ---       PciHtrpHwStatusEventdoneEventSendtoMsgQueue
      00FF5976H   PUBLIC    CODE     ---       PciCslAccuracyEventSendtoMsgQueue
      00FF59ACH   PUBLIC    CODE     ---       PciCslUncertaintyEventSendtoMsgQueue

      00FF2ED0H   BLOCK     CODE     ---       LVL=0
      00FF2ED5H   LINE      ---      ---       #60
      00FF2EDDH   LINE      ---      ---       #61
      00FF2ED0H   SYMBOL    CODE     NEAR LAB  ?L?COM0027
      R13         REGSYM    ---      BYTE      cmdHeader
      R14         REGSYM    ---      BYTE      cmdSubheader
      R15         REGSYM    ---      BYTE      cmdCnfStatus
      00FF2EDDH   BLOCK     CODE     NEAR LAB  LVL=1
      00FF2EDDH   LINE      ---      ---       #63
      00FF2EE2H   LINE      ---      ---       #64
      00FF2EE5H   LINE      ---      ---       #66
      00FF2EEFH   LINE      ---      ---       #67
      00FF2EF6H   LINE      ---      ---       #68
      00FF2EFCH   LINE      ---      ---       #69
      00FF2F02H   LINE      ---      ---       #70
      00FF2F06H   LINE      ---      ---       #71
      00FF2F0AH   LINE      ---      ---       #72
      00FF2F0EH   LINE      ---      ---       #78
      REG=3       REGSYM    ---      ---       pEventPayload
      R12         REGSYM    ---      BYTE      qIdx
      ---         BLOCKEND  CODE     ---       LVL=1
      00FF2F1BH   LINE      ---      ---       #80
      00FF2F1BH   LINE      CODE     ---       #80

      00FF4434H   BLOCK     CODE     ---       LVL=0
      00FF4434H   LINE      ---      ---       #84
      00FF4438H   LINE      ---      ---       #85
      00FF4438H   BLOCK     CODE     NEAR LAB  LVL=1
      00FF4438H   LINE      ---      ---       #87
      00FF443DH   LINE      ---      ---       #90
      00FF4447H   LINE      ---      ---       #91
      00FF444EH   LINE      ---      ---       #92
      00FF4454H   LINE      ---      ---       #93
      00FF445AH   LINE      ---      ---       #95
      00FF4467H   LINE      ---      ---       #101
      00FF4481H   LINE      ---      ---       #103
      REG=6       REGSYM    ---      ---       pEventPayload
      R15         REGSYM    ---      BYTE      qIdx
      ---         BLOCKEND  CODE     ---       LVL=1
L251 LINKER/LOCATER V4.66.93.0                                                        12/18/2023  14:21:09  PAGE 110


      00FF448DH   LINE      ---      ---       #105
      00FF448DH   LINE      CODE     ---       #105

      00FF4507H   BLOCK     CODE     ---       LVL=0
      00FF4507H   LINE      ---      ---       #107
      00FF450BH   LINE      ---      ---       #108
      00FF450BH   BLOCK     CODE     NEAR LAB  LVL=1
      00FF450BH   LINE      ---      ---       #111
      00FF4510H   LINE      ---      ---       #114
      00FF451AH   LINE      ---      ---       #115
      00FF4521H   LINE      ---      ---       #116
      00FF4527H   LINE      ---      ---       #117
      00FF452BH   LINE      ---      ---       #118
      00FF4533H   LINE      ---      ---       #119
      00FF453BH   LINE      ---      ---       #120
      00FF4545H   LINE      ---      ---       #121
      00FF4550H   LINE      ---      ---       #122
      00FF455AH   LINE      ---      ---       #123
      00FF4562H   LINE      ---      ---       #124
      00FF4578H   LINE      ---      ---       #126
      00FF457CH   LINE      ---      ---       #132
      REG=6       REGSYM    ---      ---       pEventPayload
      R7          REGSYM    ---      BYTE      cpmputeRssi
      R15         REGSYM    ---      BYTE      qIdx
      ---         BLOCKEND  CODE     ---       LVL=1
      00FF4588H   LINE      ---      ---       #134
      00FF4588H   LINE      CODE     ---       #134

      00FF9542H   BLOCK     CODE     ---       LVL=0
      00FF9542H   LINE      ---      ---       #136
      00FF9544H   LINE      ---      ---       #137
      00FF9544H   BLOCK     CODE     NEAR LAB  LVL=1
      00FF9544H   LINE      ---      ---       #139
      00FF9547H   LINE      ---      ---       #142
      00FF9551H   LINE      ---      ---       #143
      00FF9558H   LINE      ---      ---       #144
      00FF955EH   LINE      ---      ---       #145
      00FF9563H   LINE      ---      ---       #150
      REG=3       REGSYM    ---      ---       pEventPayload
      R15         REGSYM    ---      BYTE      qIdx
      ---         BLOCKEND  CODE     ---       LVL=1
      00FF9570H   LINE      ---      ---       #152
      00FF9570H   LINE      CODE     ---       #152

      00FF449EH   BLOCK     CODE     ---       LVL=0
      00FF449EH   LINE      ---      ---       #154
      00FF44A2H   LINE      ---      ---       #155
      00FF44A2H   BLOCK     CODE     NEAR LAB  LVL=1
      00FF44A2H   LINE      ---      ---       #159
      00FF44A7H   LINE      ---      ---       #162
      00FF44AEH   LINE      ---      ---       #163
      00FF44BAH   LINE      ---      ---       #164
      00FF44C2H   LINE      ---      ---       #165
      00FF44C9H   LINE      ---      ---       #166
      00FF44D3H   LINE      ---      ---       #168
      00FF44DDH   LINE      ---      ---       #169
      00FF44E4H   LINE      ---      ---       #170
      00FF44EAH   LINE      ---      ---       #171
      00FF44F0H   LINE      ---      ---       #172
      00FF44F4H   LINE      ---      ---       #178
      REG=6       REGSYM    ---      ---       pEventPayload
      R5          REGSYM    ---      CHAR      ibRssi
      R10         REGSYM    ---      BYTE      cpmputeRssi
      R4          REGSYM    ---      BYTE      lnaGain
      R7          REGSYM    ---      BYTE      tiaGain
L251 LINKER/LOCATER V4.66.93.0                                                        12/18/2023  14:21:09  PAGE 111


      R6          REGSYM    ---      BYTE      vgaGain
      R15         REGSYM    ---      BYTE      qIdx
      ---         BLOCKEND  CODE     ---       LVL=1
      00FF44F6H   LINE      ---      ---       #180
      00FF44F6H   LINE      CODE     ---       #180

      00FF9573H   BLOCK     CODE     ---       LVL=0
      00FF9573H   LINE      ---      ---       #183
      00FF9577H   LINE      ---      ---       #184
      R15         REGSYM    ---      BYTE      status
      00FF9577H   BLOCK     CODE     NEAR LAB  LVL=1
      00FF9577H   LINE      ---      ---       #186
      00FF957CH   LINE      ---      ---       #187
      00FF957FH   LINE      ---      ---       #189
      00FF9589H   LINE      ---      ---       #190
      00FF9590H   LINE      ---      ---       #191
      00FF9596H   LINE      ---      ---       #192
      00FF959CH   LINE      ---      ---       #193
      00FF95A0H   LINE      ---      ---       #198
      REG=3       REGSYM    ---      ---       pEventPayload
      R14         REGSYM    ---      BYTE      qIdx
      ---         BLOCKEND  CODE     ---       LVL=1
      00FF95A9H   LINE      ---      ---       #199
      00FF95A9H   LINE      CODE     ---       #199

      00FF95ACH   BLOCK     CODE     ---       LVL=0
      00FF95ACH   LINE      ---      ---       #201
      00FF95AEH   LINE      ---      ---       #202
      00FF95AEH   BLOCK     CODE     NEAR LAB  LVL=1
      00FF95AEH   LINE      ---      ---       #204
      00FF95B3H   LINE      ---      ---       #207
      00FF95BDH   LINE      ---      ---       #208
      00FF95C4H   LINE      ---      ---       #209
      00FF95CAH   LINE      ---      ---       #210
      00FF95D0H   LINE      ---      ---       #212
      00FF95E1H   LINE      ---      ---       #217
      REG=11      REGSYM    ---      ---       pEventPayload
      R15         REGSYM    ---      BYTE      qIdx
      ---         BLOCKEND  CODE     ---       LVL=1
      00FF95EEH   LINE      ---      ---       #218
      00FF95EEH   LINE      CODE     ---       #218

      00FF95F1H   BLOCK     CODE     ---       LVL=0
      00FF95F1H   LINE      ---      ---       #220
      00FF95F3H   LINE      ---      ---       #221
      00FF95F3H   BLOCK     CODE     NEAR LAB  LVL=1
      00FF95F3H   LINE      ---      ---       #223
      00FF95F8H   LINE      ---      ---       #226
      00FF9602H   LINE      ---      ---       #227
      00FF9609H   LINE      ---      ---       #228
      00FF960FH   LINE      ---      ---       #229
      00FF9615H   LINE      ---      ---       #230
      00FF961DH   LINE      ---      ---       #235
      REG=2       REGSYM    ---      ---       pEventPayload
      R15         REGSYM    ---      BYTE      qIdx
      ---         BLOCKEND  CODE     ---       LVL=1
      00FF9620H   LINE      ---      ---       #236
      00FF9620H   LINE      CODE     ---       #236

      00FF9623H   BLOCK     CODE     ---       LVL=0
      00FF9623H   LINE      ---      ---       #238
      00FF9627H   LINE      ---      ---       #239
      00FF9627H   BLOCK     CODE     NEAR LAB  LVL=1
      00FF9627H   LINE      ---      ---       #241
      00FF962CH   LINE      ---      ---       #244
L251 LINKER/LOCATER V4.66.93.0                                                        12/18/2023  14:21:09  PAGE 112


      00FF9636H   LINE      ---      ---       #245
      00FF963DH   LINE      ---      ---       #246
      00FF9643H   LINE      ---      ---       #247
      00FF9649H   LINE      ---      ---       #248
      00FF9651H   LINE      ---      ---       #249
      00FF9658H   LINE      ---      ---       #250
      00FF965FH   LINE      ---      ---       #251
      00FF9667H   LINE      ---      ---       #252
      00FF966FH   LINE      ---      ---       #253
      00FF9677H   LINE      ---      ---       #254
      00FF967FH   LINE      ---      ---       #255
      00FF9687H   LINE      ---      ---       #256
      00FF968FH   LINE      ---      ---       #257
      00FF96A0H   LINE      ---      ---       #258
      00FF96B1H   LINE      ---      ---       #264
      REG=6       REGSYM    ---      ---       pEventPayload
      R15         REGSYM    ---      BYTE      qIdx
      ---         BLOCKEND  CODE     ---       LVL=1
      00FF96BEH   LINE      ---      ---       #265
      00FF96BEH   LINE      CODE     ---       #265

      00FF38F7H   BLOCK     CODE     ---       LVL=0
      00FF38F7H   LINE      ---      ---       #267
      00FF38FBH   LINE      ---      ---       #268
      00FF38FBH   BLOCK     CODE     NEAR LAB  LVL=1
      00FF38FBH   LINE      ---      ---       #270
      00FF3900H   LINE      ---      ---       #273
      00FF390AH   LINE      ---      ---       #274
      00FF3911H   LINE      ---      ---       #275
      00FF3917H   LINE      ---      ---       #276
      00FF391DH   LINE      ---      ---       #277
      00FF3928H   LINE      ---      ---       #278
      00FF3939H   LINE      ---      ---       #279
      00FF3946H   LINE      ---      ---       #280
      00FF394CH   LINE      ---      ---       #281
      00FF3953H   LINE      ---      ---       #282
      00FF3960H   LINE      ---      ---       #288
      REG=6       REGSYM    ---      ---       pEventPayload
      R15         REGSYM    ---      BYTE      qIdx
      ---         BLOCKEND  CODE     ---       LVL=1
      00FF396DH   LINE      ---      ---       #289
      00FF396DH   LINE      CODE     ---       #289

      00FF5976H   BLOCK     CODE     ---       LVL=0
      00FF5976H   LINE      ---      ---       #293
      00FF5978H   LINE      ---      ---       #294
      00FF5978H   BLOCK     CODE     NEAR LAB  LVL=1
      00FF5978H   LINE      ---      ---       #296
      00FF597BH   LINE      ---      ---       #299
      00FF5985H   LINE      ---      ---       #300
      00FF598CH   LINE      ---      ---       #301
      00FF5992H   LINE      ---      ---       #302
      00FF5998H   LINE      ---      ---       #303
      REG=3       REGSYM    ---      ---       pEventPayload
      R15         REGSYM    ---      BYTE      qIdx
      ---         BLOCKEND  CODE     ---       LVL=1
      00FF599DH   LINE      ---      ---       #311
      00FF599DH   LINE      CODE     ---       #311

      00FF59ACH   BLOCK     CODE     ---       LVL=0
      00FF59ACH   LINE      ---      ---       #313
      00FF59AEH   LINE      ---      ---       #314
      00FF59AEH   BLOCK     CODE     NEAR LAB  LVL=1
      00FF59AEH   LINE      ---      ---       #316
      00FF59B1H   LINE      ---      ---       #319
L251 LINKER/LOCATER V4.66.93.0                                                        12/18/2023  14:21:09  PAGE 113


      00FF59BBH   LINE      ---      ---       #320
      00FF59C2H   LINE      ---      ---       #321
      00FF59C8H   LINE      ---      ---       #322
      00FF59CEH   LINE      ---      ---       #323
      REG=3       REGSYM    ---      ---       pEventPayload
      R15         REGSYM    ---      BYTE      qIdx
      ---         BLOCKEND  CODE     ---       LVL=1
      00FF59D3H   LINE      ---      ---       #330
      00FF59D3H   LINE      CODE     ---       #330

      ---         MODULE    ---      ---       mac_RaaSchedule
      00FF96C3H   PUBLIC    CODE     ---       mac_Raa_SchInitHdlr
      00FF925AH   PUBLIC    CODE     ---       mac_Raa_SchConfigHdlr
      00FF96C4H   PUBLIC    CODE     ---       mac_Raa_SchWaitMHRHdlr
      00FF2734H   PUBLIC    CODE     ---       mac_Raa_SchWaitRxDoneHdlr
      00FF975EH   PUBLIC    CODE     ---       mac_Raa_SchWaitTxDoneHdlr
      00FF978FH   PUBLIC    CODE     ---       mac_Raa_SchWaitResumeHdlr
      00FF9790H   PUBLIC    CODE     ---       mac_Raa_SchEndHdlr
      00FF97AEH   PUBLIC    CODE     ---       mac_Raa_SchReservedHdlr
      00FF7D3DH   PUBLIC    CODE     ---       Mac_RaaRxDoneHandle?_
      00FF2787H   PUBLIC    CODE     ---       Mac_RaaClearAckQandGenRxData
      00FF8303H   PUBLIC    CODE     ---       MAC_RaaSchedule
      00FF97AFH   PUBLIC    CODE     ---       mac_org_mhr_done_handler
      00FF97CCH   PUBLIC    CODE     ---       mac_org_rx_done_handler
      00FF97F1H   PUBLIC    CODE     ---       MAC_MhrParse
      00FF2793H   PUBLIC    CODE     ---       MAC_RxDoneEventGen?_
      00FF71C8H   PUBLIC    CODE     ---       MAC_RXQ_CPY?_
      00FF97FCH   PUBLIC    CODE     ---       mac_genAck
      00FF373FH   PUBLIC    CODE     ---       Mac_endianConvert
      00FF9841H   PUBLIC    CODE     ---       mac_genAckFrmCtrl
      00FF3792H   PUBLIC    CODE     ---       mac_RssiInfoCalc
      00FF98A8H   PUBLIC    CODE     ---       mod_replace
      00FF98B3H   PUBLIC    CODE     ---       mac_getCslPhase
      00FF33EDH   PUBLIC    CODE     ---       mac_genEnhAck
      00FF7C71H   PUBLIC    CODE     ---       MAC_AckSet
      00FF98F4H   PUBLIC    CODE     ---       MAC_NonceGen
      00FF9965H   PUBLIC    CODE     ---       mac_Filter?_
      0000B2B8H   PUBLIC    EDATA    INT       gMacRaaState
      0000B2BAH   PUBLIC    EDATA    ---       gMacPib
      0000B2D9H   PUBLIC    EDATA    BYTE      rtc_q_cnt
      0000B2DAH   PUBLIC    EDATA    ---       gRaa_Sch_Handler_Entry
      00000080H   SFRSYM    DATA     BYTE      P0
      00008000H   SYMBOL    NCONST   ---       ?tpl?0001

      00FF97F1H   BLOCK     CODE     ---       LVL=0
      00FF97F1H   LINE      ---      ---       #80
      00FF97F1H   LINE      ---      ---       #81
      00FF97F1H   BLOCK     CODE     NEAR LAB  LVL=1
      00FF97F1H   LINE      ---      ---       #82
      00FF97F5H   LINE      ---      ---       #83
      REG=3       REGSYM    ---      ---       pMhr
      ---         BLOCKEND  CODE     ---       LVL=1
      ---         BLOCKEND  CODE     ---       LVL=0

      00FF2793H   BLOCK     CODE     ---       LVL=0
      00FF2793H   LINE      ---      ---       #121
      00FF279BH   LINE      ---      ---       #122
      R10         REGSYM    ---      BYTE      isCrcPass
      00FF279BH   BLOCK     CODE     NEAR LAB  LVL=1
      00FF279BH   LINE      ---      ---       #125
      00FF27A4H   LINE      ---      ---       #132
      00FF27B0H   LINE      ---      ---       #133
      00FF27B8H   LINE      ---      ---       #134
      00FF27BEH   LINE      ---      ---       #135
      00FF27D6H   LINE      ---      ---       #136
L251 LINKER/LOCATER V4.66.93.0                                                        12/18/2023  14:21:09  PAGE 114


      00FF27E5H   LINE      ---      ---       #141
      00FF27E8H   LINE      ---      ---       #153
      00FF2811H   LINE      ---      ---       #154
      00FF281CH   LINE      ---      ---       #155
      00FF281CH   LINE      ---      ---       #156
      00FF2831H   LINE      ---      ---       #159
      00FF2840H   LINE      ---      ---       #163
      00FF2868H   LINE      ---      ---       #164
      00FF2873H   LINE      ---      ---       #165
      00FF2884H   LINE      ---      ---       #166
      00FF288DH   LINE      ---      ---       #167
      00FF2890H   LINE      ---      ---       #169
      00FF2897H   LINE      ---      ---       #173
      00FF289EH   LINE      ---      ---       #180
      00FF28A0H   LINE      ---      ---       #182
      00FF28A3H   LINE      ---      ---       #183
      00FF28A3H   LINE      ---      ---       #187
      00FF28A3H   LINE      ---      ---       #189
      R11         REGSYM    ---      BYTE      retValue
      WR14        REGSYM    ---      WORD      bufferAddress_LOCAL
      FFFFFFFDH   STKSYM    ---      DWORD     currRtc
      REG=7       REGSYM    ---      ---       pOutput
      FFFFFFF6H   STKSYM    ---      ---       sRxControlField
      ---         BLOCKEND  CODE     ---       LVL=1
      00FF28A3H   LINE      ---      ---       #190
      00FF28A3H   LINE      CODE     ---       #190

      00FF71C8H   BLOCK     CODE     ---       LVL=0
      00FF71C8H   LINE      ---      ---       #193
      00FF71D0H   LINE      ---      ---       #194
      R10         REGSYM    ---      BYTE      isCrcPass
      00FF71D0H   BLOCK     CODE     NEAR LAB  LVL=1
      00FF71D0H   LINE      ---      ---       #195
      00FF71DDH   LINE      ---      ---       #196
      00FF71E6H   LINE      ---      ---       #197
      00FF71FCH   LINE      ---      ---       #204
      00FF7208H   LINE      ---      ---       #205
      00FF7210H   LINE      ---      ---       #206
      00FF7216H   LINE      ---      ---       #207
      00FF722EH   LINE      ---      ---       #208
      00FF723DH   LINE      ---      ---       #212
      00FF7240H   LINE      ---      ---       #224
      00FF7269H   LINE      ---      ---       #225
      00FF7274H   LINE      ---      ---       #226
      00FF7274H   LINE      ---      ---       #227
      00FF7289H   LINE      ---      ---       #230
      00FF7297H   LINE      ---      ---       #234
      00FF72B7H   LINE      ---      ---       #235
      00FF72C2H   LINE      ---      ---       #236
      00FF72D3H   LINE      ---      ---       #240
      00FF72EFH   LINE      ---      ---       #241
      00FF72FFH   LINE      ---      ---       #242
      00FF7308H   LINE      ---      ---       #244
      FFFFFFFFH   STKSYM    ---      WORD      bufferAddress_NORMAL
      WR12        REGSYM    ---      WORD      bufferAddress_LOCAL
      FFFFFFFDH   STKSYM    ---      WORD      bufferLength
      FFFFFFF9H   STKSYM    ---      DWORD     currRtc
      REG=2       REGSYM    ---      ---       pInput
      REG=7       REGSYM    ---      ---       pOutput
      FFFFFFF2H   STKSYM    ---      ---       sRxControlField
      ---         BLOCKEND  CODE     ---       LVL=1
      00FF730AH   LINE      ---      ---       #245
      00FF730AH   LINE      CODE     ---       #245

      00FF97FCH   BLOCK     CODE     ---       LVL=0
L251 LINKER/LOCATER V4.66.93.0                                                        12/18/2023  14:21:09  PAGE 115


      00FF97FCH   LINE      ---      ---       #248
      00FF9806H   LINE      ---      ---       #249
      REG=7       REGSYM    ---      ---       pbuf
      R5          REGSYM    ---      BYTE      framePending
      R13         REGSYM    ---      BYTE      dsn
      00FF9806H   BLOCK     CODE     NEAR LAB  LVL=1
      00FF9806H   LINE      ---      ---       #250
      00FF9818H   LINE      ---      ---       #251
      00FF9824H   LINE      ---      ---       #252
      00FF982BH   LINE      ---      ---       #254
      00FF9835H   LINE      ---      ---       #255
      0000B5D4H   SYMBOL    EDATA    WORD      fcf
      ---         BLOCKEND  CODE     ---       LVL=1
      00FF983CH   LINE      ---      ---       #256
      00FF983CH   LINE      CODE     ---       #256

      00FF3734H   BLOCK     CODE     ---       LVL=0
      00FF373FH   LINE      ---      ---       #259
      00FF3741H   LINE      ---      ---       #263
      00FF3734H   SYMBOL    CODE     NEAR LAB  ?L?COM0024
      REG=3       REGSYM    ---      ---       pDataIn
      R5          REGSYM    ---      BYTE      TypeMap
      00FF3741H   BLOCK     CODE     NEAR LAB  LVL=1
      00FF3741H   LINE      ---      ---       #266
      00FF3741H   LINE      ---      ---       #268
      00FF374DH   LINE      ---      ---       #270
      00FF374DH   LINE      ---      ---       #274
      00FF374FH   LINE      ---      ---       #275
      00FF376EH   LINE      ---      ---       #277
      00FF3782H   LINE      ---      ---       #280
      00FF3783H   LINE      ---      ---       #282
      00FF3783H   LINE      ---      ---       #285
      00FF3785H   LINE      ---      ---       #286
      00FF378EH   LINE      ---      ---       #288
      00FF378EH   LINE      ---      ---       #290
      00FF378EH   LINE      ---      ---       #292
      00FF378EH   LINE      ---      ---       #293
      00FF378EH   LINE      ---      ---       #294
      00FF3791H   LINE      ---      ---       #295
      00FF3791H   LINE      ---      ---       #298
      REG=1       REGSYM    ---      ---       pDwTemp
      REG=2       REGSYM    ---      ---       pWTemp
      REG=3       REGSYM    ---      ---       pData
      ---         BLOCKEND  CODE     ---       LVL=1
      00FF3791H   LINE      ---      ---       #299
      00FF3791H   LINE      CODE     ---       #299

      00FF9841H   BLOCK     CODE     ---       LVL=0
      00FF9841H   LINE      ---      ---       #308
      00FF9847H   LINE      ---      ---       #310
      00FF98A7H   LINE      ---      ---       #317
      REG=0       REGSYM    ---      ---       pbuf
      R10         REGSYM    ---      BYTE      framePending
      REG=1       REGSYM    ---      ---       hdr
      ---         BLOCKEND  ---      ---       LVL=0

      00FF3792H   BLOCK     CODE     ---       LVL=0
      00FF3792H   LINE      ---      ---       #319
      00FF3794H   LINE      ---      ---       #321
      00FF37A4H   LINE      ---      ---       #322
      R11         REGSYM    ---      BYTE      rssi
      R5          REGSYM    ---      BYTE      a
      R6          REGSYM    ---      BYTE      b
      ---         BLOCKEND  ---      ---       LVL=0

L251 LINKER/LOCATER V4.66.93.0                                                        12/18/2023  14:21:09  PAGE 116


      00FF98A8H   BLOCK     CODE     ---       LVL=0
      00FF98A8H   LINE      ---      ---       #324
      00FF98AAH   LINE      ---      ---       #325
      DR4         REGSYM    ---      DWORD     input1
      DR8         REGSYM    ---      DWORD     input2
      00FF98AAH   BLOCK     CODE     NEAR LAB  LVL=1
      00FF98AAH   LINE      ---      ---       #326
      00FF98AAH   LINE      ---      ---       #327
      00FF98ACH   LINE      ---      ---       #329
      00FF98AEH   LINE      ---      ---       #330
      00FF98B2H   LINE      ---      ---       #331
      DR4         REGSYM    ---      DWORD     rem
      ---         BLOCKEND  CODE     ---       LVL=1
      00FF98B2H   LINE      ---      ---       #332
      00FF98B2H   LINE      CODE     ---       #332

      00FF98B3H   BLOCK     CODE     ---       LVL=0
      00FF98B3H   LINE      ---      ---       #333
      00FF98BBH   LINE      ---      ---       #334
      0000B52DH   SYMBOL    EDATA    DWORD     cslPeriodUs
      DR12        REGSYM    ---      DWORD     cslSampleTime
      00FF98BBH   BLOCK     CODE     NEAR LAB  LVL=1
      00FF98BBH   LINE      ---      ---       #337
      00FF98C0H   LINE      ---      ---       #343
      00FF98C4H   LINE      ---      ---       #344
      00FF98CEH   LINE      ---      ---       #347
      00FF98D2H   LINE      ---      ---       #348
      00FF98D5H   LINE      ---      ---       #349
      00FF98D8H   LINE      ---      ---       #350
      00FF98D8H   LINE      ---      ---       #352
      00FF98E2H   LINE      ---      ---       #353
      00FF98E8H   LINE      ---      ---       #355
      00FF98EAH   LINE      ---      ---       #357
      DR0         REGSYM    ---      DWORD     curTime
      DR4         REGSYM    ---      DWORD     diff
      0000B531H   SYMBOL    EDATA    DWORD     diff1
      DR4         REGSYM    ---      DWORD     diff2
      DR4         REGSYM    ---      DWORD     diffPlusPeriod
      ---         BLOCKEND  CODE     ---       LVL=1
      00FF98F1H   LINE      ---      ---       #358
      00FF98F1H   LINE      CODE     ---       #358

      00FF33EDH   BLOCK     CODE     ---       LVL=0
      00FF33EDH   LINE      ---      ---       #367
      00FF33F7H   LINE      ---      ---       #368
      REG=7       REGSYM    ---      ---       pbuf
      0000B595H   SYMBOL    EDATA    BYTE      framePending
      REG=6       REGSYM    ---      ---       hdr
      00FF33F7H   BLOCK     CODE     NEAR LAB  LVL=1
      00FF33F7H   LINE      ---      ---       #372
      00FF33FCH   LINE      ---      ---       #374
      00FF3405H   LINE      ---      ---       #375
      00FF340CH   LINE      ---      ---       #376
      00FF3412H   LINE      ---      ---       #378
      00FF3418H   LINE      ---      ---       #379
      00FF341DH   LINE      ---      ---       #381
      00FF3424H   LINE      ---      ---       #382
      00FF3433H   LINE      ---      ---       #385
      00FF3438H   LINE      ---      ---       #387
      00FF344BH   LINE      ---      ---       #388
      00FF344DH   LINE      ---      ---       #392
      00FF3455H   LINE      ---      ---       #393
      00FF3455H   LINE      ---      ---       #395
      00FF3460H   LINE      ---      ---       #397
      00FF3462H   LINE      ---      ---       #398
L251 LINKER/LOCATER V4.66.93.0                                                        12/18/2023  14:21:09  PAGE 117


      00FF346AH   LINE      ---      ---       #400
      00FF3474H   LINE      ---      ---       #401
      00FF347CH   LINE      ---      ---       #402
      00FF3482H   LINE      ---      ---       #405
      00FF348BH   LINE      ---      ---       #407
      00FF3492H   LINE      ---      ---       #410
      00FF349CH   LINE      ---      ---       #412
      00FF34A4H   LINE      ---      ---       #413
      00FF34AAH   LINE      ---      ---       #414
      00FF34AAH   LINE      ---      ---       #416
      00FF34B1H   LINE      ---      ---       #419
      00FF34BBH   LINE      ---      ---       #421
      00FF34C3H   LINE      ---      ---       #422
      00FF34C9H   LINE      ---      ---       #423
      00FF34CBH   LINE      ---      ---       #427
      00FF34D8H   LINE      ---      ---       #429
      00FF34E0H   LINE      ---      ---       #430
      00FF34EDH   LINE      ---      ---       #432
      00FF34F5H   LINE      ---      ---       #433
      00FF34FFH   LINE      ---      ---       #434
      00FF34FFH   LINE      ---      ---       #435
      00FF34FFH   LINE      ---      ---       #437
      00FF3508H   LINE      ---      ---       #439
      00FF3516H   LINE      ---      ---       #440
      00FF351EH   LINE      ---      ---       #442
      00FF3527H   LINE      ---      ---       #443
      00FF352EH   LINE      ---      ---       #444
      00FF3536H   LINE      ---      ---       #446
      00FF353EH   LINE      ---      ---       #447
      00FF3546H   LINE      ---      ---       #449
      00FF3550H   LINE      ---      ---       #480
      00FF3550H   LINE      ---      ---       #482
      00FF3556H   LINE      ---      ---       #485
      00FF355EH   LINE      ---      ---       #486
      00FF3566H   LINE      ---      ---       #487
      00FF356EH   LINE      ---      ---       #488
      00FF3576H   LINE      ---      ---       #490
      00FF357CH   LINE      ---      ---       #492
      00FF3584H   LINE      ---      ---       #493
      00FF358AH   LINE      ---      ---       #495
      00FF3592H   LINE      ---      ---       #497
      00FF359CH   LINE      ---      ---       #498
      00FF359CH   LINE      ---      ---       #500
      00FF35A5H   LINE      ---      ---       #502
      00FF35ABH   LINE      ---      ---       #503
      00FF35B3H   LINE      ---      ---       #504
      0000B596H   SYMBOL    EDATA    BYTE      hdrSize
      0000B597H   SYMBOL    EDATA    BYTE      LmIesize
      00FF35B3H   BLOCK     CODE     NEAR LAB  LVL=2
      00FF35B3H   LINE      ---      ---       #508
      00FF35BBH   LINE      ---      ---       #509
      00FF35C2H   LINE      ---      ---       #510
      00FF35CAH   LINE      ---      ---       #512
      00FF35D2H   LINE      ---      ---       #513
      00FF35DBH   LINE      ---      ---       #514
      00FF35E4H   LINE      ---      ---       #515
      00FF35ECH   LINE      ---      ---       #516
      00FF35F4H   LINE      ---      ---       #526
      00FF361DH   LINE      ---      ---       #529
      00FF3623H   LINE      ---      ---       #533
      00FF3635H   LINE      ---      ---       #534
      00FF363DH   LINE      ---      ---       #535
      00FF3643H   LINE      ---      ---       #536
      00FF3643H   LINE      ---      ---       #537
      00FF3649H   LINE      ---      ---       #541
L251 LINKER/LOCATER V4.66.93.0                                                        12/18/2023  14:21:09  PAGE 118


      00FF365BH   LINE      ---      ---       #542
      00FF3663H   LINE      ---      ---       #543
      00FF366CH   LINE      ---      ---       #544
      00FF366CH   LINE      ---      ---       #545
      00FF367BH   LINE      ---      ---       #549
      00FF368DH   LINE      ---      ---       #550
      00FF3695H   LINE      ---      ---       #551
      00FF369EH   LINE      ---      ---       #552
      00FF369EH   LINE      ---      ---       #554
      00FF36AEH   LINE      ---      ---       #555
      00FF36B8H   LINE      ---      ---       #556
      00FF36C8H   LINE      ---      ---       #558
      0000B598H   SYMBOL    EDATA    BYTE      rssi
      ---         BLOCKEND  CODE     ---       LVL=2
      00FF36D8H   LINE      ---      ---       #559
      00FF36D8H   LINE      ---      ---       #562
      00FF36DEH   LINE      ---      ---       #564
      00FF36E7H   LINE      ---      ---       #567
      00FF36EFH   LINE      ---      ---       #568
      00FF36F7H   LINE      ---      ---       #569
      00FF36FFH   LINE      ---      ---       #570
      00FF3707H   LINE      ---      ---       #571
      00FF3711H   LINE      ---      ---       #572
      00FF3711H   LINE      ---      ---       #576
      00FF3723H   LINE      ---      ---       #579
      00FF3723H   LINE      CODE     ---       #579
      ---         BLOCKEND  CODE     ---       LVL=0

      00FF7C71H   BLOCK     CODE     ---       LVL=0
      00FF7C71H   LINE      ---      ---       #583
      00FF7C73H   LINE      ---      ---       #584
      00FF7C73H   BLOCK     CODE     NEAR LAB  LVL=1
      00FF7C73H   LINE      ---      ---       #587
      00FF7C7EH   LINE      ---      ---       #589
      00FF7C89H   LINE      ---      ---       #591
      00FF7C8CH   LINE      ---      ---       #594
      00FF7C95H   LINE      ---      ---       #597
      00FF7CAAH   LINE      ---      ---       #601
      00FF7CB2H   LINE      ---      ---       #602
      00FF7CB4H   LINE      ---      ---       #604
      00FF7CB9H   LINE      ---      ---       #607
      00FF7CC3H   LINE      ---      ---       #609
      00FF7CE2H   LINE      ---      ---       #610
      00FF7CEAH   LINE      ---      ---       #611
      00FF7CEAH   LINE      ---      ---       #612
      00FF7CFFH   LINE      ---      ---       #616
      00FF7CFFH   LINE      ---      ---       #620
      00FF7D0DH   LINE      ---      ---       #621
      00FF7D15H   LINE      ---      ---       #624
      00FF7D1DH   LINE      ---      ---       #627
      00FF7D32H   LINE      ---      ---       #628
      00FF7D35H   LINE      ---      ---       #629
      00FF7D37H   LINE      ---      ---       #630
      00FF7D3AH   LINE      ---      ---       #631
      00FF7D3AH   LINE      ---      ---       #632
      R11         REGSYM    ---      BYTE      retValue
      ---         BLOCKEND  CODE     ---       LVL=1
      00FF7D3AH   LINE      ---      ---       #633
      00FF7D3AH   LINE      CODE     ---       #633

      00FF98F4H   BLOCK     CODE     ---       LVL=0
      00FF98F4H   LINE      ---      ---       #635
      00FF98F8H   LINE      ---      ---       #636
      00FF98F8H   BLOCK     CODE     NEAR LAB  LVL=1
      00FF98F8H   LINE      ---      ---       #637
L251 LINKER/LOCATER V4.66.93.0                                                        12/18/2023  14:21:09  PAGE 119


      00FF9901H   LINE      ---      ---       #642
      00FF9903H   LINE      ---      ---       #644
      00FF9917H   LINE      ---      ---       #645
      00FF991EH   LINE      ---      ---       #649
      00FF992BH   LINE      ---      ---       #651
      00FF9935H   LINE      ---      ---       #652
      00FF9935H   LINE      ---      ---       #653
      00FF9955H   LINE      ---      ---       #654
      WR14        REGSYM    ---      WORD      bufferAddress_LOCAL
      REG=3       REGSYM    ---      ---       pOutput
      R13         REGSYM    ---      BYTE      i
      ---         BLOCKEND  CODE     ---       LVL=1
      00FF9960H   LINE      ---      ---       #655
      00FF9960H   LINE      CODE     ---       #655

      00FF9965H   BLOCK     CODE     ---       LVL=0
      00FF9965H   LINE      ---      ---       #661
      00FF9969H   LINE      ---      ---       #662
      00FF9969H   BLOCK     CODE     NEAR LAB  LVL=1
      00FF9969H   LINE      ---      ---       #664
      00FF9970H   LINE      ---      ---       #667
      00FF997BH   LINE      ---      ---       #668
      00FF997DH   LINE      ---      ---       #672
      00FF9989H   LINE      ---      ---       #673
      00FF9992H   LINE      ---      ---       #675
      00FF999EH   LINE      ---      ---       #681
      00FF99A8H   LINE      ---      ---       #684
      00FF99B3H   LINE      ---      ---       #688
      00FF99BDH   LINE      ---      ---       #690
      00FF99C0H   LINE      ---      ---       #691
      00FF99C2H   LINE      ---      ---       #694
      00FF99C4H   LINE      ---      ---       #696
      00FF99E3H   LINE      ---      ---       #698
      00FF99F0H   LINE      ---      ---       #699
      00FF99F3H   LINE      ---      ---       #700
      00FF99FAH   LINE      ---      ---       #702
      00FF99FAH   LINE      ---      ---       #703
      00FF99FEH   LINE      ---      ---       #705
      00FF9A01H   LINE      ---      ---       #706
      00FF9A04H   LINE      ---      ---       #707
      00FF9A04H   LINE      ---      ---       #726
      00FF9A06H   LINE      ---      ---       #728
      00FF9A17H   LINE      ---      ---       #729
      00FF9A24H   LINE      ---      ---       #730
      00FF9A2BH   LINE      ---      ---       #731
      00FF9A2BH   LINE      ---      ---       #736
      00FF9A2FH   LINE      ---      ---       #739
      00FF9A31H   LINE      ---      ---       #740
      00FF9A3BH   LINE      ---      ---       #742
      00FF9A3EH   LINE      ---      ---       #743
      00FF9A40H   LINE      ---      ---       #746
      00FF9A42H   LINE      ---      ---       #748
      00FF9A5DH   LINE      ---      ---       #750
      00FF9A60H   LINE      ---      ---       #751
      00FF9A64H   LINE      ---      ---       #752
      00FF9A67H   LINE      ---      ---       #753
      00FF9A6EH   LINE      ---      ---       #755
      00FF9A6EH   LINE      ---      ---       #756
      00FF9A74H   LINE      ---      ---       #758
      00FF9A77H   LINE      ---      ---       #759
      00FF9A7AH   LINE      ---      ---       #760
      00FF9A7AH   LINE      ---      ---       #776
      00FF9A7EH   LINE      ---      ---       #779
      00FF9A80H   LINE      ---      ---       #780
      00FF9A94H   LINE      ---      ---       #782
L251 LINKER/LOCATER V4.66.93.0                                                        12/18/2023  14:21:09  PAGE 120


      00FF9A97H   LINE      ---      ---       #783
      00FF9A99H   LINE      ---      ---       #786
      00FF9A9BH   LINE      ---      ---       #788
      00FF9AC8H   LINE      ---      ---       #791
      00FF9ACCH   LINE      ---      ---       #792
      00FF9ACFH   LINE      ---      ---       #793
      00FF9AD6H   LINE      ---      ---       #795
      00FF9AD6H   LINE      ---      ---       #796
      00FF9ADAH   LINE      ---      ---       #798
      00FF9ADDH   LINE      ---      ---       #799
      00FF9AE0H   LINE      ---      ---       #800
      00FF9AE0H   LINE      ---      ---       #832
      00FF9AE3H   LINE      ---      ---       #834
      00FF9AE3H   LINE      ---      ---       #838
      00FF9AE5H   LINE      ---      ---       #839
      00FF9AE7H   LINE      ---      ---       #841
      00FF9AEFH   LINE      ---      ---       #843
      00FF9AF2H   LINE      ---      ---       #844
      00FF9AF9H   LINE      ---      ---       #846
      00FF9B01H   LINE      ---      ---       #848
      00FF9B04H   LINE      ---      ---       #849
      00FF9B07H   LINE      ---      ---       #850
      00FF9B07H   LINE      ---      ---       #861
      00FF9B0DH   LINE      ---      ---       #864
      00FF9B11H   LINE      ---      ---       #865
      00FF9B15H   LINE      ---      ---       #866
      00FF9B1BH   LINE      ---      ---       #867
      00FF9B1FH   LINE      ---      ---       #872
      00FF9B21H   LINE      ---      ---       #873
      00FF9B2FH   LINE      ---      ---       #875
      00FF9B31H   LINE      ---      ---       #877
      00FF9B48H   LINE      ---      ---       #879
      00FF9B4BH   LINE      ---      ---       #880
      00FF9B52H   LINE      ---      ---       #882
      00FF9B56H   LINE      ---      ---       #884
      00FF9B59H   LINE      ---      ---       #885
      00FF9B5CH   LINE      ---      ---       #886
      00FF9B5CH   LINE      ---      ---       #906
      00FF9B5CH   LINE      ---      ---       #907
      00FF9B5CH   LINE      ---      ---       #909
      00000000H   STKSYM    ---      BYTE      frameType
      R9          REGSYM    ---      BYTE      i
      FFFFFFFEH   STKSYM    ---      ---       is_pan_num
      R8          REGSYM    ---      BYTE      match_found
      ---         BLOCKEND  CODE     ---       LVL=1
      00FF9B5EH   LINE      ---      ---       #910
      00FF9B5EH   LINE      CODE     ---       #910

      00FF7D3DH   BLOCK     CODE     ---       LVL=0
      00FF7D3DH   LINE      ---      ---       #943
      00FF7D41H   LINE      ---      ---       #944
      00FF7D41H   BLOCK     CODE     NEAR LAB  LVL=1
      00FF7D41H   LINE      ---      ---       #945
      00FF7D41H   LINE      ---      ---       #946
      00FF7D44H   LINE      ---      ---       #951
      00FF7D47H   LINE      ---      ---       #952
      00FF7D4AH   LINE      ---      ---       #960
      00FF7D56H   LINE      ---      ---       #961
      00FF7D5AH   LINE      ---      ---       #962
      00FF7D5CH   LINE      ---      ---       #963
      00FF7D5CH   LINE      ---      ---       #968
      00FF7D63H   LINE      ---      ---       #971
      00FF7D7CH   LINE      ---      ---       #973
      00FF7D83H   LINE      ---      ---       #976
      00FF7D86H   LINE      ---      ---       #978
L251 LINKER/LOCATER V4.66.93.0                                                        12/18/2023  14:21:09  PAGE 121


      00FF7D8AH   LINE      ---      ---       #979
      00FF7D8CH   LINE      ---      ---       #980
      00FF7D8CH   LINE      ---      ---       #989
      00FF7D96H   LINE      ---      ---       #990
      00FF7DB4H   LINE      ---      ---       #991
      00FF7DB6H   LINE      ---      ---       #992
      00FF7DC6H   LINE      ---      ---       #993
      00FF7DC9H   LINE      ---      ---       #994
      00FF7DC9H   LINE      ---      ---       #1000
      00FF7DD5H   LINE      ---      ---       #1003
      00FF7DDBH   LINE      ---      ---       #1009
      00FF7DE5H   LINE      ---      ---       #1011
      00FF7DE9H   LINE      ---      ---       #1012
      00FF7DEBH   LINE      ---      ---       #1014
      00FF7DEFH   LINE      ---      ---       #1015
      00FF7DF1H   LINE      ---      ---       #1018
      00FF7DF8H   LINE      ---      ---       #1020
      00FF7DFBH   LINE      ---      ---       #1021
      00FF7E05H   LINE      ---      ---       #1023
      00FF7E08H   LINE      ---      ---       #1025
      00FF7E1EH   LINE      ---      ---       #1027
      00FF7E21H   LINE      ---      ---       #1029
      00FF7E27H   LINE      ---      ---       #1033
      00FF7E2DH   LINE      ---      ---       #1035
      00FF7E37H   LINE      ---      ---       #1036
      R10         REGSYM    ---      BYTE      macRxInfo
      R14         REGSYM    ---      BYTE      isCrcPass
      R14         REGSYM    ---      BYTE      srcAddrType
      R5          REGSYM    ---      BYTE      listidx
      00FF7E37H   BLOCK     CODE     NEAR LAB  LVL=2
      00FF7E37H   LINE      ---      ---       #1039
      00FF7E45H   LINE      ---      ---       #1041
      00FF7E50H   LINE      ---      ---       #1042
      00FF7E54H   LINE      ---      ---       #1044
      00FF7E56H   LINE      ---      ---       #1045
      00FF7E58H   LINE      ---      ---       #1047
      00FF7E5CH   LINE      ---      ---       #1049
      00FF7E6DH   LINE      ---      ---       #1050
      00FF7E6FH   LINE      ---      ---       #1053
      00FF7E80H   LINE      ---      ---       #1054
      00FF7E80H   LINE      ---      ---       #1055
      00FF7E8EH   LINE      ---      ---       #1067
      00FF7EA1H   LINE      ---      ---       #1068
      00FF7EA9H   LINE      ---      ---       #1069
      00FF7EB1H   LINE      ---      ---       #1070
      R15         REGSYM    ---      BYTE      status
      ---         BLOCKEND  CODE     ---       LVL=2
      00FF7EB9H   LINE      ---      ---       #1071
      00FF7EB9H   LINE      ---      ---       #1076
      00FF7EBBH   LINE      ---      ---       #1078
      00FF7EC0H   LINE      ---      ---       #1082
      00FF7EC9H   LINE      ---      ---       #1084
      00FF7ECCH   LINE      ---      ---       #1086
      00FF7EDBH   LINE      ---      ---       #1090
      00FF7EF3H   LINE      ---      ---       #1092
      00FF7EFAH   LINE      ---      ---       #1094
      00FF7EFDH   LINE      ---      ---       #1096
      00FF7F01H   LINE      ---      ---       #1097
      00FF7F01H   LINE      ---      ---       #1100
      00FF7F04H   LINE      ---      ---       #1102
      00FF7F07H   LINE      ---      ---       #1105
      00FF7F22H   LINE      ---      ---       #1106
      00FF7F2BH   LINE      ---      ---       #1109
      00FF7F35H   LINE      ---      ---       #1111
      00FF7F39H   LINE      ---      ---       #1112
L251 LINKER/LOCATER V4.66.93.0                                                        12/18/2023  14:21:09  PAGE 122


      00FF7F3BH   LINE      ---      ---       #1114
      00FF7F3FH   LINE      ---      ---       #1116
      00FF7F41H   LINE      ---      ---       #1120
      00FF7F47H   LINE      ---      ---       #1123
      00FF7F51H   LINE      ---      ---       #1125
      00FF7F55H   LINE      ---      ---       #1126
      00FF7F57H   LINE      ---      ---       #1128
      00FF7F5BH   LINE      ---      ---       #1129
      00FF7F5BH   LINE      ---      ---       #1131
      00FF7F5BH   LINE      ---      ---       #1132
      00FF7F5DH   LINE      ---      ---       #1135
      00FF7F60H   LINE      ---      ---       #1137
      00FF7F65H   LINE      ---      ---       #1141
      00FF7F68H   LINE      ---      ---       #1144
      00FF7F72H   LINE      ---      ---       #1146
      00FF7F76H   LINE      ---      ---       #1147
      00FF7F78H   LINE      ---      ---       #1149
      00FF7F7CH   LINE      ---      ---       #1151
      00FF7F7CH   LINE      ---      ---       #1152
      00FF7F7EH   LINE      ---      ---       #1155
      00FF7F81H   LINE      ---      ---       #1157
      00FF7F86H   LINE      ---      ---       #1161
      00FF7F89H   LINE      ---      ---       #1164
      00FF7F93H   LINE      ---      ---       #1166
      00FF7F97H   LINE      ---      ---       #1167
      00FF7F99H   LINE      ---      ---       #1169
      00FF7FA0H   LINE      ---      ---       #1170
      00FF7FA0H   LINE      ---      ---       #1171
      00FF7FA0H   LINE      ---      ---       #1173
      00FF7FA0H   LINE      CODE     ---       #1173
      ---         BLOCKEND  CODE     ---       LVL=0

      00FF2787H   BLOCK     CODE     ---       LVL=0
      00FF2787H   LINE      ---      ---       #1176
      00FF2787H   LINE      ---      ---       #1179
      00FF278DH   LINE      ---      ---       #1182
      ---         BLOCKEND  ---      ---       LVL=0

      00FF96C3H   BLOCK     CODE     ---       LVL=0
      00FF96C3H   LINE      ---      ---       #1187
      00FF96C3H   LINE      ---      ---       #1189
      ---         BLOCKEND  ---      ---       LVL=0

      00FF925AH   BLOCK     CODE     ---       LVL=0
      00FF925AH   LINE      ---      ---       #1191
      00FF925CH   LINE      ---      ---       #1193
      00FF925FH   LINE      ---      ---       #1194
      00FF9262H   LINE      ---      ---       #1197
      00FF9270H   LINE      ---      ---       #1199
      00FF927EH   LINE      ---      ---       #1201
      00FF927EH   LINE      ---      ---       #1202
      00FF927EH   LINE      ---      ---       #1232
      00FF927EH   BLOCK     CODE     NEAR LAB  LVL=1
      00FF927EH   LINE      ---      ---       #1234
      00FF9286H   LINE      ---      ---       #1235
      00FF928EH   LINE      ---      ---       #1236
      00FF9296H   LINE      ---      ---       #1237
      00FF929EH   LINE      ---      ---       #1238
      0000B535H   SYMBOL    EDATA    ---       cb
      ---         BLOCKEND  CODE     ---       LVL=1
      00FF92A5H   LINE      ---      ---       #1239
      00FF92A5H   LINE      ---      ---       #1249
      00FF92AAH   LINE      ---      ---       #1251
      00FF92ADH   LINE      ---      ---       #1254
      00FF92ADH   LINE      ---      ---       #1256
L251 LINKER/LOCATER V4.66.93.0                                                        12/18/2023  14:21:09  PAGE 123


      00FF92B7H   LINE      ---      ---       #1258
      00FF92BAH   LINE      ---      ---       #1259
      00FF92BDH   LINE      ---      ---       #1270
      00FF92BDH   LINE      ---      ---       #1274
      00FF92C3H   LINE      ---      ---       #1278
      00FF92C9H   LINE      ---      ---       #1280
      00FF92D9H   LINE      ---      ---       #1283
      00FF92DFH   LINE      ---      ---       #1284
      00FF92E1H   LINE      ---      ---       #1287
      00FF92E5H   LINE      ---      ---       #1288
      00FF92E7H   LINE      ---      ---       #1292
      00FF92EFH   LINE      ---      ---       #1296
      00FF92EFH   LINE      ---      ---       #1297
      00FF92F1H   LINE      ---      ---       #1300
      00FF92F4H   LINE      ---      ---       #1301
      00FF92F4H   LINE      ---      ---       #1303
      00FF9300H   LINE      ---      ---       #1305
      00FF9308H   LINE      ---      ---       #1306
      00FF9308H   LINE      CODE     ---       #1306

      00FF96C4H   BLOCK     CODE     ---       LVL=0
      00FF96C4H   LINE      ---      ---       #1308
      00FF96C4H   LINE      ---      ---       #1309
      00FF96C4H   BLOCK     CODE     NEAR LAB  LVL=1
      00FF96C4H   LINE      ---      ---       #1310
      00FF96C4H   LINE      ---      ---       #1315
      00FF96C7H   LINE      ---      ---       #1330
      00FF96CDH   LINE      ---      ---       #1332
      00FF96D0H   LINE      ---      ---       #1334
      00FF96D6H   LINE      ---      ---       #1336
      00FF96DBH   LINE      ---      ---       #1337
      00FF96E1H   LINE      ---      ---       #1338
      00FF96E1H   LINE      ---      ---       #1354
      00FF96E8H   LINE      ---      ---       #1366
      00FF96ECH   LINE      ---      ---       #1367
      00FF96EEH   LINE      ---      ---       #1369
      00FF96F4H   LINE      ---      ---       #1371
      00FF96F7H   LINE      ---      ---       #1372
      00FF9701H   LINE      ---      ---       #1374
      00FF9704H   LINE      ---      ---       #1375
      00FF9705H   LINE      ---      ---       #1376
      00FF9705H   LINE      ---      ---       #1378
      00FF970FH   LINE      ---      ---       #1380
      00FF9712H   LINE      ---      ---       #1381
      00FF971AH   LINE      ---      ---       #1382
      00FF971BH   LINE      ---      ---       #1383
      00FF971BH   LINE      ---      ---       #1385
      00FF9721H   LINE      ---      ---       #1387
      00FF9730H   LINE      ---      ---       #1388
      00FF9742H   LINE      ---      ---       #1389
      00FF974CH   LINE      ---      ---       #1390
      00FF974CH   LINE      ---      ---       #1392
      00FF9754H   LINE      ---      ---       #1393
      00FF975DH   LINE      ---      ---       #1394
      WR6         REGSYM    ---      WORD      macFunEventQueue
      ---         BLOCKEND  CODE     ---       LVL=1
      ---         BLOCKEND  CODE     ---       LVL=0

      00FF2734H   BLOCK     CODE     ---       LVL=0
      00FF2734H   LINE      ---      ---       #1438
      00FF2734H   LINE      ---      ---       #1439
      00FF2734H   BLOCK     CODE     NEAR LAB  LVL=1
      00FF2734H   LINE      ---      ---       #1440
      00FF2734H   LINE      ---      ---       #1442
      00FF2736H   LINE      ---      ---       #1443
L251 LINKER/LOCATER V4.66.93.0                                                        12/18/2023  14:21:09  PAGE 124


      00FF2754H   LINE      ---      ---       #1445
      00FF2754H   LINE      ---      ---       #1446
      00FF2754H   LINE      ---      ---       #1448
      00FF2756H   LINE      ---      ---       #1453
      00FF275AH   LINE      ---      ---       #1454
      00FF275CH   LINE      ---      ---       #1455
      00FF275CH   LINE      ---      ---       #1457
      00FF275EH   LINE      ---      ---       #1462
      00FF2762H   LINE      ---      ---       #1463
      00FF2764H   LINE      ---      ---       #1464
      00FF2764H   LINE      ---      ---       #1465
      00FF2768H   LINE      ---      ---       #1466
      00FF276AH   LINE      ---      ---       #1467
      00FF276AH   LINE      ---      ---       #1468
      00FF276AH   LINE      ---      ---       #1469
      00FF2772H   LINE      ---      ---       #1470
      00FF2774H   LINE      ---      ---       #1471
      00FF2774H   LINE      ---      ---       #1472
      00FF2776H   LINE      ---      ---       #1473
      00FF2776H   LINE      ---      ---       #1474
      00FF2776H   LINE      ---      ---       #1475
      WR6         REGSYM    ---      WORD      macFunEventQueue
      ---         BLOCKEND  CODE     ---       LVL=1
      ---         BLOCKEND  CODE     ---       LVL=0

      00FF975EH   BLOCK     CODE     ---       LVL=0
      00FF975EH   LINE      ---      ---       #1479
      00FF975EH   LINE      ---      ---       #1480
      00FF975EH   BLOCK     CODE     NEAR LAB  LVL=1
      00FF975EH   LINE      ---      ---       #1498
      00FF9761H   LINE      ---      ---       #1499
      00FF9767H   LINE      ---      ---       #1501
      00FF976AH   LINE      ---      ---       #1502
      00FF976DH   LINE      ---      ---       #1509
      00FF9770H   LINE      ---      ---       #1512
      00FF977AH   LINE      ---      ---       #1514
      00FF9782H   LINE      ---      ---       #1516
      00FF9786H   LINE      ---      ---       #1522
      00FF9786H   LINE      ---      ---       #1524
      00FF978EH   LINE      ---      ---       #1525
      WR6         REGSYM    ---      WORD      macFunEventQueue
      ---         BLOCKEND  CODE     ---       LVL=1
      ---         BLOCKEND  CODE     ---       LVL=0

      00FF978FH   BLOCK     CODE     ---       LVL=0
      00FF978FH   LINE      ---      ---       #1529
      00FF978FH   LINE      ---      ---       #1553
      ---         BLOCKEND  ---      ---       LVL=0

      00FF9790H   BLOCK     CODE     ---       LVL=0
      00FF9790H   LINE      ---      ---       #1555
      00FF9790H   LINE      ---      ---       #1557
      00FF9793H   LINE      ---      ---       #1558
      00FF9796H   LINE      ---      ---       #1566
      00FF9799H   LINE      ---      ---       #1571
      00FF979FH   LINE      ---      ---       #1572
      00FF97A5H   LINE      ---      ---       #1576
      00FF97A8H   LINE      ---      ---       #1587
      00FF97ADH   LINE      ---      ---       #1590
      ---         BLOCKEND  ---      ---       LVL=0

      00FF97AEH   BLOCK     CODE     ---       LVL=0
      00FF97AEH   LINE      ---      ---       #1592
      00FF97AEH   LINE      ---      ---       #1594
      ---         BLOCKEND  ---      ---       LVL=0
L251 LINKER/LOCATER V4.66.93.0                                                        12/18/2023  14:21:09  PAGE 125



      00FF8303H   BLOCK     CODE     ---       LVL=0
      00FF8303H   LINE      ---      ---       #1596
      00FF8303H   LINE      ---      ---       #1599
      00FF830AH   LINE      ---      ---       #1601
      00FF830AH   LINE      ---      ---       #1602
      00FF830AH   LINE      ---      ---       #1607
      00FF8316H   LINE      ---      ---       #1608
      ---         BLOCKEND  ---      ---       LVL=0

      00FF97AFH   BLOCK     CODE     ---       LVL=0
      00FF97AFH   LINE      ---      ---       #1612
      00FF97AFH   LINE      ---      ---       #1614
      00FF97B6H   LINE      ---      ---       #1616
      00FF97C4H   LINE      ---      ---       #1621
      00FF97CBH   LINE      ---      ---       #1622
      ---         BLOCKEND  ---      ---       LVL=0

      00FF97CCH   BLOCK     CODE     ---       LVL=0
      00FF97CCH   LINE      ---      ---       #1640
      00FF97CCH   LINE      ---      ---       #1652
      00FF97DCH   LINE      ---      ---       #1657
      00FF97DEH   LINE      ---      ---       #1660
      00FF97E4H   LINE      ---      ---       #1667
      00FF97E7H   LINE      ---      ---       #1684
      00FF97E7H   LINE      ---      ---       #1688
      00FF97F0H   LINE      ---      ---       #1689
      00FF97F0H   LINE      ---      ---       #1690
      ---         BLOCKEND  ---      ---       LVL=0
      00FF7FA1H   LINE      ---      ---       #1174
      00FF3731H   LINE      ---      ---       #580

      ---         MODULE    ---      ---       mac_TarSchedule
      00FF9B6EH   PUBLIC    CODE     ---       mac_Tar_SchInitHdlr
      00FF3C9AH   PUBLIC    CODE     ---       mac_Tar_SchConfigHdlr
      00FF3972H   PUBLIC    CODE     ---       mac_Tar_SchWaitCCADoneHdlr
      00FF9B6FH   PUBLIC    CODE     ---       mac_Tar_SchWaitTxDoneHdlr
      00FF9BE1H   PUBLIC    CODE     ---       mac_Tar_SchWaitAckRxMHRHdlr
      00FF2901H   PUBLIC    CODE     ---       mac_Tar_SchWaitAckRxDoneHdlr
      00FF3AD1H   PUBLIC    CODE     ---       mac_Tar_SchWaitNormalRxMsgHdlr
      00FF3C66H   PUBLIC    CODE     ---       mac_Tar_SchWaitNormalAckDoneHdlr
      00FF9C34H   PUBLIC    CODE     ---       mac_Tar_SchEndHdlr
      00FF9C64H   PUBLIC    CODE     ---       mac_Tar_SchReservedHdlr
      00FF8317H   PUBLIC    CODE     ---       MAC_TarSchedule
      00FF3FDEH   PUBLIC    CODE     ---       MAC_TarParInit
      00FF6453H   PUBLIC    CODE     ---       MacTxFreeBmuData
      00FF2615H   PUBLIC    CODE     ---       Mac_TxGetBmuData
      00FF9C65H   PUBLIC    CODE     ---       mac_org_tx_done_handler
      00FF9C6CH   PUBLIC    CODE     ---       mac_org_cca_done_handler
      00FF3D2BH   PUBLIC    CODE     ---       MAC_TxHwSet
      00FF29F1H   PUBLIC    CODE     ---       MAC_RxHwSet
      00FF3F39H   PUBLIC    CODE     ---       MAC_BackoffTimeCal
      00FF9C85H   PUBLIC    CODE     ---       MAC_AckFrameCheck
      00FF3BD5H   PUBLIC    CODE     ---       MAC_TxDoneEventGen
      00FF3A55H   PUBLIC    CODE     ---       MAC_TxTaskSet
      00FF9DAEH   PUBLIC    CODE     ---       mac_tar_check_data_requst
      00FF3ED8H   PUBLIC    CODE     ---       MAC_SecLbHwSet
      00FF3A44H   PUBLIC    CODE     ---       MAC_TxStart
      00FF3ABCH   PUBLIC    CODE     ---       MAC_WaitforRxTaskReady
      00FF3A71H   PUBLIC    CODE     ---       MAC_CcaStart
      00FF3856H   PUBLIC    CODE     ---       MAC_CcaStatusGet
      00FF3ACCH   PUBLIC    CODE     ---       mac_tar_cca_setup
      0000A000H   PUBLIC    EDATA    INT       gMacTarState
      0000A002H   PUBLIC    EDATA    ---       gMacTxPar
      0000A028H   PUBLIC    EDATA    ---       gMacRxPar
L251 LINKER/LOCATER V4.66.93.0                                                        12/18/2023  14:21:09  PAGE 126


      0000A093H   PUBLIC    EDATA    ---       gMacHdr
      0000A0D6H   PUBLIC    EDATA    ---       gMacBuf
      0000A90EH   PUBLIC    EDATA    ---       gPhyStatus
      0000A913H   PUBLIC    EDATA    BYTE      gRetransmissionCount
      0000A914H   PUBLIC    EDATA    BYTE      gCsmacaRetry
      0000A915H   PUBLIC    EDATA    BYTE      gBackoffExpIdx
      0000A916H   PUBLIC    EDATA    ---       gTar_ScheHandler_Entry
      000000A8H.7 SFRSYM    DATA     BIT       EA
      00000080H   SFRSYM    DATA     BYTE      P0
      00008002H   SYMBOL    NCONST   ---       ?tpl?0001

      00FF3D17H   BLOCK     CODE     ---       LVL=0
      00FF3D2BH   LINE      ---      ---       #83
      00FF3D37H   LINE      ---      ---       #84
      00FF3D17H   SYMBOL    CODE     NEAR LAB  ?L?COM0016
      R11         REGSYM    ---      BYTE      bLocalTxQueue
      R10         REGSYM    ---      BYTE      txQueueIdx
      0000B5C1H   SYMBOL    EDATA    INT       aesLv
      WR12        REGSYM    ---      WORD      aDataLen
      WR14        REGSYM    ---      WORD      mDataLen
      00FF3D37H   BLOCK     CODE     NEAR LAB  LVL=1
      00FF3D37H   LINE      ---      ---       #88
      00FF3D39H   LINE      ---      ---       #90
      00FF3D3FH   LINE      ---      ---       #91
      00FF3D40H   LINE      ---      ---       #92
      00FF3D42H   LINE      ---      ---       #95
      00FF3D4EH   LINE      ---      ---       #97
      00FF3D54H   LINE      ---      ---       #98
      00FF3D58H   LINE      ---      ---       #101
      00FF3D61H   LINE      ---      ---       #102
      00FF3D61H   LINE      ---      ---       #111
      00FF3D67H   LINE      ---      ---       #113
      00FF3D6AH   LINE      ---      ---       #114
      00FF3D6AH   LINE      ---      ---       #117
      00FF3D81H   LINE      ---      ---       #125
      0000B5C3H   SYMBOL    EDATA    BYTE      retValue
      ---         BLOCKEND  CODE     ---       LVL=1
      00FF3D83H   LINE      ---      ---       #126
      00FF3D83H   LINE      CODE     ---       #126

      00FF29EEH   BLOCK     CODE     ---       LVL=0
      00FF29F1H   LINE      ---      ---       #128
      00FF29F9H   LINE      ---      ---       #129
      00FF29EEH   SYMBOL    CODE     NEAR LAB  ?L?COM0033
      R7          REGSYM    ---      BYTE      bLocalRxQueue
      WR14        REGSYM    ---      INT       aesLv
      00FF29F9H   BLOCK     CODE     NEAR LAB  LVL=1
      00FF29F9H   LINE      ---      ---       #133
      00FF29FDH   LINE      ---      ---       #135
      00FF2A05H   LINE      ---      ---       #136
      00FF2A06H   LINE      ---      ---       #137
      00FF2A08H   LINE      ---      ---       #140
      00FF2A0EH   LINE      ---      ---       #141
      00FF2A17H   LINE      ---      ---       #142
      00FF2A17H   LINE      ---      ---       #150
      00FF2A1BH   LINE      ---      ---       #152
      00FF2A1EH   LINE      ---      ---       #153
      00FF2A1EH   LINE      ---      ---       #156
      00FF2A23H   LINE      ---      ---       #160
      00FF2A3AH   LINE      ---      ---       #161
      00FF2A3CH   LINE      ---      ---       #166
      00FF2A5BH   LINE      ---      ---       #167
      00FF2A5BH   LINE      ---      ---       #175
      R13         REGSYM    ---      BYTE      retValue
      ---         BLOCKEND  CODE     ---       LVL=1
L251 LINKER/LOCATER V4.66.93.0                                                        12/18/2023  14:21:09  PAGE 127


      00FF2A5DH   LINE      ---      ---       #176
      00FF2A5DH   LINE      CODE     ---       #176

      00FF3F39H   BLOCK     CODE     ---       LVL=0
      00FF3F39H   LINE      ---      ---       #179
      00FF3F3DH   LINE      ---      ---       #180
      REG=7       REGSYM    ---      ---       backoffDuration
      00FF3F3DH   BLOCK     CODE     NEAR LAB  LVL=1
      00FF3F3DH   LINE      ---      ---       #183
      00FF3F48H   LINE      ---      ---       #184
      00FF3F5DH   LINE      ---      ---       #185
      0000B5ECH   SYMBOL    EDATA    BYTE      randValue
      R7          REGSYM    ---      BYTE      backoffExp
      ---         BLOCKEND  CODE     ---       LVL=1
      00FF3F6FH   LINE      ---      ---       #186
      00FF3F6FH   LINE      CODE     ---       #186

      00FF9C85H   BLOCK     CODE     ---       LVL=0
      00FF9C85H   LINE      ---      ---       #191
      00FF9C87H   LINE      ---      ---       #192
      R10         REGSYM    ---      BYTE      dsn
      00FF9C87H   BLOCK     CODE     NEAR LAB  LVL=1
      00FF9C87H   LINE      ---      ---       #193
      00FF9C89H   LINE      ---      ---       #197
      00FF9C91H   LINE      ---      ---       #198
      00FF9C93H   LINE      ---      ---       #201
      00FF9C9EH   LINE      ---      ---       #203
      00FF9CA4H   LINE      ---      ---       #205
      00FF9CA7H   LINE      ---      ---       #206
      00FF9CA7H   LINE      ---      ---       #208
      00FF9CB9H   LINE      ---      ---       #211
      00FF9CBFH   LINE      ---      ---       #213
      00FF9CC1H   LINE      ---      ---       #215
      00FF9CE6H   LINE      ---      ---       #217
      00FF9CEEH   LINE      ---      ---       #218
      00FF9CF1H   LINE      ---      ---       #219
      00FF9CF8H   LINE      ---      ---       #221
      00FF9CFCH   LINE      ---      ---       #223
      00FF9CFFH   LINE      ---      ---       #224
      00FF9D01H   LINE      ---      ---       #225
      00FF9D01H   LINE      ---      ---       #229
      00FF9D03H   LINE      ---      ---       #231
      00FF9D1AH   LINE      ---      ---       #232
      00FF9D22H   LINE      ---      ---       #233
      00FF9D29H   LINE      ---      ---       #234
      00FF9D29H   LINE      ---      ---       #236
      00FF9D32H   LINE      ---      ---       #238
      00FF9D39H   LINE      ---      ---       #240
      00FF9D3BH   LINE      ---      ---       #241
      00FF9D3DH   LINE      ---      ---       #243
      00FF9D53H   LINE      ---      ---       #244
      00FF9D56H   LINE      ---      ---       #245
      00FF9D5DH   LINE      ---      ---       #246
      00FF9D61H   LINE      ---      ---       #248
      00FF9D64H   LINE      ---      ---       #249
      00FF9D66H   LINE      ---      ---       #250
      00FF9D68H   LINE      ---      ---       #254
      00FF9D6AH   LINE      ---      ---       #255
      00FF9D6CH   LINE      ---      ---       #257
      00FF9D98H   LINE      ---      ---       #259
      00FF9D9BH   LINE      ---      ---       #260
      00FF9DA2H   LINE      ---      ---       #261
      00FF9DA6H   LINE      ---      ---       #263
      00FF9DA9H   LINE      ---      ---       #264
      00FF9DABH   LINE      ---      ---       #265
L251 LINKER/LOCATER V4.66.93.0                                                        12/18/2023  14:21:09  PAGE 128


      00FF9DABH   LINE      ---      ---       #267
      00FF9DABH   LINE      ---      ---       #298
      00FF9DABH   LINE      ---      ---       #299
      R8          REGSYM    ---      BYTE      retValue
      R9          REGSYM    ---      BYTE      i
      0000B5D6H   SYMBOL    EDATA    ---       is_pan_num
      R7          REGSYM    ---      BYTE      match_found
      ---         BLOCKEND  CODE     ---       LVL=1
      00FF9DADH   LINE      ---      ---       #300
      00FF9DADH   LINE      CODE     ---       #300

      00FF3BCDH   BLOCK     CODE     ---       LVL=0
      00FF3BD5H   LINE      ---      ---       #304
      00FF3BD9H   LINE      ---      ---       #305
      00FF3BCDH   SYMBOL    CODE     NEAR LAB  ?L?COM0004
      R15         REGSYM    ---      BYTE      txState
      R7          REGSYM    ---      BYTE      localTxQueue
      R6          REGSYM    ---      BYTE      txQueueIdx
      00FF3BD9H   BLOCK     CODE     NEAR LAB  LVL=1
      00FF3BD9H   LINE      ---      ---       #307
      00FF3BD9H   LINE      ---      ---       #308
      00FF3BDCH   LINE      ---      ---       #310
      00FF3BE0H   LINE      ---      ---       #312
      00FF3BE4H   LINE      ---      ---       #313
      00FF3BE6H   LINE      ---      ---       #316
      00FF3BEEH   LINE      ---      ---       #317
      00FF3BEEH   LINE      ---      ---       #320
      00FF3C07H   LINE      ---      ---       #322
      00FF3C07H   LINE      ---      ---       #323
      00FF3C10H   LINE      ---      ---       #324
      00FF3C12H   LINE      ---      ---       #325
      00FF3C12H   LINE      ---      ---       #326
      00FF3C1BH   LINE      ---      ---       #327
      00FF3C1DH   LINE      ---      ---       #328
      00FF3C1DH   LINE      ---      ---       #329
      00FF3C26H   LINE      ---      ---       #330
      00FF3C28H   LINE      ---      ---       #331
      00FF3C28H   LINE      ---      ---       #332
      00FF3C31H   LINE      ---      ---       #333
      00FF3C33H   LINE      ---      ---       #334
      00FF3C33H   LINE      ---      ---       #335
      00FF3C3FH   LINE      ---      ---       #336
      00FF3C3FH   LINE      ---      ---       #338
      00FF3C3FH   LINE      ---      ---       #340
      00FF3C48H   LINE      ---      ---       #344
      00FF3C4BH   LINE      ---      ---       #347
      R14         REGSYM    ---      BYTE      retValue
      ---         BLOCKEND  CODE     ---       LVL=1
      00FF3C4DH   LINE      ---      ---       #348
      00FF3C4DH   LINE      CODE     ---       #348

      00FF3A55H   BLOCK     CODE     ---       LVL=0
      00FF3A55H   LINE      ---      ---       #354
      00FF3A59H   LINE      ---      ---       #357
      00FF3A5DH   LINE      ---      ---       #360
      00FF3A62H   LINE      ---      ---       #369
      00FF3A64H   LINE      ---      ---       #373
      00FF3A6BH   LINE      ---      ---       #374
      00FF3A6BH   LINE      ---      ---       #376
      R5          REGSYM    ---      BYTE      ackRequest
      WR6         REGSYM    ---      WORD      interFrameSpace
      DR28        REGSYM    ---      DWORD     ackWaitDuration
      ---         BLOCKEND  ---      ---       LVL=0

      00FF9DAEH   BLOCK     CODE     ---       LVL=0
L251 LINKER/LOCATER V4.66.93.0                                                        12/18/2023  14:21:09  PAGE 129


      00FF9DAEH   LINE      ---      ---       #380
      00FF9DB2H   LINE      ---      ---       #381
      R10         REGSYM    ---      BYTE      qId
      00FF9DB2H   BLOCK     CODE     NEAR LAB  LVL=1
      00FF9DB2H   LINE      ---      ---       #383
      00FF9DB5H   LINE      ---      ---       #385
      00FF9DBBH   LINE      ---      ---       #386
      00FF9DC7H   LINE      ---      ---       #388
      00FF9DD8H   LINE      ---      ---       #390
      00FF9DE5H   LINE      ---      ---       #391
      00FF9DEFH   LINE      ---      ---       #393
      00FF9DFCH   LINE      ---      ---       #394
      00FF9DFFH   LINE      ---      ---       #395
      00FF9DFFH   LINE      ---      ---       #397
      00FF9E03H   LINE      ---      ---       #398
      00FF9E06H   LINE      ---      ---       #399
      00FF9E0CH   LINE      ---      ---       #400
      00FF9E0FH   LINE      ---      ---       #401
      00FF9E0FH   LINE      ---      ---       #403
      00FF9E13H   LINE      ---      ---       #404
      00FF9E18H   LINE      ---      ---       #405
      00FF9E1AH   LINE      ---      ---       #406
      00FF9E1CH   LINE      ---      ---       #407
      00FF9E1EH   LINE      ---      ---       #408
      00FF9E1EH   LINE      ---      ---       #409
      00FF9E24H   LINE      ---      ---       #410
      00FF9E29H   LINE      ---      ---       #411
      00FF9E2CH   LINE      ---      ---       #412
      00FF9E2EH   LINE      ---      ---       #413
      00FF9E31H   LINE      ---      ---       #414
      00FF9E31H   LINE      ---      ---       #415
      00FF9E31H   LINE      ---      ---       #418
      00FF9E36H   LINE      ---      ---       #419
      00FF9E39H   LINE      ---      ---       #420
      00FF9E4EH   LINE      ---      ---       #422
      00FF9E4EH   LINE      ---      ---       #423
      00FF9E4EH   LINE      ---      ---       #424
      00FF9E4EH   LINE      ---      ---       #425
      00FF9E50H   LINE      ---      ---       #426
      00FF9E52H   LINE      ---      ---       #427
      00FF9E52H   LINE      ---      ---       #428
      00FF9E54H   LINE      ---      ---       #429
      00FF9E56H   LINE      ---      ---       #430
      00FF9E56H   LINE      ---      ---       #431
      00FF9E59H   LINE      ---      ---       #432
      00FF9E59H   LINE      ---      ---       #433
      00FF9E59H   LINE      ---      ---       #434
      00FF9E59H   LINE      ---      ---       #435
      00FF9E59H   LINE      ---      ---       #436
      00FF9E59H   LINE      ---      ---       #439
      0000B2EAH   SYMBOL    EDATA    ---       mhr
      R15         REGSYM    ---      BYTE      offset
      R6          REGSYM    ---      BYTE      dest_mode
      R7          REGSYM    ---      BYTE      src_mode
      ---         BLOCKEND  CODE     ---       LVL=1
      00FF9E67H   LINE      ---      ---       #440
      00FF9E67H   LINE      CODE     ---       #440

      00FF3ED8H   BLOCK     CODE     ---       LVL=0
      00FF3ED8H   LINE      ---      ---       #444
      00FF3EE4H   LINE      ---      ---       #445
      0000B599H   SYMBOL    EDATA    INT       aesLv
      0000B59BH   SYMBOL    EDATA    WORD      aDataLen
      WR12        REGSYM    ---      WORD      mDataLen
      00FF3EE4H   BLOCK     CODE     NEAR LAB  LVL=1
L251 LINKER/LOCATER V4.66.93.0                                                        12/18/2023  14:21:09  PAGE 130


      00FF3EE4H   LINE      ---      ---       #449
      00FF3EEBH   LINE      ---      ---       #450
      00FF3EF5H   LINE      ---      ---       #451
      00FF3EF7H   LINE      ---      ---       #454
      00FF3EFFH   LINE      ---      ---       #455
      00FF3F06H   LINE      ---      ---       #459
      00FF3F31H   LINE      ---      ---       #460
      00FF3F35H   LINE      ---      ---       #461
      00FF3F35H   LINE      ---      ---       #463
      R15         REGSYM    ---      BYTE      retValue
      ---         BLOCKEND  CODE     ---       LVL=1
      00FF3F36H   LINE      ---      ---       #464
      00FF3F36H   LINE      CODE     ---       #464

      00FF3A44H   BLOCK     CODE     ---       LVL=0
      00FF3A44H   LINE      ---      ---       #467
      00FF3A44H   LINE      ---      ---       #469
      00FF3A47H   LINE      ---      ---       #486
      ---         BLOCKEND  ---      ---       LVL=0

      00FF3ABCH   BLOCK     CODE     ---       LVL=0
      00FF3ABCH   LINE      ---      ---       #490
      00FF3ABCH   LINE      ---      ---       #491
      00FF3ABCH   BLOCK     CODE     NEAR LAB  LVL=1
      00FF3ABCH   LINE      ---      ---       #495
      00FF3ABCH   LINE      ---      ---       #496
      00FF3AC6H   LINE      ---      ---       #498
      R10         REGSYM    ---      BYTE      rfStateTmp
      ---         BLOCKEND  CODE     ---       LVL=1
      00FF3ACBH   LINE      ---      ---       #500
      00FF3ACBH   LINE      CODE     ---       #500

      00FF3A71H   BLOCK     CODE     ---       LVL=0
      00FF3A71H   LINE      ---      ---       #503
      00FF3A71H   LINE      ---      ---       #504
      00FF3A71H   BLOCK     CODE     NEAR LAB  LVL=1
      00FF3A71H   LINE      ---      ---       #506
      00FF3A77H   LINE      ---      ---       #508
      00FF3A7AH   LINE      ---      ---       #510
      00FF3A80H   LINE      ---      ---       #513
      00FF3A86H   LINE      ---      ---       #515
      00FF3A8FH   LINE      ---      ---       #516
      00FF3AA7H   LINE      ---      ---       #519
      00FF3AB3H   LINE      ---      ---       #521
      00FF3ABAH   LINE      ---      ---       #523
      DR0         REGSYM    ---      DWORD     ccaTime
      0000B59DH   SYMBOL    EDATA    DWORD     backoffDuration
      ---         BLOCKEND  CODE     ---       LVL=1
      ---         BLOCKEND  CODE     ---       LVL=0

      00FF3856H   BLOCK     CODE     ---       LVL=0
      00FF3856H   LINE      ---      ---       #532
      00FF385AH   LINE      ---      ---       #533
      00FF385AH   BLOCK     CODE     NEAR LAB  LVL=1
      00FF385AH   LINE      ---      ---       #537
      00FF385CH   LINE      ---      ---       #538
      00FF385EH   LINE      ---      ---       #539
      00FF3860H   LINE      ---      ---       #541
      00FF3867H   LINE      ---      ---       #542
      00FF3873H   LINE      ---      ---       #543
      00FF387BH   LINE      ---      ---       #544
      00FF3882H   LINE      ---      ---       #545
      00FF388CH   LINE      ---      ---       #550
      00FF3892H   LINE      ---      ---       #551
      00FF3895H   LINE      ---      ---       #556
L251 LINKER/LOCATER V4.66.93.0                                                        12/18/2023  14:21:09  PAGE 131


      00FF38A5H   LINE      ---      ---       #559
      00FF38A8H   LINE      ---      ---       #560
      00FF38A8H   LINE      ---      ---       #564
      00FF38B9H   LINE      ---      ---       #566
      00FF38B9H   LINE      ---      ---       #567
      00FF38BBH   LINE      ---      ---       #568
      00FF38BDH   LINE      ---      ---       #569
      00FF38BDH   LINE      ---      ---       #570
      00FF38BFH   LINE      ---      ---       #571
      00FF38C1H   LINE      ---      ---       #572
      00FF38C1H   LINE      ---      ---       #573
      00FF38C5H   LINE      ---      ---       #574
      00FF38C7H   LINE      ---      ---       #575
      00FF38C7H   LINE      ---      ---       #576
      00FF38CBH   LINE      ---      ---       #577
      00FF38CBH   LINE      ---      ---       #578
      00FF38CBH   LINE      ---      ---       #579
      R5          REGSYM    ---      CHAR      ibRssi
      R7          REGSYM    ---      BYTE      cpmputeRssi
      R4          REGSYM    ---      BYTE      lnaGain
      R7          REGSYM    ---      BYTE      tiaGain
      R6          REGSYM    ---      BYTE      vgaGain
      R13         REGSYM    ---      BYTE      edState
      R14         REGSYM    ---      BYTE      csState
      R15         REGSYM    ---      BYTE      ccaStatus
      ---         BLOCKEND  CODE     ---       LVL=1
      00FF38CDH   LINE      ---      ---       #580
      00FF38CDH   LINE      CODE     ---       #580

      00FF3FDEH   BLOCK     CODE     ---       LVL=0
      00FF3FDEH   LINE      ---      ---       #584
      00FF3FDEH   LINE      ---      ---       #586
      00FF3FE6H   LINE      ---      ---       #587
      00FF3FEBH   LINE      ---      ---       #588
      00FF3FEFH   LINE      ---      ---       #589
      ---         BLOCKEND  ---      ---       LVL=0

      00FF6453H   BLOCK     CODE     ---       LVL=0
      00FF6453H   LINE      ---      ---       #630
      00FF6453H   LINE      ---      ---       #635
      00FF6459H   LINE      ---      ---       #637
      00FF645FH   LINE      ---      ---       #638
      00FF6465H   LINE      ---      ---       #639
      00FF6469H   LINE      ---      ---       #640
      ---         BLOCKEND  ---      ---       LVL=0

      00FF2615H   BLOCK     CODE     ---       LVL=0
      00FF2615H   LINE      ---      ---       #642
      00FF2615H   LINE      ---      ---       #643
      00FF2615H   BLOCK     CODE     NEAR LAB  LVL=1
      00FF2615H   LINE      ---      ---       #646
      00FF261DH   LINE      ---      ---       #647
      00FF2623H   LINE      ---      ---       #651
      00FF2623H   LINE      ---      ---       #653
      00FF2623H   LINE      ---      ---       #655
      00FF2625H   LINE      ---      ---       #656
      00FF262BH   LINE      ---      ---       #657
      00FF263CH   LINE      ---      ---       #658
      00FF2642H   LINE      ---      ---       #662
      00FF265DH   LINE      ---      ---       #665
      00FF265FH   LINE      ---      ---       #666
      00FF2662H   LINE      ---      ---       #667
      00FF2664H   LINE      ---      ---       #668
      00FF2667H   LINE      ---      ---       #669
      00FF2668H   LINE      ---      ---       #670
L251 LINKER/LOCATER V4.66.93.0                                                        12/18/2023  14:21:09  PAGE 132


      00FF2668H   LINE      ---      ---       #676
      00FF266BH   LINE      ---      ---       #681
      00FF266EH   LINE      ---      ---       #683
      00FF266EH   LINE      ---      ---       #689
      00FF2673H   LINE      ---      ---       #693
      00FF2676H   LINE      ---      ---       #694
      00FF2676H   LINE      ---      ---       #696
      00FF2681H   LINE      ---      ---       #698
      00FF2684H   LINE      ---      ---       #699
      00FF2689H   LINE      ---      ---       #700
      00FF268BH   LINE      ---      ---       #701
      00FF268CH   LINE      ---      ---       #702
      00FF268CH   LINE      ---      ---       #705
      00FF2697H   LINE      ---      ---       #707
      00FF2699H   LINE      ---      ---       #709
      00FF269CH   LINE      ---      ---       #710
      00FF269FH   LINE      ---      ---       #712
      00FF26ADH   LINE      ---      ---       #716
      00FF26B3H   LINE      ---      ---       #719
      00FF26BBH   LINE      ---      ---       #722
      00FF26BEH   LINE      ---      ---       #723
      R10         REGSYM    ---      BYTE      raaState
      ---         BLOCKEND  CODE     ---       LVL=1
      ---         BLOCKEND  CODE     ---       LVL=0

      00FF3ACCH   BLOCK     CODE     ---       LVL=0
      00FF3ACCH   LINE      ---      ---       #728
      00FF3ACCH   LINE      ---      ---       #731
      00FF3ACFH   LINE      ---      ---       #742
      ---         BLOCKEND  ---      ---       LVL=0

      00FF9B6EH   BLOCK     CODE     ---       LVL=0
      00FF9B6EH   LINE      ---      ---       #754
      00FF9B6EH   LINE      ---      ---       #756
      ---         BLOCKEND  ---      ---       LVL=0

      00FF3C9AH   BLOCK     CODE     ---       LVL=0
      00FF3C9AH   LINE      ---      ---       #758
      00FF3C9AH   LINE      ---      ---       #765
      00FF3C9DH   LINE      ---      ---       #766
      00FF3CA0H   LINE      ---      ---       #784
      00FF3CA0H   BLOCK     CODE     NEAR LAB  LVL=1
      00FF3CA0H   LINE      ---      ---       #786
      00FF3CA8H   LINE      ---      ---       #787
      00FF3CB0H   LINE      ---      ---       #788
      00FF3CB8H   LINE      ---      ---       #789
      00FF3CC0H   LINE      ---      ---       #790
      0000B53DH   SYMBOL    EDATA    ---       cb
      ---         BLOCKEND  CODE     ---       LVL=1
      00FF3CC6H   LINE      ---      ---       #791
      00FF3CC6H   LINE      ---      ---       #802
      00FF3CCCH   LINE      ---      ---       #805
      00FF3CD0H   LINE      ---      ---       #812
      00FF3CD3H   LINE      ---      ---       #815
      00FF3CD5H   LINE      ---      ---       #818
      00FF3CD9H   LINE      ---      ---       #819
      00FF3CDBH   LINE      ---      ---       #823
      00FF3CE2H   LINE      ---      ---       #826
      00FF3CE4H   LINE      ---      ---       #829
      00FF3CE9H   LINE      ---      ---       #830
      00FF3CF6H   LINE      ---      ---       #834
      00FF3CFAH   LINE      ---      ---       #836
      00FF3CFCH   LINE      ---      ---       #839
      00FF3CFFH   LINE      ---      ---       #842
      00FF3D05H   LINE      ---      ---       #847
L251 LINKER/LOCATER V4.66.93.0                                                        12/18/2023  14:21:09  PAGE 133


      00FF3D08H   LINE      ---      ---       #848
      00FF3D08H   LINE      ---      ---       #850
      00FF3D10H   LINE      ---      ---       #851
      00FF3D10H   LINE      ---      ---       #854
      00FF3D10H   LINE      CODE     ---       #854

      00FF3972H   BLOCK     CODE     ---       LVL=0
      00FF3972H   LINE      ---      ---       #861
      00FF3976H   LINE      ---      ---       #862
      00FF3976H   BLOCK     CODE     NEAR LAB  LVL=1
      00FF3976H   LINE      ---      ---       #863
      00FF3976H   LINE      ---      ---       #864
      00FF3976H   LINE      ---      ---       #867
      00FF397BH   LINE      ---      ---       #868
      00FF3983H   LINE      ---      ---       #870
      00FF3985H   LINE      ---      ---       #874
      00FF3994H   LINE      ---      ---       #876
      00FF3996H   LINE      ---      ---       #878
      00FF399CH   LINE      ---      ---       #880
      00FF399FH   LINE      ---      ---       #882
      00FF39A2H   LINE      ---      ---       #883
      00FF39A4H   LINE      ---      ---       #884
      00FF39A4H   LINE      ---      ---       #887
      00FF39A8H   LINE      ---      ---       #888
      00FF39ADH   LINE      ---      ---       #890
      00FF39B0H   LINE      ---      ---       #891
      00FF39BAH   LINE      ---      ---       #893
      00FF39BDH   LINE      ---      ---       #897
      00FF39C1H   LINE      ---      ---       #902
      00FF39C4H   LINE      ---      ---       #903
      00FF39C4H   LINE      ---      ---       #906
      00FF39C7H   LINE      ---      ---       #907
      00FF39CBH   LINE      ---      ---       #908
      00FF39CDH   LINE      ---      ---       #909
      00FF39CDH   LINE      ---      ---       #911
      00FF39D0H   LINE      ---      ---       #914
      00FF39D2H   LINE      ---      ---       #917
      00FF39DAH   LINE      ---      ---       #919
      00FF39E3H   LINE      ---      ---       #920
      00FF39E5H   LINE      ---      ---       #921
      00FF39E9H   LINE      ---      ---       #923
      00FF39ECH   LINE      ---      ---       #926
      00FF39EFH   LINE      ---      ---       #927
      00FF39F3H   LINE      ---      ---       #934
      00FF39F6H   LINE      ---      ---       #937
      00FF39F8H   LINE      ---      ---       #939
      00FF3A00H   LINE      ---      ---       #940
      00FF3A05H   LINE      ---      ---       #943
      00FF3A0DH   LINE      ---      ---       #944
      00FF3A0FH   LINE      ---      ---       #946
      00FF3A15H   LINE      ---      ---       #948
      00FF3A18H   LINE      ---      ---       #949
      00FF3A1BH   LINE      ---      ---       #952
      00FF3A21H   LINE      ---      ---       #953
      00FF3A2AH   LINE      ---      ---       #966
      00FF3A30H   LINE      ---      ---       #967
      00FF3A35H   LINE      ---      ---       #970
      00FF3A3DH   LINE      ---      ---       #971
      00FF3A3FH   LINE      ---      ---       #972
      WR14        REGSYM    ---      WORD      macFunEventQueue
      R13         REGSYM    ---      BYTE      ccaStatus
      0000B5EDH   SYMBOL    EDATA    BYTE      checkCCADrop
      ---         BLOCKEND  CODE     ---       LVL=1
      ---         BLOCKEND  CODE     ---       LVL=0

L251 LINKER/LOCATER V4.66.93.0                                                        12/18/2023  14:21:09  PAGE 134


      00FF9B6FH   BLOCK     CODE     ---       LVL=0
      00FF9B6FH   LINE      ---      ---       #976
      00FF9B6FH   LINE      ---      ---       #977
      00FF9B6FH   BLOCK     CODE     NEAR LAB  LVL=1
      00FF9B6FH   LINE      ---      ---       #989
      00FF9B72H   LINE      ---      ---       #990
      00FF9B78H   LINE      ---      ---       #992
      00FF9B7BH   LINE      ---      ---       #993
      00FF9B7EH   LINE      ---      ---       #995
      00FF9B96H   LINE      ---      ---       #1002
      00FF9B9EH   LINE      ---      ---       #1004
      00FF9BA1H   LINE      ---      ---       #1007
      00FF9BA1H   LINE      ---      ---       #1010
      00FF9BA7H   LINE      ---      ---       #1012
      00FF9BABH   LINE      ---      ---       #1014
      00FF9BADH   LINE      ---      ---       #1018
      00FF9BB0H   LINE      ---      ---       #1025
      00FF9BB7H   LINE      ---      ---       #1026
      00FF9BBAH   LINE      ---      ---       #1027
      00FF9BBAH   LINE      ---      ---       #1030
      00FF9BD5H   LINE      ---      ---       #1034
      00FF9BD8H   LINE      ---      ---       #1037
      00FF9BE0H   LINE      ---      ---       #1038
      00FF9BE0H   LINE      ---      ---       #1040
      WR6         REGSYM    ---      WORD      macFunEventQueue
      ---         BLOCKEND  CODE     ---       LVL=1
      ---         BLOCKEND  CODE     ---       LVL=0

      00FF9BE1H   BLOCK     CODE     ---       LVL=0
      00FF9BE1H   LINE      ---      ---       #1043
      00FF9BE1H   LINE      ---      ---       #1044
      00FF9BE1H   BLOCK     CODE     NEAR LAB  LVL=1
      00FF9BE1H   LINE      ---      ---       #1045
      00FF9BE1H   LINE      ---      ---       #1047
      00FF9BE4H   LINE      ---      ---       #1048
      00FF9BEAH   LINE      ---      ---       #1050
      00FF9BEDH   LINE      ---      ---       #1052
      00FF9BF5H   LINE      ---      ---       #1053
      00FF9BF6H   LINE      ---      ---       #1054
      00FF9BFCH   LINE      ---      ---       #1056
      00FF9BFFH   LINE      ---      ---       #1059
      00FF9C09H   LINE      ---      ---       #1061
      00FF9C0CH   LINE      ---      ---       #1063
      00FF9C10H   LINE      ---      ---       #1064
      00FF9C12H   LINE      ---      ---       #1067
      00FF9C15H   LINE      ---      ---       #1071
      00FF9C1CH   LINE      ---      ---       #1075
      00FF9C1FH   LINE      ---      ---       #1078
      00FF9C22H   LINE      ---      ---       #1080
      00FF9C2AH   LINE      ---      ---       #1081
      00FF9C2AH   LINE      ---      ---       #1082
      00FF9C33H   LINE      ---      ---       #1083
      WR6         REGSYM    ---      WORD      macFunEventQueue
      ---         BLOCKEND  CODE     ---       LVL=1
      ---         BLOCKEND  CODE     ---       LVL=0

      00FF2901H   BLOCK     CODE     ---       LVL=0
      00FF2901H   LINE      ---      ---       #1086
      00FF2901H   LINE      ---      ---       #1087
      00FF2901H   BLOCK     CODE     NEAR LAB  LVL=1
      00FF2901H   LINE      ---      ---       #1088
      00FF2901H   LINE      ---      ---       #1090
      00FF2904H   LINE      ---      ---       #1091
      00FF2914H   LINE      ---      ---       #1092
      WR6         REGSYM    ---      WORD      macFunEventQueue
L251 LINKER/LOCATER V4.66.93.0                                                        12/18/2023  14:21:09  PAGE 135


      00FF2914H   BLOCK     CODE     NEAR LAB  LVL=2
      00FF2914H   LINE      ---      ---       #1095
      00FF2917H   LINE      ---      ---       #1100
      00FF2920H   LINE      ---      ---       #1101
      00FF2924H   LINE      ---      ---       #1103
      00FF292EH   LINE      ---      ---       #1104
      R11         REGSYM    ---      BYTE      macRxInfo
      00FF292EH   BLOCK     CODE     NEAR LAB  LVL=3
      00FF292EH   LINE      ---      ---       #1107
      00FF2931H   LINE      ---      ---       #1111
      00FF2936H   LINE      ---      ---       #1112
      00FF293BH   LINE      ---      ---       #1117
      00FF2948H   LINE      ---      ---       #1118
      00FF294DH   LINE      ---      ---       #1123
      00FF2950H   LINE      ---      ---       #1126
      00FF2961H   LINE      ---      ---       #1127
      00FF2967H   LINE      ---      ---       #1129
      00FF2972H   LINE      ---      ---       #1139
      00FF2976H   LINE      ---      ---       #1140
      00FF2978H   LINE      ---      ---       #1141
      00FF2980H   LINE      ---      ---       #1142
      00FF2980H   LINE      ---      ---       #1143
      00FF2982H   LINE      ---      ---       #1147
      00FF2987H   LINE      ---      ---       #1150
      00FF298FH   LINE      ---      ---       #1151
      00FF2992H   LINE      ---      ---       #1152
      00FF2992H   LINE      ---      ---       #1154
      00FF299EH   LINE      ---      ---       #1155
      R11         REGSYM    ---      BYTE      trx_state
      ---         BLOCKEND  CODE     ---       LVL=3
      00FF299EH   LINE      ---      ---       #1156
      00FF299EH   LINE      ---      ---       #1159
      00FF29A3H   LINE      ---      ---       #1162
      00FF29A6H   LINE      ---      ---       #1163
      00FF29A6H   LINE      ---      ---       #1164
      00FF29A8H   LINE      ---      ---       #1168
      00FF29ADH   LINE      ---      ---       #1170
      00FF29B0H   LINE      ---      ---       #1171
      00FF29B0H   LINE      ---      ---       #1172
      00FF29B3H   LINE      ---      ---       #1173
      00FF29BFH   LINE      ---      ---       #1177
      00FF29C9H   LINE      ---      ---       #1180
      00FF29CDH   LINE      ---      ---       #1181
      00FF29CFH   LINE      ---      ---       #1184
      00FF29D2H   LINE      ---      ---       #1188
      00FF29D9H   LINE      ---      ---       #1192
      00FF29DCH   LINE      ---      ---       #1194
      00FF29E4H   LINE      ---      ---       #1195
      00FF29E4H   LINE      ---      ---       #1196
      00FF29E4H   LINE      CODE     ---       #1196
      ---         BLOCKEND  CODE     ---       LVL=1
      00FF29EDH   LINE      ---      ---       #1197
      00FF29EDH   LINE      CODE     ---       #1197

      00FF3AD1H   BLOCK     CODE     ---       LVL=0
      00FF3AD1H   LINE      ---      ---       #1200
      00FF3AD1H   LINE      ---      ---       #1201
      00FF3AD1H   BLOCK     CODE     NEAR LAB  LVL=1
      00FF3AD1H   LINE      ---      ---       #1202
      00FF3AD1H   LINE      ---      ---       #1204
      00FF3AD4H   LINE      ---      ---       #1205
      00FF3AD7H   LINE      ---      ---       #1206
      00FF3ADBH   LINE      ---      ---       #1207
      00FF3ADEH   LINE      ---      ---       #1208
      00FF3B65H   LINE      ---      ---       #1210
L251 LINKER/LOCATER V4.66.93.0                                                        12/18/2023  14:21:09  PAGE 136


      00FF3B65H   LINE      ---      ---       #1211
      00FF3B65H   LINE      ---      ---       #1212
      00FF3B65H   LINE      ---      ---       #1213
      00FF3B65H   LINE      ---      ---       #1214
      00FF3B65H   LINE      ---      ---       #1215
      00FF3B69H   LINE      ---      ---       #1216
      00FF3B6BH   LINE      ---      ---       #1217
      00FF3B6BH   LINE      ---      ---       #1218
      00FF3B6EH   LINE      ---      ---       #1219
      00FF3B70H   LINE      ---      ---       #1220
      00FF3B70H   LINE      ---      ---       #1221
      00FF3B70H   LINE      ---      ---       #1233
      00FF3B73H   LINE      ---      ---       #1235
      00FF3B7EH   LINE      ---      ---       #1236
      00FF3B80H   LINE      ---      ---       #1238
      00FF3B84H   LINE      ---      ---       #1239
      00FF3B86H   LINE      ---      ---       #1243
      00FF3B8DH   LINE      ---      ---       #1245
      00FF3B8FH   LINE      ---      ---       #1249
      00FF3B8FH   LINE      ---      ---       #1251
      00FF3B93H   LINE      ---      ---       #1252
      00FF3B93H   LINE      ---      ---       #1255
      00FF3B95H   LINE      ---      ---       #1257
      00FF3B95H   LINE      ---      ---       #1258
      00FF3B95H   LINE      ---      ---       #1259
      00FF3B95H   LINE      ---      ---       #1260
      00FF3B98H   LINE      ---      ---       #1262
      00FF3BA3H   LINE      ---      ---       #1263
      00FF3BA5H   LINE      ---      ---       #1265
      00FF3BA9H   LINE      ---      ---       #1266
      00FF3BABH   LINE      ---      ---       #1270
      00FF3BB2H   LINE      ---      ---       #1272
      00FF3BB4H   LINE      ---      ---       #1276
      00FF3BB4H   LINE      ---      ---       #1278
      00FF3BBCH   LINE      ---      ---       #1279
      00FF3BBCH   LINE      ---      ---       #1281
      00FF3BBEH   LINE      ---      ---       #1282
      00FF3BBEH   LINE      ---      ---       #1283
      00FF3BC1H   LINE      ---      ---       #1284
      00FF3BC1H   LINE      ---      ---       #1285
      00FF3BC1H   LINE      ---      ---       #1286
      WR6         REGSYM    ---      WORD      macFunEventQueue
      ---         BLOCKEND  CODE     ---       LVL=1
      ---         BLOCKEND  CODE     ---       LVL=0

      00FF3C66H   BLOCK     CODE     ---       LVL=0
      00FF3C66H   LINE      ---      ---       #1289
      00FF3C66H   LINE      ---      ---       #1290
      00FF3C66H   BLOCK     CODE     NEAR LAB  LVL=1
      00FF3C66H   LINE      ---      ---       #1293
      00FF3C69H   LINE      ---      ---       #1294
      00FF3C6CH   LINE      ---      ---       #1295
      00FF3C72H   LINE      ---      ---       #1297
      00FF3C75H   LINE      ---      ---       #1299
      00FF3C80H   LINE      ---      ---       #1300
      00FF3C82H   LINE      ---      ---       #1302
      00FF3C86H   LINE      ---      ---       #1303
      00FF3C88H   LINE      ---      ---       #1307
      00FF3C8FH   LINE      ---      ---       #1309
      00FF3C91H   LINE      ---      ---       #1314
      00FF3C91H   LINE      ---      ---       #1316
      00FF3C99H   LINE      ---      ---       #1317
      00FF3C99H   LINE      ---      ---       #1319
      WR6         REGSYM    ---      WORD      macFunEventQueue
      ---         BLOCKEND  CODE     ---       LVL=1
L251 LINKER/LOCATER V4.66.93.0                                                        12/18/2023  14:21:09  PAGE 137


      ---         BLOCKEND  CODE     ---       LVL=0

      00FF9C34H   BLOCK     CODE     ---       LVL=0
      00FF9C34H   LINE      ---      ---       #1322
      00FF9C34H   LINE      ---      ---       #1324
      00FF9C37H   LINE      ---      ---       #1355
      00FF9C3CH   LINE      ---      ---       #1359
      00FF9C42H   LINE      ---      ---       #1360
      00FF9C48H   LINE      ---      ---       #1363
      00FF9C4DH   LINE      ---      ---       #1364
      00FF9C4FH   LINE      ---      ---       #1368
      00FF9C55H   LINE      ---      ---       #1369
      00FF9C5DH   LINE      ---      ---       #1370
      00FF9C5DH   LINE      ---      ---       #1373
      ---         BLOCKEND  ---      ---       LVL=0

      00FF9C64H   BLOCK     CODE     ---       LVL=0
      00FF9C64H   LINE      ---      ---       #1382
      00FF9C64H   LINE      ---      ---       #1384
      ---         BLOCKEND  ---      ---       LVL=0

      00FF8317H   BLOCK     CODE     ---       LVL=0
      00FF8317H   LINE      ---      ---       #1386
      00FF8317H   LINE      ---      ---       #1390
      00FF831EH   LINE      ---      ---       #1392
      00FF831EH   LINE      ---      ---       #1393
      00FF831EH   LINE      ---      ---       #1398
      00FF832AH   LINE      ---      ---       #1400
      ---         BLOCKEND  ---      ---       LVL=0

      00FF9C6CH   BLOCK     CODE     ---       LVL=0
      00FF9C6CH   LINE      ---      ---       #1402
      00FF9C6CH   LINE      ---      ---       #1404
      00FF9C7DH   LINE      ---      ---       #1405
      00FF9C84H   LINE      ---      ---       #1406
      ---         BLOCKEND  ---      ---       LVL=0

      00FF9C65H   BLOCK     CODE     ---       LVL=0
      00FF9C65H   LINE      ---      ---       #1410
      00FF9C65H   LINE      ---      ---       #1412
      ---         BLOCKEND  ---      ---       LVL=0

      ---         MODULE    ---      ---       mac_cad

      ---         MODULE    ---      ---       mac_scheduler

      ---         MODULE    ---      ---       mac_RfeRx
      00FF9E6AH   PUBLIC    CODE     ---       MAC_RfeRxDisable
      00FF9EB3H   PUBLIC    CODE     ---       MAC_RfeRxRptGet
      00FF8ABFH   PUBLIC    CODE     ---       MAC_RfeRxParInit
      00FF6C9CH   PUBLIC    CODE     ---       MAC_RfeRxSchedule
      00FF6FA2H   PUBLIC    CODE     ---       MAC_RfeRxAonTaskDisable
      00FF9EC6H   PUBLIC    CODE     ---       MAC_RfeSecLbHwSet
      00FF6BD3H   PUBLIC    CODE     ---       MAC_RfeRxDataConfirm
      0000B36EH   PUBLIC    EDATA    INT       gMacRfeRxState
      0000B370H   PUBLIC    EDATA    ---       gMacRfeRxCtrl
      0000B37FH   PUBLIC    EDATA    ---       gMacRfeRpt
      000000A8H.7 SFRSYM    DATA     BIT       EA
      00000080H   SFRSYM    DATA     BYTE      P0

      00FF9E6AH   BLOCK     CODE     ---       LVL=0
      00FF9E6AH   LINE      ---      ---       #55
      00FF9E6EH   LINE      ---      ---       #57
      00FF9E70H   LINE      ---      ---       #61
      00FF9E73H   LINE      ---      ---       #62
L251 LINKER/LOCATER V4.66.93.0                                                        12/18/2023  14:21:09  PAGE 138


      00FF9E8EH   LINE      ---      ---       #63
      00FF9E91H   LINE      ---      ---       #64
      00FF9E98H   LINE      ---      ---       #65
      00FF9E9EH   LINE      ---      ---       #66
      00FF9EA5H   LINE      ---      ---       #67
      00FF9EA9H   LINE      ---      ---       #68
      00FF9EB0H   LINE      ---      ---       #69
      R15         REGSYM    ---      BYTE      bTxSecClr
      ---         BLOCKEND  ---      ---       LVL=0

      00FF6FA2H   BLOCK     CODE     ---       LVL=0
      00FF6FA2H   LINE      ---      ---       #71
      00FF6FA2H   LINE      ---      ---       #73
      00FF6FA4H   LINE      ---      ---       #74
      00FF6FAAH   LINE      ---      ---       #75
      00FF6FAEH   LINE      ---      ---       #76
      00FF6FB0H   LINE      ---      ---       #77
      ---         BLOCKEND  ---      ---       LVL=0

      00FF9EB3H   BLOCK     CODE     ---       LVL=0
      00FF9EB3H   LINE      ---      ---       #79
      00FF9EB3H   LINE      ---      ---       #81
      00FF9EBAH   LINE      ---      ---       #82
      00FF9EC5H   LINE      ---      ---       #83
      REG=3       REGSYM    ---      ---       pPassCnt
      REG=2       REGSYM    ---      ---       pFailCnt
      ---         BLOCKEND  ---      ---       LVL=0

      00FF9EC6H   BLOCK     CODE     ---       LVL=0
      00FF9EC6H   LINE      ---      ---       #85
      00FF9EC8H   LINE      ---      ---       #86
      WR8         REGSYM    ---      WORD      pktLen
      00FF9EC8H   BLOCK     CODE     NEAR LAB  LVL=1
      00FF9EC8H   LINE      ---      ---       #90
      00FF9ECCH   LINE      ---      ---       #91
      00FF9ED0H   LINE      ---      ---       #92
      00FF9EF1H   LINE      ---      ---       #93
      00FF9EF7H   LINE      ---      ---       #94
      00FF9EF9H   LINE      ---      ---       #95
      00FF9EFFH   LINE      ---      ---       #96
      00FF9F05H   LINE      ---      ---       #98
      00FF9F09H   LINE      ---      ---       #99
      00FF9F0BH   LINE      ---      ---       #101
      00FF9F0FH   LINE      ---      ---       #102
      00FF9F11H   LINE      ---      ---       #103
      00FF9F17H   LINE      ---      ---       #105
      00FF9F1BH   LINE      ---      ---       #106
      00FF9F1DH   LINE      ---      ---       #108
      00FF9F21H   LINE      ---      ---       #109
      00FF9F21H   LINE      ---      ---       #111
      WR4         REGSYM    ---      WORD      aDataLen
      WR2         REGSYM    ---      WORD      mDataLen
      WR6         REGSYM    ---      WORD      payloadLen
      R7          REGSYM    ---      BYTE      micLen
      ---         BLOCKEND  CODE     ---       LVL=1
      ---         BLOCKEND  CODE     ---       LVL=0

      00FF6BD3H   BLOCK     CODE     ---       LVL=0
      00FF6BD3H   LINE      ---      ---       #114
      00FF6BD5H   LINE      ---      ---       #115
      00FF6BD5H   BLOCK     CODE     NEAR LAB  LVL=1
      00FF6BD5H   LINE      ---      ---       #120
      00FF6BE7H   LINE      ---      ---       #122
      00FF6C0CH   LINE      ---      ---       #123
      00FF6C13H   LINE      ---      ---       #126
L251 LINKER/LOCATER V4.66.93.0                                                        12/18/2023  14:21:09  PAGE 139


      00FF6C19H   LINE      ---      ---       #127
      00FF6C2DH   LINE      ---      ---       #129
      00FF6C3BH   LINE      ---      ---       #131
      00FF6C43H   LINE      ---      ---       #133
      00FF6C47H   LINE      ---      ---       #135
      00FF6C64H   LINE      ---      ---       #136
      00FF6C67H   LINE      ---      ---       #137
      00FF6C6DH   LINE      ---      ---       #138
      00FF6C6FH   LINE      ---      ---       #141
      00FF6C7EH   LINE      ---      ---       #142
      00FF6C82H   LINE      ---      ---       #144
      00FF6C8EH   LINE      ---      ---       #145
      00FF6C91H   LINE      ---      ---       #146
      00FF6C97H   LINE      ---      ---       #147
      00FF6C97H   LINE      ---      ---       #148
      00FF6C97H   LINE      ---      ---       #149
      R7          REGSYM    ---      BYTE      dataTemp
      0000B5EEH   SYMBOL    EDATA    BYTE      phrLenTemp
      WR12        REGSYM    ---      WORD      dataLenTemp
      WR14        REGSYM    ---      WORD      idx
      ---         BLOCKEND  CODE     ---       LVL=1
      00FF6C99H   LINE      ---      ---       #150
      00FF6C99H   LINE      CODE     ---       #150

      00FF8ABFH   BLOCK     CODE     ---       LVL=0
      00FF8ABFH   LINE      ---      ---       #152
      00FF8AC9H   LINE      ---      ---       #154
      00FF8ACEH   LINE      ---      ---       #155
      00FF8AD4H   LINE      ---      ---       #156
      00FF8ADAH   LINE      ---      ---       #157
      00FF8ADEH   LINE      ---      ---       #158
      00FF8AE2H   LINE      ---      ---       #159
      00FF8AE6H   LINE      ---      ---       #160
      00FF8AF0H   LINE      ---      ---       #161
      00FF8AFAH   LINE      ---      ---       #163
      00FF8AFEH   LINE      ---      ---       #164
      00FF8B02H   LINE      ---      ---       #165
      00FF8B06H   LINE      ---      ---       #171
      00FF8B0AH   LINE      ---      ---       #173
      00FF8B12H   LINE      ---      ---       #174
      00FF8B21H   LINE      ---      ---       #175
      00FF8B30H   LINE      ---      ---       #176
      R1          REGSYM    ---      BYTE      pktType
      R2          REGSYM    ---      BYTE      queueType
      R3          REGSYM    ---      BYTE      rxType
      R10         REGSYM    ---      BYTE      ackEnable
      WR8         REGSYM    ---      WORD      ackInterval
      ---         BLOCKEND  ---      ---       LVL=0

      00FF6C9CH   BLOCK     CODE     ---       LVL=0
      00FF6C9CH   LINE      ---      ---       #179
      00FF6C9EH   LINE      ---      ---       #180
      00FF6C9EH   BLOCK     CODE     NEAR LAB  LVL=1
      00FF6C9EH   LINE      ---      ---       #181
      00FF6C9EH   LINE      ---      ---       #185
      00FF6CA9H   LINE      ---      ---       #187
      00FF6CA9H   LINE      ---      ---       #188
      00FF6CA9H   LINE      ---      ---       #191
      00FF6CD9H   LINE      ---      ---       #193
      00FF6CD9H   LINE      ---      ---       #194
      00FF6CDCH   LINE      ---      ---       #196
      WR6         REGSYM    ---      WORD      macFunEventQueue
      R15         REGSYM    ---      BYTE      retValue
      00FF6CDCH   BLOCK     CODE     NEAR LAB  LVL=2
      00FF6CDCH   LINE      ---      ---       #198
L251 LINKER/LOCATER V4.66.93.0                                                        12/18/2023  14:21:09  PAGE 140


      00FF6CE4H   LINE      ---      ---       #199
      00FF6CECH   LINE      ---      ---       #200
      00FF6CF4H   LINE      ---      ---       #201
      00FF6CFCH   LINE      ---      ---       #202
      0000B545H   SYMBOL    EDATA    ---       cb
      ---         BLOCKEND  CODE     ---       LVL=2
      00FF6D03H   LINE      ---      ---       #203
      00FF6D03H   LINE      ---      ---       #206
      00FF6D06H   LINE      ---      ---       #209
      00FF6D1CH   LINE      ---      ---       #211
      00FF6D20H   LINE      ---      ---       #214
      00FF6D20H   LINE      ---      ---       #215
      00FF6D22H   LINE      ---      ---       #218
      00FF6D28H   LINE      ---      ---       #219
      00FF6D2EH   LINE      ---      ---       #221
      00FF6D33H   LINE      ---      ---       #240
      00FF6D39H   LINE      ---      ---       #243
      00FF6D3FH   LINE      ---      ---       #245
      00FF6D41H   LINE      ---      ---       #246
      00FF6D46H   LINE      ---      ---       #247
      00FF6D46H   LINE      ---      ---       #251
      00FF6D4CH   LINE      ---      ---       #252
      00FF6D55H   LINE      ---      ---       #253
      00FF6D5BH   LINE      ---      ---       #255
      00FF6D5DH   LINE      ---      ---       #256
      00FF6D62H   LINE      ---      ---       #257
      00FF6D62H   LINE      ---      ---       #260
      00FF6D66H   LINE      ---      ---       #261
      00FF6D66H   LINE      ---      ---       #286
      00FF6D68H   LINE      ---      ---       #288
      00FF6D68H   LINE      ---      ---       #289
      00FF6D6BH   LINE      ---      ---       #290
      00FF6D71H   LINE      ---      ---       #292
      00FF6D74H   LINE      ---      ---       #293
      00FF6D78H   LINE      ---      ---       #296
      00FF6D78H   LINE      ---      ---       #297
      00FF6D7AH   LINE      ---      ---       #298
      00FF6D80H   LINE      ---      ---       #300
      00FF6D87H   LINE      ---      ---       #301
      00FF6D8AH   LINE      ---      ---       #302
      00FF6D8EH   LINE      ---      ---       #303
      00FF6D90H   LINE      ---      ---       #304
      00FF6D98H   LINE      ---      ---       #306
      00FF6D9BH   LINE      ---      ---       #307
      00FF6D9FH   LINE      ---      ---       #310
      00FF6D9FH   LINE      ---      ---       #311
      00FF6D9FH   LINE      ---      ---       #330
      00FF6DA1H   LINE      ---      ---       #332
      00FF6DA1H   LINE      ---      ---       #333
      00FF6DA4H   LINE      ---      ---       #334
      00FF6DACH   LINE      ---      ---       #336
      00FF6DAFH   LINE      ---      ---       #339
      00FF6DD0H   LINE      ---      ---       #342
      00FF6DE1H   LINE      ---      ---       #343
      00FF6DE4H   LINE      ---      ---       #346
      00FF6DEBH   LINE      ---      ---       #348
      00FF6DFFH   LINE      ---      ---       #352
      00FF6E07H   LINE      ---      ---       #355
      00FF6E0DH   LINE      ---      ---       #357
      00FF6E0FH   LINE      ---      ---       #358
      00FF6E15H   LINE      ---      ---       #359
      00FF6E15H   LINE      ---      ---       #362
      00FF6E20H   LINE      ---      ---       #365
      00FF6E22H   LINE      ---      ---       #366
      00FF6E28H   LINE      ---      ---       #369
L251 LINKER/LOCATER V4.66.93.0                                                        12/18/2023  14:21:09  PAGE 141


      00FF6E2CH   LINE      ---      ---       #372
      00FF6E2CH   LINE      ---      ---       #373
      00FF6E2CH   LINE      ---      ---       #374
      00FF6E2EH   LINE      ---      ---       #378
      00FF6E32H   LINE      ---      ---       #381
      00FF6E32H   LINE      ---      ---       #382
      00FF6E32H   LINE      ---      ---       #383
      00FF6E32H   LINE      ---      ---       #384
      00FF6E34H   LINE      ---      ---       #386
      00FF6E34H   LINE      ---      ---       #387
      00FF6E37H   LINE      ---      ---       #388
      00FF6E3FH   LINE      ---      ---       #390
      00FF6E42H   LINE      ---      ---       #393
      00FF6E49H   LINE      ---      ---       #396
      00FF6E4DH   LINE      ---      ---       #399
      00FF6E4DH   LINE      ---      ---       #400
      00FF6E4DH   LINE      ---      ---       #401
      00FF6E4FH   LINE      ---      ---       #403
      00FF6E4FH   LINE      ---      ---       #406
      00FF6E52H   LINE      ---      ---       #408
      00FF6E61H   LINE      ---      ---       #410
      00FF6E67H   LINE      ---      ---       #411
      00FF6E6CH   LINE      ---      ---       #413
      00FF6E6FH   LINE      ---      ---       #414
      00FF6E79H   LINE      ---      ---       #415
      00FF6E92H   LINE      ---      ---       #416
      00FF6E94H   LINE      ---      ---       #417
      00FF6E98H   LINE      ---      ---       #420
      00FF6E9EH   LINE      ---      ---       #421
      00FF6EA1H   LINE      ---      ---       #423
      00FF6EA5H   LINE      ---      ---       #424
      00FF6EA8H   LINE      ---      ---       #425
      00FF6EB2H   LINE      ---      ---       #426
      00FF6EB4H   LINE      ---      ---       #429
      00FF6EB7H   LINE      ---      ---       #430
      00FF6EC1H   LINE      ---      ---       #431
      00FF6EC1H   LINE      ---      ---       #434
      00FF6EC7H   LINE      ---      ---       #435
      00FF6ECAH   LINE      ---      ---       #437
      00FF6ED1H   LINE      ---      ---       #440
      00FF6ED7H   LINE      ---      ---       #443
      00FF6EE3H   LINE      ---      ---       #445
      00FF6EE5H   LINE      ---      ---       #446
      00FF6EEBH   LINE      ---      ---       #447
      00FF6EEBH   LINE      ---      ---       #450
      00FF6EEEH   LINE      ---      ---       #453
      00FF6EF4H   LINE      ---      ---       #456
      00FF6EF7H   LINE      ---      ---       #457
      00FF6F09H   LINE      ---      ---       #458
      00FF6F0DH   LINE      ---      ---       #461
      00FF6F21H   LINE      ---      ---       #462
      00FF6F29H   LINE      ---      ---       #464
      00FF6F30H   LINE      ---      ---       #467
      00FF6F34H   LINE      ---      ---       #468
      00FF6F36H   LINE      ---      ---       #472
      00FF6F3AH   LINE      ---      ---       #473
      00FF6F3AH   LINE      ---      ---       #474
      00FF6F3CH   LINE      ---      ---       #478
      00FF6F44H   LINE      ---      ---       #481
      00FF6F4BH   LINE      ---      ---       #482
      00FF6F4BH   LINE      ---      ---       #483
      00FF6F4DH   LINE      ---      ---       #485
      00FF6F4DH   LINE      ---      ---       #486
      00FF6F50H   LINE      ---      ---       #487
      00FF6F56H   LINE      ---      ---       #489
L251 LINKER/LOCATER V4.66.93.0                                                        12/18/2023  14:21:09  PAGE 142


      00FF6F59H   LINE      ---      ---       #492
      00FF6F6AH   LINE      ---      ---       #493
      00FF6F6DH   LINE      ---      ---       #496
      00FF6F7AH   LINE      ---      ---       #499
      00FF6F82H   LINE      ---      ---       #502
      00FF6F86H   LINE      ---      ---       #505
      00FF6F8CH   LINE      ---      ---       #506
      00FF6F8CH   LINE      ---      ---       #507
      00FF6F8EH   LINE      ---      ---       #509
      00FF6F8EH   LINE      ---      ---       #511
      00FF6F91H   LINE      ---      ---       #514
      00FF6F94H   LINE      ---      ---       #519
      00FF6F9CH   LINE      ---      ---       #520
      00FF6F9CH   LINE      ---      ---       #522
      00FF6F9CH   LINE      ---      ---       #523
      00FF6F9CH   LINE      ---      ---       #525
      00FF6F9CH   LINE      ---      ---       #527
      00FF6F9CH   LINE      CODE     ---       #527
      ---         BLOCKEND  CODE     ---       LVL=0
      00FF6F9FH   LINE      ---      ---       #528

      ---         MODULE    ---      ---       mac_RfeTx
      00FF7A55H   PUBLIC    CODE     ---       MAC_RfeTxParInit
      00FF14B1H   PUBLIC    CODE     ---       MAC_RfeTxSchedule
      00FF93E0H   PUBLIC    CODE     ---       MAC_RfeTxTaskSet
      00FF9F2AH   PUBLIC    CODE     ---       MAC_RfeTxPktLenUpdate
      00FF9F9DH   PUBLIC    CODE     ---       MAC_RfeTxHwSecSet
      00FF9FEDH   PUBLIC    CODE     ---       MAC_RfeDataGen
      0000B3E7H   PUBLIC    EDATA    INT       gMacRfeTxState
      0000B3E9H   PUBLIC    EDATA    ---       gMacRfeTxCtrl
      00FF0F95H   PUBLIC    HCONST   ---       MACRfeDataType
      00FF0F9BH   PUBLIC    HCONST   ---       MACRfePrbs9
      00000080H   SFRSYM    DATA     BYTE      P0

      00FF93E0H   BLOCK     CODE     ---       LVL=0
      00FF93E0H   LINE      ---      ---       #58
      00FF93E2H   LINE      ---      ---       #60
      00FF93E8H   LINE      ---      ---       #63
      00FF93ECH   LINE      ---      ---       #64
      00FF9408H   LINE      ---      ---       #66
      00FF941CH   LINE      ---      ---       #67
      00FF941CH   LINE      ---      ---       #71
      R10         REGSYM    ---      BYTE      bRtcAutoEn
      ---         BLOCKEND  ---      ---       LVL=0

      00FF9F2AH   BLOCK     CODE     ---       LVL=0
      00FF9F2AH   LINE      ---      ---       #75
      00FF9F2AH   LINE      ---      ---       #77
      00FF9F36H   LINE      ---      ---       #78
      00FF9F67H   LINE      ---      ---       #80
      00FF9F76H   LINE      ---      ---       #81
      00FF9F78H   LINE      ---      ---       #84
      00FF9F90H   LINE      ---      ---       #85
      00FF9F94H   LINE      ---      ---       #86
      00FF9F9CH   LINE      ---      ---       #87
      00FF9F9CH   LINE      ---      ---       #88
      ---         BLOCKEND  ---      ---       LVL=0

      00FF9F9DH   BLOCK     CODE     ---       LVL=0
      00FF9F9DH   LINE      ---      ---       #91
      00FF9F9FH   LINE      ---      ---       #92
      00FF9F9FH   BLOCK     CODE     NEAR LAB  LVL=1
      00FF9F9FH   LINE      ---      ---       #95
      00FF9FAEH   LINE      ---      ---       #97
      00FF9FB0H   LINE      ---      ---       #98
L251 LINKER/LOCATER V4.66.93.0                                                        12/18/2023  14:21:09  PAGE 143


      00FF9FB4H   LINE      ---      ---       #99
      00FF9FB6H   LINE      ---      ---       #102
      00FF9FBAH   LINE      ---      ---       #103
      00FF9FBEH   LINE      ---      ---       #104
      00FF9FC4H   LINE      ---      ---       #105
      00FF9FCCH   LINE      ---      ---       #106
      00FF9FD2H   LINE      ---      ---       #107
      00FF9FD8H   LINE      ---      ---       #108
      00FF9FD8H   LINE      ---      ---       #110
      WR12        REGSYM    ---      WORD      aDataLen
      WR14        REGSYM    ---      WORD      mDataLen
      ---         BLOCKEND  CODE     ---       LVL=1
      00FF9FEAH   LINE      ---      ---       #111
      00FF9FEAH   LINE      CODE     ---       #111

      00FF9FEDH   BLOCK     CODE     ---       LVL=0
      00FF9FEDH   LINE      ---      ---       #113
      00FF9FF7H   LINE      ---      ---       #114
      REG=6       REGSYM    ---      ---       pbuf
      WR14        REGSYM    ---      WORD      len
      0000B5D8H   SYMBOL    EDATA    BYTE      dataType
      00FF9FF7H   BLOCK     CODE     NEAR LAB  LVL=1
      00FF9FF7H   LINE      ---      ---       #117
      00FF9FFDH   LINE      ---      ---       #120
      00FFA000H   LINE      ---      ---       #121
      00FFA036H   LINE      ---      ---       #122
      00FFA03EH   LINE      ---      ---       #123
      00FFA057H   LINE      ---      ---       #124
      00FFA05BH   LINE      ---      ---       #125
      00FFA05BH   LINE      ---      ---       #126
      00FFA064H   LINE      ---      ---       #128
      00FFA07EH   LINE      ---      ---       #129
      00FFA082H   LINE      ---      ---       #130
      00FFA082H   LINE      ---      ---       #135
      0000B5D9H   SYMBOL    EDATA    BYTE      idx
      ---         BLOCKEND  CODE     ---       LVL=1
      00FFA083H   LINE      ---      ---       #136
      00FFA083H   LINE      CODE     ---       #136

      00FF7A55H   BLOCK     CODE     ---       LVL=0
      00FF7A55H   LINE      ---      ---       #138
      00FF7A5DH   LINE      ---      ---       #140
      00FF7A62H   LINE      ---      ---       #141
      00FF7A68H   LINE      ---      ---       #142
      00FF7A6CH   LINE      ---      ---       #143
      00FF7A70H   LINE      ---      ---       #144
      00FF7A76H   LINE      ---      ---       #145
      00FF7A7BH   LINE      ---      ---       #146
      00FF7A81H   LINE      ---      ---       #147
      00FF7A85H   LINE      ---      ---       #148
      00FF7A8BH   LINE      ---      ---       #149
      00FF7A8FH   LINE      ---      ---       #152
      00FF7A97H   LINE      ---      ---       #153
      00FF7ACBH   LINE      ---      ---       #154
      00FF7ADAH   LINE      ---      ---       #155
      00FF7AE8H   LINE      ---      ---       #158
      00FF7AEBH   LINE      ---      ---       #159
      WR2         REGSYM    ---      WORD      txTarget
      WR4         REGSYM    ---      WORD      txStepSize
      R14         REGSYM    ---      BYTE      pktType
      R15         REGSYM    ---      BYTE      pktPhrType
      ---         BLOCKEND  ---      ---       LVL=0

      00FF14B1H   BLOCK     CODE     ---       LVL=0
      00FF14B1H   LINE      ---      ---       #161
L251 LINKER/LOCATER V4.66.93.0                                                        12/18/2023  14:21:09  PAGE 144


      00FF14B1H   LINE      ---      ---       #162
      00FF14B1H   BLOCK     CODE     NEAR LAB  LVL=1
      00FF14B1H   LINE      ---      ---       #163
      00FF14B1H   LINE      ---      ---       #167
      00FF14BCH   LINE      ---      ---       #169
      00FF14BCH   LINE      ---      ---       #170
      00FF14BCH   LINE      ---      ---       #173
      00FF14DEH   LINE      ---      ---       #175
      00FF14DEH   LINE      ---      ---       #177
      00FF14E1H   LINE      ---      ---       #179
      WR6         REGSYM    ---      WORD      macFunEventQueue
      R11         REGSYM    ---      BYTE      retValue
      00FF14E1H   BLOCK     CODE     NEAR LAB  LVL=2
      00FF14E1H   LINE      ---      ---       #181
      00FF14E9H   LINE      ---      ---       #182
      00FF14F1H   LINE      ---      ---       #183
      00FF14F9H   LINE      ---      ---       #184
      00FF1501H   LINE      ---      ---       #185
      0000B4CCH   SYMBOL    EDATA    ---       cb
      ---         BLOCKEND  CODE     ---       LVL=2
      00FF1508H   BLOCK     CODE     NEAR LAB  LVL=2
      00FF1508H   LINE      ---      ---       #186
      00FF1508H   LINE      ---      ---       #188
      00FF1518H   LINE      ---      ---       #192
      00FF151BH   LINE      ---      ---       #196
      00FF151BH   LINE      ---      ---       #197
      00FF151DH   LINE      ---      ---       #201
      00FF1547H   LINE      ---      ---       #204
      00FF154AH   LINE      ---      ---       #207
      00FF154DH   LINE      ---      ---       #210
      00FF155CH   LINE      ---      ---       #212
      00FF155EH   LINE      ---      ---       #215
      00FF1562H   LINE      ---      ---       #216
      00FF1564H   LINE      ---      ---       #219
      00FF156AH   LINE      ---      ---       #221
      00FF156FH   LINE      ---      ---       #240
      00FF1575H   LINE      ---      ---       #243
      00FF1576H   LINE      ---      ---       #244
      00FF1578H   LINE      ---      ---       #245
      00FF157EH   LINE      ---      ---       #247
      00FF1583H   LINE      ---      ---       #250
      00FF1589H   LINE      ---      ---       #253
      00FF158EH   LINE      ---      ---       #254
      00FF1590H   LINE      ---      ---       #255
      00FF159CH   LINE      ---      ---       #258
      00FF159EH   LINE      ---      ---       #259
      00FF159EH   LINE      ---      ---       #262
      00FF15A4H   LINE      ---      ---       #263
      00FF15ABH   LINE      ---      ---       #266
      00FF15AFH   LINE      ---      ---       #267
      00FF15AFH   LINE      ---      ---       #268
      00FF15AFH   LINE      ---      ---       #269
      00FF15B1H   LINE      ---      ---       #271
      00FF15B1H   LINE      ---      ---       #272
      00FF15B4H   LINE      ---      ---       #273
      00FF15BCH   LINE      ---      ---       #276
      00FF15BFH   LINE      ---      ---       #279
      00FF15D0H   LINE      ---      ---       #280
      00FF15D2H   LINE      ---      ---       #282
      00FF15D8H   LINE      ---      ---       #285
      00FF15DEH   LINE      ---      ---       #288
      00FF15E5H   LINE      ---      ---       #291
      00FF15F3H   LINE      ---      ---       #294
      00FF15F6H   LINE      ---      ---       #295
      00FF15F6H   LINE      ---      ---       #298
L251 LINKER/LOCATER V4.66.93.0                                                        12/18/2023  14:21:09  PAGE 145


      00FF1600H   LINE      ---      ---       #301
      00FF160DH   LINE      ---      ---       #304
      00FF1610H   LINE      ---      ---       #307
      00FF1616H   LINE      ---      ---       #308
      00FF161CH   LINE      ---      ---       #310
      00FF1620H   LINE      ---      ---       #311
      00FF1620H   LINE      ---      ---       #312
      00FF1622H   LINE      ---      ---       #314
      00FF1622H   LINE      ---      ---       #315
      00FF1625H   LINE      ---      ---       #316
      00FF162DH   LINE      ---      ---       #319
      00FF1634H   LINE      ---      ---       #322
      00FF1645H   LINE      ---      ---       #323
      00FF1647H   LINE      ---      ---       #327
      00FF1652H   LINE      ---      ---       #329
      00FF165CH   LINE      ---      ---       #330
      00FF165FH   LINE      ---      ---       #331
      00FF1661H   LINE      ---      ---       #333
      0000B4D4H   SYMBOL    EDATA    ---       ackContent
      ---         BLOCKEND  CODE     ---       LVL=2
      00FF1661H   LINE      ---      ---       #337
      00FF1671H   LINE      ---      ---       #338
      00FF1681H   LINE      ---      ---       #340
      00FF168BH   LINE      ---      ---       #341
      00FF168EH   LINE      ---      ---       #342
      00FF1690H   LINE      ---      ---       #345
      00FF169AH   LINE      ---      ---       #346
      00FF169DH   LINE      ---      ---       #347
      00FF169DH   LINE      CODE     ---       #347
      ---         BLOCKEND  CODE     ---       LVL=0
      00FF169DH   LINE      ---      ---       #348
      00FF169DH   LINE      ---      ---       #352
      00FF16A4H   LINE      ---      ---       #354
      00FF16AAH   LINE      ---      ---       #357
      00FF16AEH   LINE      ---      ---       #358
      00FF16B0H   LINE      ---      ---       #359
      00FF16B6H   LINE      ---      ---       #362
      00FF16BDH   LINE      ---      ---       #364
      00FF16C0H   LINE      ---      ---       #367
      00FF16C2H   LINE      ---      ---       #371
      00FF16C8H   LINE      ---      ---       #374
      00FF16CCH   LINE      ---      ---       #375
      00FF16CCH   LINE      ---      ---       #376
      00FF16CEH   LINE      ---      ---       #378
      00FF16CEH   LINE      ---      ---       #380
      00FF16D1H   LINE      ---      ---       #385
      00FF16D9H   LINE      ---      ---       #386
      00FF16DBH   LINE      ---      ---       #388
      00FF16DBH   LINE      ---      ---       #390
      00FF16DEH   LINE      ---      ---       #399
      00FF16DEH   LINE      ---      ---       #401
      00FF16DEH   LINE      ---      ---       #402
      00FF16DEH   LINE      ---      ---       #403
      00FF16DEH   LINE      ---      ---       #405
      00FF16E1H   LINE      ---      ---       #406

      ---         MODULE    ---      ---       mac_DtmRx

      ---         MODULE    ---      ---       mac_DtmTx

      ---         MODULE    ---      ---       mac_htrp_control
      00FFA086H   PUBLIC    CODE     ---       mac_htrp_ctrl_set_channel_map_from_bmu
      00FFA0D3H   PUBLIC    CODE     ---       mac_htrp_ctrl_get_channel
      00FF2007H   PUBLIC    CODE     ---       mac_htrp_ctrl_increase_channel_index
      00FFA0EBH   PUBLIC    CODE     ---       mac_htrp_ctrl_clear_pkt_cnt
L251 LINKER/LOCATER V4.66.93.0                                                        12/18/2023  14:21:09  PAGE 146


      00FFA110H   PUBLIC    CODE     ---       mac_htrp_ctrl_increase_pkt_cnt
      00FF740EH   PUBLIC    CODE     ---       mac_htrp_ctrl_increase_slot_index
      00FFA172H   PUBLIC    CODE     ---       mac_htrp_ctrl_slot_sync
      00FF1DA7H   PUBLIC    CODE     ---       mac_htrp_ctrl_channel_set
      00FF7648H   PUBLIC    CODE     ---       mac_htrp_ctrl_increase_cur_block
      00FF8FD6H   PUBLIC    CODE     ---       mac_htrp_set_sec_para
      00FF8FCDH   PUBLIC    CODE     ---       mac_htrp_set_disable
      00FF646AH   PUBLIC    CODE     ---       mac_htrp_send_tx_done
      00FF24AFH   PUBLIC    CODE     ---       mac_htrp_reg_isr_cb
      00FF26BFH   PUBLIC    CODE     ---       mac_htrp_isr_tx_done_handler
      00FFA19CH   PUBLIC    CODE     ---       mac_htrp_isr_rx_done_handler
      00FF76C4H   PUBLIC    CODE     ---       mac_htrp_check_rx_valid
      00FF74F1H   PUBLIC    CODE     ---       mac_htrp_set_rx_sw_queue
      00FF7356H   PUBLIC    CODE     ---       mac_htrp_update_lrx_buf_status
      00FF6B04H   PUBLIC    CODE     ---       mac_htrp_relay_data_to_sw_rxq
      00FF6B88H   PUBLIC    CODE     ---       mac_htrp_get_rx_sw_queue_wo_addr
      00FF2FECH   PUBLIC    CODE     ---       mac_htrp_set_rx_hw_queue
      00FF2FE1H   PUBLIC    CODE     ---       mac_htrp_set_rx_queue
      00FF2F6AH   PUBLIC    CODE     ---       mac_htrp_clear_rx_queue
      00FF8F92H   PUBLIC    CODE     ---       mac_htrp_reset_rx_conn_status
      00FFA1C0H   PUBLIC    CODE     ---       mac_htrp_check_rx_conn_status
      00FF24B8H   PUBLIC    CODE     ---       mac_htrp_get_tx_data
      00FF23C1H   PUBLIC    CODE     ---       mac_htrp_set_tx_queue
      00FF6475H   PUBLIC    CODE     ---       mac_htrp_clear_tx_queue
      00FFA1DFH   PUBLIC    CODE     ---       mac_htrp_ctrl_init
      00FFA202H   PUBLIC    CODE     ---       mac_htrp_sleep_init
      00FFA223H   PUBLIC    CODE     ---       mac_htrp_rtc_isr_handler
      00FFA229H   PUBLIC    CODE     ---       mac_htrp_is_allow_sleep_state
      00FFA26AH   PUBLIC    CODE     ---       mac_htrp_sleep_ctrl
      00FF4253H   PUBLIC    CODE     ---       mac_htrp_ready_to_sleep
      0000B0B8H   PUBLIC    EDATA    ---       g_mac_htrp_ctrl
      0000B1EAH   PUBLIC    EDATA    BYTE      g_mac_htrp_rx_commit_type
      0000B1EBH   PUBLIC    EDATA    ---       g_mac_htrp_tx_local_data
      0000B1F1H   PUBLIC    EDATA    ---       gMac_htrp_tx_done_hdl
      0000B1F3H   PUBLIC    EDATA    ---       gMac_htrp_rx_done_hdl
      000000A8H.7 SFRSYM    DATA     BIT       EA
      00000080H   SFRSYM    DATA     BYTE      P0

      00FFA086H   BLOCK     CODE     ---       LVL=0
      00FFA086H   LINE      ---      ---       #87
      00FFA08CH   LINE      ---      ---       #88
      REG=0       REGSYM    ---      ---       map
      R9          REGSYM    ---      BYTE      start
      R10         REGSYM    ---      BYTE      length
      00FFA08CH   BLOCK     CODE     NEAR LAB  LVL=1
      00FFA08CH   LINE      ---      ---       #90
      00FFA098H   LINE      ---      ---       #91
      00FFA09AH   LINE      ---      ---       #92
      00FFA09AH   LINE      ---      ---       #94
      00FFA09EH   LINE      ---      ---       #95
      00FFA0C0H   LINE      ---      ---       #96
      00FFA0C6H   LINE      ---      ---       #98
      00FFA0D0H   LINE      ---      ---       #100
      R8          REGSYM    ---      BYTE      count
      ---         BLOCKEND  CODE     ---       LVL=1
      00FFA0D2H   LINE      ---      ---       #101
      00FFA0D2H   LINE      CODE     ---       #101

      00FFA0D3H   BLOCK     CODE     ---       LVL=0
      00FFA0D3H   LINE      ---      ---       #103
      00FFA0D5H   LINE      ---      ---       #105
      00FFA0DDH   LINE      ---      ---       #106
      R6          REGSYM    ---      BYTE      index
      ---         BLOCKEND  ---      ---       LVL=0

L251 LINKER/LOCATER V4.66.93.0                                                        12/18/2023  14:21:09  PAGE 147


      00FF1FFAH   BLOCK     CODE     ---       LVL=0
      00FF2007H   LINE      ---      ---       #108
      00FF2007H   LINE      ---      ---       #109
      00FF1FFAH   SYMBOL    CODE     NEAR LAB  ?L?COM002C
      R7          REGSYM    ---      BYTE      count
      00FF2007H   BLOCK     CODE     NEAR LAB  LVL=1
      00FF2007H   LINE      ---      ---       #110
      00FF2011H   LINE      ---      ---       #111
      00FF2019H   LINE      ---      ---       #112
      00FF2022H   LINE      ---      ---       #113
      00FF2024H   LINE      ---      ---       #114
      00FF2028H   LINE      ---      ---       #115
      R7          REGSYM    ---      BYTE      temp_count
      ---         BLOCKEND  CODE     ---       LVL=1
      00FF2028H   LINE      ---      ---       #116
      00FF2028H   LINE      CODE     ---       #116

      00FFA0DEH   BLOCK     CODE     ---       LVL=0
      00FFA0EBH   LINE      ---      ---       #117
      00FFA0EBH   LINE      ---      ---       #119
      00FFA0F7H   LINE      ---      ---       #120
      00FFA103H   LINE      ---      ---       #121
      00FFA0DEH   SYMBOL    CODE     NEAR LAB  ?L?COM002E
      ---         BLOCKEND  ---      ---       LVL=0

      00FFA110H   BLOCK     CODE     ---       LVL=0
      00FFA110H   LINE      ---      ---       #124
      00FFA112H   LINE      ---      ---       #125
      R3          REGSYM    ---      BYTE      crc_flag
      00FFA112H   BLOCK     CODE     NEAR LAB  LVL=1
      00FFA112H   LINE      ---      ---       #126
      00FFA116H   LINE      ---      ---       #128
      00FFA127H   LINE      ---      ---       #129
      00FFA12BH   LINE      ---      ---       #130
      00FFA13CH   LINE      ---      ---       #133
      00FFA14AH   LINE      ---      ---       #134
      00FFA15CH   LINE      ---      ---       #135
      00FFA166H   LINE      ---      ---       #136
      00FFA171H   LINE      ---      ---       #137
      R6          REGSYM    ---      BYTE      ch_idx
      ---         BLOCKEND  CODE     ---       LVL=1
      ---         BLOCKEND  CODE     ---       LVL=0

      00FF7409H   BLOCK     CODE     ---       LVL=0
      00FF740EH   LINE      ---      ---       #141
      00FF740EH   LINE      ---      ---       #142
      00FF7409H   SYMBOL    CODE     NEAR LAB  ?L?COM0026
      R7          REGSYM    ---      BYTE      count
      00FF740EH   BLOCK     CODE     NEAR LAB  LVL=1
      00FF740EH   LINE      ---      ---       #143
      00FF7418H   LINE      ---      ---       #145
      00FF741DH   LINE      ---      ---       #146
      00FF7428H   LINE      ---      ---       #147
      00FF742AH   LINE      ---      ---       #148
      00FF742EH   LINE      ---      ---       #149
      R7          REGSYM    ---      BYTE      temp_count
      ---         BLOCKEND  CODE     ---       LVL=1
      00FF742EH   LINE      ---      ---       #150
      00FF742EH   LINE      CODE     ---       #150

      00FFA172H   BLOCK     CODE     ---       LVL=0
      00FFA172H   LINE      ---      ---       #152
      00FFA172H   LINE      ---      ---       #153
      00FFA172H   BLOCK     CODE     NEAR LAB  LVL=1
      00FFA172H   LINE      ---      ---       #154
L251 LINKER/LOCATER V4.66.93.0                                                        12/18/2023  14:21:09  PAGE 148


      00FFA17FH   LINE      ---      ---       #155
      00FFA188H   LINE      ---      ---       #157
      00FFA197H   LINE      ---      ---       #158
      00FFA19AH   LINE      ---      ---       #159
      DR4         REGSYM    ---      DWORD     phr
      R7          REGSYM    ---      BYTE      slot_cnt
      ---         BLOCKEND  CODE     ---       LVL=1
      00FFA19BH   LINE      ---      ---       #160
      00FFA19BH   LINE      CODE     ---       #160

      00FF1DA7H   BLOCK     CODE     ---       LVL=0
      00FF1DA7H   LINE      ---      ---       #162
      00FF1DA7H   LINE      ---      ---       #165
      00FF1DBAH   LINE      ---      ---       #170
      ---         BLOCKEND  ---      ---       LVL=0

      00FF7648H   BLOCK     CODE     ---       LVL=0
      00FF7648H   LINE      ---      ---       #174
      00FF7648H   LINE      ---      ---       #175
      R7          REGSYM    ---      BYTE      count
      00FF7648H   BLOCK     CODE     NEAR LAB  LVL=1
      00FF7648H   LINE      ---      ---       #176
      00FF7652H   LINE      ---      ---       #177
      00FF765AH   LINE      ---      ---       #178
      00FF7663H   LINE      ---      ---       #179
      00FF7665H   LINE      ---      ---       #180
      00FF7669H   LINE      ---      ---       #181
      R7          REGSYM    ---      BYTE      temp_count
      ---         BLOCKEND  CODE     ---       LVL=1
      00FF7669H   LINE      ---      ---       #182
      00FF7669H   LINE      CODE     ---       #182

      00FF8FD6H   BLOCK     CODE     ---       LVL=0
      00FF8FD6H   LINE      ---      ---       #184
      00FF8FDCH   LINE      ---      ---       #186
      00FF8FE7H   LINE      ---      ---       #187
      00FF8FF4H   LINE      ---      ---       #188
      REG=2       REGSYM    ---      ---       nonce
      REG=7       REGSYM    ---      ---       key
      ---         BLOCKEND  ---      ---       LVL=0

      00FF8FC2H   BLOCK     CODE     ---       LVL=0
      00FF8FCDH   LINE      ---      ---       #190
      00FF8FCDH   LINE      ---      ---       #192
      00FF8FCFH   LINE      ---      ---       #193
      00FF8FD3H   LINE      ---      ---       #194
      00FF8FD5H   LINE      ---      ---       #195
      00FF8FC2H   SYMBOL    CODE     NEAR LAB  ?L?COM0030
      R11         REGSYM    ---      BYTE      is_disable
      ---         BLOCKEND  ---      ---       LVL=0

      00FF646AH   BLOCK     CODE     ---       LVL=0
      00FF646AH   LINE      ---      ---       #197
      00FF646AH   LINE      ---      ---       #199
      00FF6473H   LINE      ---      ---       #200
      ---         BLOCKEND  ---      ---       LVL=0

      00FF24AFH   BLOCK     CODE     ---       LVL=0
      00FF24AFH   LINE      ---      ---       #203
      00FF24AFH   LINE      ---      ---       #205
      00FF24B3H   LINE      ---      ---       #206
      00FF24B7H   LINE      ---      ---       #207
      REG=3       REGSYM    ---      ---       tx
      REG=2       REGSYM    ---      ---       rx
      ---         BLOCKEND  ---      ---       LVL=0
L251 LINKER/LOCATER V4.66.93.0                                                        12/18/2023  14:21:09  PAGE 149



      00FF26BFH   BLOCK     CODE     ---       LVL=0
      00FF26BFH   LINE      ---      ---       #209
      00FF26BFH   LINE      ---      ---       #211
      00FF26C2H   LINE      ---      ---       #213
      00FF26C8H   LINE      ---      ---       #214
      00FF26CFH   LINE      ---      ---       #215
      00FF26D5H   LINE      ---      ---       #216
      00FF26D9H   LINE      ---      ---       #217
      00FF26DBH   LINE      ---      ---       #218
      00FF26DDH   LINE      ---      ---       #219
      00FF26E3H   LINE      ---      ---       #220
      00FF26E3H   LINE      ---      ---       #222
      00FF26EBH   LINE      ---      ---       #223
      00FF26F1H   LINE      ---      ---       #224
      00FF26F1H   LINE      ---      ---       #226
      00FF26F7H   LINE      ---      ---       #227
      00FF26F7H   LINE      ---      ---       #228
      ---         BLOCKEND  ---      ---       LVL=0

      00FFA19CH   BLOCK     CODE     ---       LVL=0
      00FFA19CH   LINE      ---      ---       #230
      00FFA19CH   LINE      ---      ---       #232
      00FFA19FH   LINE      ---      ---       #234
      00FFA1A5H   LINE      ---      ---       #236
      00FFA1ADH   LINE      ---      ---       #237
      00FFA1B3H   LINE      ---      ---       #238
      00FFA1B3H   LINE      ---      ---       #240
      00FFA1B7H   LINE      ---      ---       #241
      00FFA1B9H   LINE      ---      ---       #242
      ---         BLOCKEND  ---      ---       LVL=0

      00FF76C4H   BLOCK     CODE     ---       LVL=0
      00FF76C4H   LINE      ---      ---       #246
      00FF76C4H   LINE      ---      ---       #247
      00FF76C4H   BLOCK     CODE     NEAR LAB  LVL=1
      00FF76C4H   LINE      ---      ---       #249
      00FF76C6H   LINE      ---      ---       #250
      00FF76D0H   LINE      ---      ---       #252
      00FF76DEH   LINE      ---      ---       #254
      00FF76E4H   LINE      ---      ---       #256
      00FF76F2H   LINE      ---      ---       #258
      00FF76F6H   LINE      ---      ---       #259
      00FF76FAH   LINE      ---      ---       #260
      00FF76FCH   LINE      ---      ---       #261
      00FF76FEH   LINE      ---      ---       #262
      00FF7708H   LINE      ---      ---       #263
      00FF7708H   LINE      ---      ---       #264
      00FF7708H   LINE      ---      ---       #267
      00FF7710H   LINE      ---      ---       #268
      00FF7713H   LINE      ---      ---       #269
      00FF7713H   LINE      ---      ---       #270
      R7          REGSYM    ---      BYTE      is_crc_pass
      R10         REGSYM    ---      BYTE      sec_err
      R6          REGSYM    ---      BYTE      crc_err
      ---         BLOCKEND  CODE     ---       LVL=1
      00FF7714H   LINE      ---      ---       #271
      00FF7714H   LINE      CODE     ---       #271

      00FF74F1H   BLOCK     CODE     ---       LVL=0
      00FF74F1H   LINE      ---      ---       #274
      00FF74F1H   LINE      ---      ---       #276
      00FF74F3H   LINE      ---      ---       #277
      ---         BLOCKEND  ---      ---       LVL=0

L251 LINKER/LOCATER V4.66.93.0                                                        12/18/2023  14:21:09  PAGE 150


      00FF7356H   BLOCK     CODE     ---       LVL=0
      00FF7356H   LINE      ---      ---       #280
      00FF7356H   LINE      ---      ---       #283
      00FF7358H   LINE      ---      ---       #284
      ---         BLOCKEND  ---      ---       LVL=0

      00FF6B88H   BLOCK     CODE     ---       LVL=0
      00FF6B88H   LINE      ---      ---       #287
      00FF6B88H   LINE      ---      ---       #289
      ---         BLOCKEND  ---      ---       LVL=0

      00FF6B04H   BLOCK     CODE     ---       LVL=0
      00FF6B04H   LINE      ---      ---       #292
      00FF6B06H   LINE      ---      ---       #293
      00FF6B06H   BLOCK     CODE     NEAR LAB  LVL=1
      00FF6B06H   LINE      ---      ---       #294
      00FF6B0BH   LINE      ---      ---       #300
      00FF6B0FH   LINE      ---      ---       #302
      00FF6B13H   LINE      ---      ---       #305
      00FF6B16H   LINE      ---      ---       #306
      00FF6B2DH   LINE      ---      ---       #307
      00FF6B3AH   LINE      ---      ---       #310
      00FF6B42H   LINE      ---      ---       #311
      00FF6B6BH   LINE      ---      ---       #316
      00FF6B73H   LINE      ---      ---       #324
      00FF6B75H   LINE      ---      ---       #327
      00FF6B7EH   LINE      ---      ---       #329
      REG=6       REGSYM    ---      ---       hwLrxBuf
      REG=7       REGSYM    ---      ---       swShareBufWo
      R10         REGSYM    ---      BYTE      pktLen
      0000B577H   SYMBOL    EDATA    ---       rxPhyStatus
      ---         BLOCKEND  CODE     ---       LVL=1
      00FF6B85H   LINE      ---      ---       #330
      00FF6B85H   LINE      CODE     ---       #330

      00FF2FECH   BLOCK     CODE     ---       LVL=0
      00FF2FECH   LINE      ---      ---       #333
      00FF2FECH   LINE      ---      ---       #335
      00FF2FF6H   LINE      ---      ---       #336
      00FF2FF9H   LINE      ---      ---       #337
      00FF300EH   LINE      ---      ---       #338
      00FF3014H   LINE      ---      ---       #341
      00FF301DH   LINE      ---      ---       #342
      00FF301EH   LINE      ---      ---       #343
      00FF3021H   LINE      ---      ---       #344
      00FF3037H   LINE      ---      ---       #345
      00FF303AH   LINE      ---      ---       #346
      00FF303AH   LINE      ---      ---       #348
      ---         BLOCKEND  ---      ---       LVL=0

      00FF2FDDH   BLOCK     CODE     ---       LVL=0
      00FF2FE1H   LINE      ---      ---       #350
      00FF2FE3H   LINE      ---      ---       #353
      00FF2FE7H   LINE      ---      ---       #355
      00FF2FEAH   LINE      ---      ---       #356
      00FF2FEAH   LINE      ---      ---       #362
      00FF2FDDH   SYMBOL    CODE     NEAR LAB  ?L?COM003A
      R7          REGSYM    ---      BYTE      queue_type
      ---         BLOCKEND  ---      ---       LVL=0

      00FF2F66H   BLOCK     CODE     ---       LVL=0
      00FF2F6AH   LINE      ---      ---       #366
      00FF2F6EH   LINE      ---      ---       #368
      00FF2F75H   LINE      ---      ---       #369
      00FF2F7BH   LINE      ---      ---       #370
L251 LINKER/LOCATER V4.66.93.0                                                        12/18/2023  14:21:09  PAGE 151


      00FF2F80H   LINE      ---      ---       #372
      00FF2F83H   LINE      ---      ---       #377
      00FF2F85H   LINE      ---      ---       #378
      00FF2F66H   SYMBOL    CODE     NEAR LAB  ?L?COM0047
      R15         REGSYM    ---      BYTE      queue_type
      00FF2F8AH   BLOCK     CODE     NEAR LAB  LVL=1
      00FF2F8AH   LINE      ---      ---       #381
      00FF2F99H   LINE      ---      ---       #382
      00FF2FA3H   LINE      ---      ---       #385
      00FF2FA8H   LINE      ---      ---       #390
      00FF2FABH   LINE      ---      ---       #392
      00FF2FADH   LINE      ---      ---       #398
      00FF2FB6H   LINE      ---      ---       #400
      00FF2FB9H   LINE      ---      ---       #401
      00FF2FB9H   LINE      ---      ---       #403
      00FF2FBCH   LINE      ---      ---       #404
      00FF2FBEH   LINE      ---      ---       #405
      00FF2FC7H   LINE      ---      ---       #406
      00FF2FCAH   LINE      ---      ---       #407
      00FF2FCAH   LINE      ---      ---       #408
      0000B5DAH   SYMBOL    EDATA    ---       phr
      ---         BLOCKEND  CODE     ---       LVL=1
      00FF2FCCH   LINE      ---      ---       #410
      00FF2FCEH   LINE      ---      ---       #411
      00FF2FD3H   LINE      ---      ---       #412
      00FF2FD6H   LINE      ---      ---       #413
      00FF2FDAH   LINE      ---      ---       #414
      00FF2FDAH   LINE      ---      ---       #415
      00FF2FDAH   LINE      CODE     ---       #415

      00FF8F92H   BLOCK     CODE     ---       LVL=0
      00FF8F92H   LINE      ---      ---       #417
      00FF8F92H   LINE      ---      ---       #419
      00FF8F97H   LINE      ---      ---       #420
      00FF8F9DH   LINE      ---      ---       #421
      00FF8FA1H   LINE      ---      ---       #422
      ---         BLOCKEND  ---      ---       LVL=0

      00FFA1C0H   BLOCK     CODE     ---       LVL=0
      00FFA1C0H   LINE      ---      ---       #424
      00FFA1C0H   LINE      ---      ---       #426
      00FFA1CAH   LINE      ---      ---       #427
      00FFA1CCH   LINE      ---      ---       #428
      00FFA1D4H   LINE      ---      ---       #429
      00FFA1DAH   LINE      ---      ---       #430
      00FFA1DAH   LINE      ---      ---       #432
      00FFA1DEH   LINE      ---      ---       #433
      ---         BLOCKEND  ---      ---       LVL=0

      00FF24B8H   BLOCK     CODE     ---       LVL=0
      00FF24B8H   LINE      ---      ---       #435
      00FF24B8H   LINE      ---      ---       #436
      00FF24B8H   BLOCK     CODE     NEAR LAB  LVL=1
      00FF24B8H   LINE      ---      ---       #439
      00FF24C3H   LINE      ---      ---       #443
      00FF24C5H   LINE      ---      ---       #445
      00FF24C9H   LINE      ---      ---       #446
      00FF24CBH   LINE      ---      ---       #447
      WR6         REGSYM    ---      WORD      macIntEventQueue
      ---         BLOCKEND  CODE     ---       LVL=1
      ---         BLOCKEND  CODE     ---       LVL=0

      00FF23BFH   BLOCK     CODE     ---       LVL=0
      00FF23C1H   LINE      ---      ---       #451
      00FF23C1H   LINE      ---      ---       #452
L251 LINKER/LOCATER V4.66.93.0                                                        12/18/2023  14:21:09  PAGE 152


      00FF23BFH   SYMBOL    CODE     NEAR LAB  ?L?COM0032
      00FF23C1H   BLOCK     CODE     NEAR LAB  LVL=1
      00FF23C1H   LINE      ---      ---       #456
      00FF23C9H   LINE      ---      ---       #457
      00FF23CCH   LINE      ---      ---       #458
      00FF23D2H   LINE      ---      ---       #459
      00FF23D5H   LINE      ---      ---       #461
      00FF23DBH   LINE      ---      ---       #465
      00FF23DEH   LINE      ---      ---       #466
      00FF23E4H   LINE      ---      ---       #468
      00FF23F2H   LINE      ---      ---       #472
      00FF240EH   LINE      ---      ---       #474
      00FF2428H   LINE      ---      ---       #475
      00FF242BH   LINE      ---      ---       #476
      00FF242BH   LINE      ---      ---       #477
      00FF2439H   LINE      ---      ---       #478
      00FF243AH   LINE      ---      ---       #479
      00FF2442H   LINE      ---      ---       #481
      00FF2454H   LINE      ---      ---       #485
      00FF246AH   LINE      ---      ---       #487
      00FF2480H   LINE      ---      ---       #488
      00FF2483H   LINE      ---      ---       #489
      00FF2483H   LINE      ---      ---       #490
      00FF24A5H   LINE      ---      ---       #491
      00FF24ABH   LINE      ---      ---       #492
      00FF24AEH   LINE      ---      ---       #493
      0000B5DCH   SYMBOL    EDATA    ---       phr
      ---         BLOCKEND  CODE     ---       LVL=1
      00FF24AEH   LINE      ---      ---       #494
      00FF24AEH   LINE      CODE     ---       #494

      00FF6475H   BLOCK     CODE     ---       LVL=0
      00FF6475H   LINE      ---      ---       #496
      00FF6475H   LINE      ---      ---       #498
      00FF647BH   LINE      ---      ---       #499
      00FF647EH   LINE      ---      ---       #503
      00FF6480H   LINE      ---      ---       #505
      00FF6480H   LINE      ---      ---       #506
      00FF6483H   LINE      ---      ---       #507
      00FF6488H   LINE      ---      ---       #508
      00FF6488H   LINE      ---      ---       #509
      WR6         REGSYM    ---      WORD      funEvent
      ---         BLOCKEND  ---      ---       LVL=0

      00FFA1DFH   BLOCK     CODE     ---       LVL=0
      00FFA1DFH   LINE      ---      ---       #511
      00FFA1DFH   LINE      ---      ---       #513
      00FFA1EBH   LINE      ---      ---       #514
      00FFA1F7H   LINE      ---      ---       #515
      00FFA1FDH   LINE      ---      ---       #516
      00FFA201H   LINE      ---      ---       #517
      ---         BLOCKEND  ---      ---       LVL=0

      00FFA202H   BLOCK     CODE     ---       LVL=0
      00FFA202H   LINE      ---      ---       #519
      00FFA202H   LINE      ---      ---       #521
      00FFA209H   LINE      ---      ---       #522
      00FFA20EH   LINE      ---      ---       #523
      00FFA216H   LINE      ---      ---       #524
      00FFA222H   LINE      ---      ---       #525
      ---         BLOCKEND  ---      ---       LVL=0

      00FFA223H   BLOCK     CODE     ---       LVL=0
      00FFA223H   LINE      ---      ---       #527
      00FFA223H   LINE      ---      ---       #529
L251 LINKER/LOCATER V4.66.93.0                                                        12/18/2023  14:21:09  PAGE 153


      00FFA228H   LINE      ---      ---       #530
      ---         BLOCKEND  ---      ---       LVL=0

      00FFA229H   BLOCK     CODE     ---       LVL=0
      00FFA229H   LINE      ---      ---       #532
      00FFA22BH   LINE      ---      ---       #534
      00FFA231H   LINE      ---      ---       #536
      00FFA234H   LINE      ---      ---       #537
      00FFA234H   LINE      ---      ---       #539
      00FFA23DH   LINE      ---      ---       #541
      00FFA24BH   LINE      ---      ---       #544
      00FFA24FH   LINE      ---      ---       #545
      00FFA24FH   LINE      ---      ---       #547
      00FFA254H   LINE      ---      ---       #549
      00FFA262H   LINE      ---      ---       #552
      00FFA266H   LINE      ---      ---       #553
      00FFA266H   LINE      ---      ---       #556
      00FFA267H   LINE      ---      ---       #557
      ---         BLOCKEND  ---      ---       LVL=0

      00FFA26AH   BLOCK     CODE     ---       LVL=0
      00FFA26AH   LINE      ---      ---       #559
      00FFA26CH   LINE      ---      ---       #560
      00FFA26CH   BLOCK     CODE     NEAR LAB  LVL=1
      00FFA26CH   LINE      ---      ---       #563
      00FFA272H   LINE      ---      ---       #565
      00FFA272H   LINE      ---      ---       #566
      00FFA272H   LINE      ---      ---       #572
      00FFA280H   LINE      ---      ---       #576
      00FFA28AH   LINE      ---      ---       #577
      00FFA29AH   LINE      ---      ---       #579
      00FFA2A2H   LINE      ---      ---       #580
      00FFA2A8H   LINE      ---      ---       #581
      DR12        REGSYM    ---      DWORD     nextAnchor
      ---         BLOCKEND  CODE     ---       LVL=1
      00FFA2A8H   LINE      ---      ---       #583
      00FFA2A8H   LINE      CODE     ---       #583

      00FF4253H   BLOCK     CODE     ---       LVL=0
      00FF4253H   LINE      ---      ---       #585
      00FF4253H   LINE      ---      ---       #587
      00FF4257H   LINE      ---      ---       #588
      ---         BLOCKEND  ---      ---       LVL=0

      ---         MODULE    ---      ---       mac_htrp_rx
      00FF17EAH   PUBLIC    CODE     ---       mac_htrp_rx_set_state
      00FF1FF5H   PUBLIC    CODE     ---       mac_htrp_rx_get_state
      00FF2A62H   PUBLIC    CODE     ---       mac_htrp_rx_handler
      00FF179BH   PUBLIC    CODE     ---       mac_htrp_rx_init
      00FF1DF4H   PUBLIC    CODE     ---       mac_htrp_rx_cal_drift_time
      00FF1AD6H   PUBLIC    CODE     ---       mac_htrp_rx_set_rf_task
      00FF1E61H   PUBLIC    CODE     ---       mac_htrp_rx_set_next_task_and_channel
      00FF7508H   PUBLIC    CODE     ---       mac_htrp_rx_burst_rx_done
      00FF7536H   PUBLIC    CODE     ---       mac_htrp_rx_slot_rx_done
      00FFA2ABH   PUBLIC    CODE     ---       mac_htrp_rx_slot_tx_done
      00FF1B8FH   PUBLIC    CODE     ---       mac_htrp_rx_set_period_next_task
      00FF766AH   PUBLIC    CODE     ---       mac_htrp_rx_period_rx_done
      00FFA2B4H   PUBLIC    CODE     ---       mac_htrp_rx_period_tx_done
      0000B5C4H   PUBLIC    EDATA    BYTE      g_mac_htrp_rx_state
      0000B5C5H   PUBLIC    EDATA    BYTE      g_mac_htrp_rx_set_ch_time
      0000B5C6H   PUBLIC    EDATA    BYTE      g_mac_htrp_rx_sync_time
      00000080H   SFRSYM    DATA     BYTE      P0

      00FF17EAH   BLOCK     CODE     ---       LVL=0
      00FF17EAH   LINE      ---      ---       #114
L251 LINKER/LOCATER V4.66.93.0                                                        12/18/2023  14:21:09  PAGE 154


      00FF17EAH   LINE      ---      ---       #116
      00FF17EEH   LINE      ---      ---       #117
      R11         REGSYM    ---      BYTE      state
      ---         BLOCKEND  ---      ---       LVL=0

      00FF1FF5H   BLOCK     CODE     ---       LVL=0
      00FF1FF5H   LINE      ---      ---       #119
      00FF1FF5H   LINE      ---      ---       #121
      00FF1FF9H   LINE      ---      ---       #122
      ---         BLOCKEND  ---      ---       LVL=0

      00FF1DDAH   BLOCK     CODE     ---       LVL=0
      00FF1DF4H   LINE      ---      ---       #124
      00FF1DF4H   LINE      ---      ---       #126
      00FF1E02H   LINE      ---      ---       #127
      00FF1E05H   LINE      ---      ---       #128
      00FF1E11H   LINE      ---      ---       #129
      00FF1E1AH   LINE      ---      ---       #141
      00FF1E39H   LINE      ---      ---       #142
      00FF1E39H   LINE      ---      ---       #143
      00FF1E3EH   LINE      ---      ---       #144
      00FF1E3EH   LINE      ---      ---       #145
      00FF1E3EH   LINE      ---      ---       #146
      00FF1E60H   LINE      ---      ---       #147
      00FF1E60H   LINE      ---      ---       #148
      00FF1DDAH   SYMBOL    CODE     NEAR LAB  ?L?COM000A
      ---         BLOCKEND  ---      ---       LVL=0

      00FF1AD2H   BLOCK     CODE     ---       LVL=0
      00FF1AD6H   LINE      ---      ---       #150
      00FF1ADEH   LINE      ---      ---       #151
      00FF1AD2H   SYMBOL    CODE     NEAR LAB  ?L?COM003B
      R13         REGSYM    ---      BYTE      need_tx
      REG=7       REGSYM    ---      ---       time
      00FF1ADEH   BLOCK     CODE     NEAR LAB  LVL=1
      00FF1ADEH   LINE      ---      ---       #155
      00FF1AE4H   LINE      ---      ---       #156
      00FF1AE9H   LINE      ---      ---       #157
      00FF1AEFH   LINE      ---      ---       #158
      00FF1AF3H   LINE      ---      ---       #159
      00FF1AF9H   LINE      ---      ---       #160
      00FF1B0DH   LINE      ---      ---       #161
      00FF1B0FH   LINE      ---      ---       #162
      00FF1B14H   LINE      ---      ---       #163
      00FF1B1AH   LINE      ---      ---       #164
      00FF1B1AH   LINE      ---      ---       #165
      00FF1B26H   LINE      ---      ---       #166
      00FF1B32H   LINE      ---      ---       #167
      00FF1B3AH   LINE      ---      ---       #169
      00FF1B3EH   LINE      ---      ---       #170
      00FF1B44H   LINE      ---      ---       #171
      00FF1B49H   LINE      ---      ---       #172
      00FF1B4DH   LINE      ---      ---       #173
      00FF1B51H   LINE      ---      ---       #174
      00FF1B57H   LINE      ---      ---       #175
      00FF1B5DH   LINE      ---      ---       #176
      00FF1B61H   LINE      ---      ---       #177
      00FF1B69H   LINE      ---      ---       #178
      00FF1B69H   LINE      ---      ---       #180
      00FF1B6DH   LINE      ---      ---       #182
      00FF1B73H   LINE      ---      ---       #183
      00FF1B76H   LINE      ---      ---       #184
      00FF1B78H   LINE      ---      ---       #185
      00FF1B7BH   LINE      ---      ---       #186
      00FF1B7EH   LINE      ---      ---       #187
L251 LINKER/LOCATER V4.66.93.0                                                        12/18/2023  14:21:09  PAGE 155


      00FF1B7EH   LINE      ---      ---       #188
      DR8         REGSYM    ---      LONG      rtc
      0000B48CH   SYMBOL    EDATA    ---       taskControl
      ---         BLOCKEND  CODE     ---       LVL=1
      00FF1B8AH   LINE      ---      ---       #189
      00FF1B8AH   LINE      CODE     ---       #189

      00FF1E61H   BLOCK     CODE     ---       LVL=0
      00FF1E61H   LINE      ---      ---       #193
      00FF1E6BH   LINE      ---      ---       #194
      0000B419H   SYMBOL    EDATA    BYTE      need_tx
      0000B41AH   SYMBOL    EDATA    DWORD     rtc
      00FF1E6BH   BLOCK     CODE     NEAR LAB  LVL=1
      00FF1E6BH   LINE      ---      ---       #195
      00FF1E8DH   LINE      ---      ---       #199
      00FF1EA3H   LINE      ---      ---       #200
      00FF1EB6H   LINE      ---      ---       #201
      00FF1ECBH   LINE      ---      ---       #202
      00FF1ED0H   LINE      ---      ---       #203
      00FF1ED0H   LINE      ---      ---       #205
      00FF1ED2H   LINE      ---      ---       #206
      00FF1ED8H   LINE      ---      ---       #208
      00FF1EE0H   LINE      ---      ---       #209
      00FF1EEAH   LINE      ---      ---       #210
      00FF1F0AH   LINE      ---      ---       #211
      00FF1F14H   LINE      ---      ---       #212
      DR12        REGSYM    ---      DWORD     now
      R9          REGSYM    ---      BYTE      count
      0000B41EH   SYMBOL    EDATA    ---       time
      ---         BLOCKEND  CODE     ---       LVL=1
      00FF1F1CH   LINE      ---      ---       #213
      00FF1F1CH   LINE      CODE     ---       #213

      00FF7508H   BLOCK     CODE     ---       LVL=0
      00FF7508H   LINE      ---      ---       #215
      00FF7508H   LINE      ---      ---       #216
      00FF7508H   BLOCK     CODE     NEAR LAB  LVL=1
      00FF7508H   LINE      ---      ---       #217
      00FF7520H   LINE      ---      ---       #219
      00FF7524H   LINE      ---      ---       #222
      00FF752BH   LINE      ---      ---       #224
      00FF752DH   LINE      ---      ---       #225
      DR4         REGSYM    ---      DWORD     rtc
      ---         BLOCKEND  CODE     ---       LVL=1
      ---         BLOCKEND  CODE     ---       LVL=0

      00FF7536H   BLOCK     CODE     ---       LVL=0
      00FF7536H   LINE      ---      ---       #229
      00FF7538H   LINE      ---      ---       #230
      00FF7538H   BLOCK     CODE     NEAR LAB  LVL=1
      00FF7538H   LINE      ---      ---       #231
      00FF7550H   LINE      ---      ---       #233
      00FF7553H   LINE      ---      ---       #235
      00FF7559H   LINE      ---      ---       #237
      00FF755DH   LINE      ---      ---       #240
      00FF7564H   LINE      ---      ---       #242
      00FF7566H   LINE      ---      ---       #243
      DR12        REGSYM    ---      DWORD     rtc
      ---         BLOCKEND  CODE     ---       LVL=1
      ---         BLOCKEND  CODE     ---       LVL=0

      00FFA2ABH   BLOCK     CODE     ---       LVL=0
      00FFA2ABH   LINE      ---      ---       #247
      00FFA2ABH   LINE      ---      ---       #249
      ---         BLOCKEND  ---      ---       LVL=0
L251 LINKER/LOCATER V4.66.93.0                                                        12/18/2023  14:21:09  PAGE 156



      00FF1B8FH   BLOCK     CODE     ---       LVL=0
      00FF1B8FH   LINE      ---      ---       #252
      00FF1B97H   LINE      ---      ---       #253
      DR12        REGSYM    ---      DWORD     sync_time
      0000B4D8H   SYMBOL    EDATA    BYTE      is_timeout
      00FF1B97H   BLOCK     CODE     NEAR LAB  LVL=1
      00FF1B97H   LINE      ---      ---       #254
      00FF1B9BH   LINE      ---      ---       #255
      00FF1B9BH   LINE      ---      ---       #256
      00FF1B9BH   LINE      ---      ---       #259
      00FF1BB9H   LINE      ---      ---       #260
      00FF1BB9H   LINE      ---      ---       #261
      00FF1BC7H   LINE      ---      ---       #262
      00FF1BD8H   LINE      ---      ---       #263
      00FF1BE9H   LINE      ---      ---       #264
      00FF1BEFH   LINE      ---      ---       #265
      00FF1BF1H   LINE      ---      ---       #266
      00FF1BFDH   LINE      ---      ---       #267
      00FF1C08H   LINE      ---      ---       #268
      00FF1C08H   LINE      ---      ---       #269
      00FF1C1CH   LINE      ---      ---       #270
      00FF1C24H   LINE      ---      ---       #271
      00FF1C2DH   LINE      ---      ---       #272
      00FF1C2FH   LINE      ---      ---       #273
      00FF1C44H   LINE      ---      ---       #274
      00FF1C4AH   LINE      ---      ---       #275
      00FF1C4AH   LINE      ---      ---       #276
      DR24        REGSYM    ---      DWORD     now
      0000B4D9H   SYMBOL    EDATA    BYTE      count
      R11         REGSYM    ---      BYTE      ch_count
      DR24        REGSYM    ---      DWORD     diff
      0000B4DAH   SYMBOL    EDATA    ---       time
      00FF1C4CH   BLOCK     CODE     NEAR LAB  LVL=2
      00FF1C4CH   LINE      ---      ---       #277
      00FF1C57H   LINE      ---      ---       #278
      00FF1C6BH   LINE      ---      ---       #279
      R7          REGSYM    ---      BYTE      diff_count
      ---         BLOCKEND  CODE     ---       LVL=2
      00FF1C71H   BLOCK     CODE     NEAR LAB  LVL=2
      00FF1C71H   LINE      ---      ---       #280
      00FF1C71H   LINE      ---      ---       #281
      00FF1C73H   LINE      ---      ---       #282
      00FF1C8CH   LINE      ---      ---       #283
      00FF1C95H   LINE      ---      ---       #284
      00FF1C97H   LINE      ---      ---       #285
      R7          REGSYM    ---      BYTE      diff_count
      ---         BLOCKEND  CODE     ---       LVL=2
      00FF1C99H   LINE      ---      ---       #286
      00FF1CA4H   LINE      ---      ---       #287
      00FF1CB8H   LINE      ---      ---       #288
      00FF1CB8H   LINE      CODE     ---       #288
      ---         BLOCKEND  CODE     ---       LVL=0

      00FF766AH   BLOCK     CODE     ---       LVL=0
      00FF766AH   LINE      ---      ---       #337
      00FF766CH   LINE      ---      ---       #338
      00FF766CH   BLOCK     CODE     NEAR LAB  LVL=1
      00FF766CH   LINE      ---      ---       #339
      00FF7683H   LINE      ---      ---       #341
      DR12        REGSYM    ---      DWORD     rtc
      00FF7687H   BLOCK     CODE     NEAR LAB  LVL=2
      00FF7687H   LINE      ---      ---       #342
      00FF7694H   LINE      ---      ---       #344
      00FF76AEH   LINE      ---      ---       #349
L251 LINKER/LOCATER V4.66.93.0                                                        12/18/2023  14:21:09  PAGE 157


      DR4         REGSYM    ---      DWORD     phr
      R3          REGSYM    ---      BYTE      blk_num
      ---         BLOCKEND  CODE     ---       LVL=2
      00FF76B2H   LINE      ---      ---       #350
      00FF76B2H   LINE      ---      ---       #352
      00FF76B8H   LINE      ---      ---       #355
      00FF76BFH   LINE      ---      ---       #357
      00FF76C1H   LINE      ---      ---       #358
      00FF76C1H   LINE      CODE     ---       #358
      ---         BLOCKEND  CODE     ---       LVL=0

      00FFA2B4H   BLOCK     CODE     ---       LVL=0
      00FFA2B4H   LINE      ---      ---       #362
      00FFA2B4H   LINE      ---      ---       #363
      00FFA2B4H   BLOCK     CODE     NEAR LAB  LVL=1
      00FFA2B4H   LINE      ---      ---       #366
      00FFA2B7H   LINE      ---      ---       #367
      00FFA2BDH   LINE      ---      ---       #369
      00FFA2C5H   LINE      ---      ---       #370
      00FFA2CFH   LINE      ---      ---       #371
      00FFA2F0H   LINE      ---      ---       #372
      0000B4E4H   SYMBOL    EDATA    ---       time
      ---         BLOCKEND  CODE     ---       LVL=1
      ---         BLOCKEND  CODE     ---       LVL=0

      00FF2A62H   BLOCK     CODE     ---       LVL=0
      00FF2A62H   LINE      ---      ---       #375
      00FF2A64H   LINE      ---      ---       #376
      00FF2A64H   BLOCK     CODE     NEAR LAB  LVL=1
      00FF2A64H   LINE      ---      ---       #377
      00FF2A66H   LINE      ---      ---       #379
      00FF2A84H   LINE      ---      ---       #380
      00FF2A84H   LINE      ---      ---       #381
      WR14        REGSYM    ---      WORD      macFunEventQueue
      00FF2A84H   BLOCK     CODE     NEAR LAB  LVL=2
      00FF2A84H   LINE      ---      ---       #384
      00FF2A87H   LINE      ---      ---       #385
      00FF2A8AH   LINE      ---      ---       #392
      00FF2A8DH   LINE      ---      ---       #394
      00FF2A9FH   LINE      ---      ---       #396
      00FF2AD3H   LINE      ---      ---       #398
      00FF2ADBH   LINE      ---      ---       #399
      00FF2AE1H   LINE      ---      ---       #400
      00FF2AE9H   LINE      ---      ---       #401
      00FF2AEFH   LINE      ---      ---       #403
      00FF2AF5H   LINE      ---      ---       #404
      00FF2AF8H   LINE      ---      ---       #406
      00FF2AF8H   LINE      ---      ---       #408
      00FF2AFEH   LINE      ---      ---       #409
      00FF2B10H   LINE      ---      ---       #411
      00FF2B1FH   LINE      ---      ---       #412
      00FF2B1FH   LINE      ---      ---       #413
      00FF2B25H   LINE      ---      ---       #414
      00FF2B27H   LINE      ---      ---       #416
      00FF2B27H   LINE      ---      ---       #417
      00FF2B2FH   LINE      ---      ---       #418
      00FF2B31H   LINE      ---      ---       #420
      00FF2B31H   LINE      ---      ---       #421
      00FF2B3CH   LINE      ---      ---       #422
      00FF2B3CH   LINE      ---      ---       #424
      00FF2B3CH   LINE      ---      ---       #425
      00FF2B42H   LINE      ---      ---       #426
      00FF2B64H   LINE      ---      ---       #427
      00FF2B6FH   LINE      ---      ---       #429
      00FF2B77H   LINE      ---      ---       #431
L251 LINKER/LOCATER V4.66.93.0                                                        12/18/2023  14:21:09  PAGE 158


      00FF2B7DH   LINE      ---      ---       #433
      00FF2B84H   LINE      ---      ---       #435
      0000B331H   SYMBOL    EDATA    ---       cb
      0000B339H   SYMBOL    EDATA    ---       time
      ---         BLOCKEND  CODE     ---       LVL=2
      00FF2B86H   BLOCK     CODE     NEAR LAB  LVL=2
      00FF2B86H   LINE      ---      ---       #437
      00FF2B88H   LINE      ---      ---       #439
      00FF2B88H   LINE      ---      ---       #440
      00FF2B8DH   LINE      ---      ---       #441
      00FF2B95H   LINE      ---      ---       #443
      00FF2B98H   LINE      ---      ---       #445
      00FF2B9EH   LINE      ---      ---       #446
      00FF2BA3H   LINE      ---      ---       #448
      00FF2BADH   LINE      ---      ---       #452
      00FF2BB2H   LINE      ---      ---       #453
      00FF2BB5H   LINE      ---      ---       #454
      00FF2BB7H   LINE      ---      ---       #455
      00FF2BB9H   LINE      ---      ---       #456
      00FF2BBEH   LINE      ---      ---       #457
      00FF2BBEH   LINE      ---      ---       #458
      00FF2BC0H   LINE      ---      ---       #459
      00FF2BC0H   LINE      ---      ---       #461
      00FF2BC7H   LINE      ---      ---       #463
      00FF2BDDH   LINE      ---      ---       #464
      00FF2BDDH   LINE      ---      ---       #465
      00FF2BDFH   LINE      ---      ---       #470
      00FF2BF4H   LINE      ---      ---       #471
      00FF2BF7H   LINE      ---      ---       #472
      00FF2BF7H   LINE      ---      ---       #475
      00FF2BFEH   LINE      ---      ---       #476
      00FF2C03H   LINE      ---      ---       #477
      00FF2C06H   LINE      ---      ---       #478
      00FF2C06H   LINE      ---      ---       #480
      00FF2C0BH   LINE      ---      ---       #482
      00FF2C14H   LINE      ---      ---       #483
      00FF2C16H   LINE      ---      ---       #484
      00FF2C1CH   LINE      ---      ---       #485
      00FF2C22H   LINE      ---      ---       #486
      00FF2C25H   LINE      ---      ---       #487
      00FF2C27H   LINE      ---      ---       #488
      00FF2C29H   LINE      ---      ---       #489
      00FF2C2EH   LINE      ---      ---       #490
      00FF2C2EH   LINE      ---      ---       #491
      00FF2C31H   LINE      ---      ---       #492
      00FF2C3BH   LINE      ---      ---       #493
      00FF2C45H   LINE      ---      ---       #494
      00FF2C4AH   LINE      ---      ---       #495
      00FF2C4DH   LINE      ---      ---       #496
      00FF2C4DH   LINE      ---      ---       #497
      00FF2C4FH   LINE      ---      ---       #499
      00FF2C4FH   LINE      ---      ---       #500
      00FF2C54H   LINE      ---      ---       #501
      00FF2C5AH   LINE      ---      ---       #503
      00FF2C5EH   LINE      ---      ---       #505
      00FF2C61H   LINE      ---      ---       #507
      00FF2C63H   LINE      ---      ---       #509
      00FF2C72H   LINE      ---      ---       #510
      00FF2C74H   LINE      ---      ---       #511
      00FF2C77H   LINE      ---      ---       #512
      00FF2C79H   LINE      ---      ---       #513
      00FF2C7BH   LINE      ---      ---       #514
      00FF2C7BH   LINE      ---      ---       #515
      00FF2C85H   LINE      ---      ---       #516
      0000B343H   SYMBOL    EDATA    DWORD     rtc
L251 LINKER/LOCATER V4.66.93.0                                                        12/18/2023  14:21:09  PAGE 159


      0000B347H   SYMBOL    EDATA    ---       time
      ---         BLOCKEND  CODE     ---       LVL=2
      00FF2C8DH   BLOCK     CODE     NEAR LAB  LVL=2
      00FF2C8DH   LINE      ---      ---       #520
      00FF2C9EH   LINE      ---      ---       #521
      00FF2C9EH   LINE      ---      ---       #522
      00FF2CACH   LINE      ---      ---       #523
      00FF2CAFH   LINE      ---      ---       #524
      00FF2CB5H   LINE      ---      ---       #526
      00FF2CBDH   LINE      ---      ---       #527
      00FF2CC7H   LINE      ---      ---       #528
      00FF2CE8H   LINE      ---      ---       #529
      00FF2CE9H   LINE      ---      ---       #530
      00FF2CE9H   LINE      ---      ---       #531
      00FF2CEBH   LINE      ---      ---       #533
      00FF2CEBH   LINE      ---      ---       #534
      00FF2CEEH   LINE      ---      ---       #535
      00FF2CF7H   LINE      ---      ---       #536
      00FF2CF9H   LINE      ---      ---       #538
      00FF2CF9H   LINE      ---      ---       #539
      00FF2D07H   LINE      ---      ---       #540
      00FF2D0AH   LINE      ---      ---       #541
      00FF2D0DH   LINE      ---      ---       #542
      00FF2D13H   LINE      ---      ---       #544
      00FF2D1BH   LINE      ---      ---       #545
      00FF2D25H   LINE      ---      ---       #546
      00FF2D46H   LINE      ---      ---       #547
      00FF2D4FH   LINE      ---      ---       #548
      00FF2D57H   LINE      ---      ---       #549
      00FF2D57H   LINE      ---      ---       #550
      00FF2D57H   LINE      ---      ---       #552
      00FF2D5AH   LINE      ---      ---       #553
      00FF2D5DH   LINE      ---      ---       #555
      00FF2D67H   LINE      ---      ---       #556
      DR4         REGSYM    ---      DWORD     rtc
      ---         BLOCKEND  CODE     ---       LVL=2
      00FF2D6BH   LINE      ---      ---       #557
      00FF2D6DH   LINE      ---      ---       #558
      00FF2D72H   LINE      ---      ---       #559
      00FF2D72H   LINE      ---      ---       #560
      00FF2D7AH   LINE      ---      ---       #561
      00FF2D7FH   LINE      ---      ---       #563
      00FF2D82H   LINE      ---      ---       #564
      00FF2D82H   LINE      CODE     ---       #564
      ---         BLOCKEND  CODE     ---       LVL=0

      00FF179BH   BLOCK     CODE     ---       LVL=0
      00FF179BH   LINE      ---      ---       #1093
      00FF179DH   LINE      ---      ---       #1094
      00FF179DH   BLOCK     CODE     NEAR LAB  LVL=1
      00FF179DH   LINE      ---      ---       #1095
      00FF179DH   LINE      ---      ---       #1097
      00FF17A0H   LINE      ---      ---       #1100
      00FF17A6H   LINE      ---      ---       #1101
      REG=7       REGSYM    ---      ---       pRxSwqBlk
      ---         BLOCKEND  CODE     ---       LVL=1
      00FF17BFH   LINE      ---      ---       #1105
      00FF17BFH   LINE      CODE     ---       #1105
      00FF2D84H   LINE      ---      ---       #565
      00FF2D87H   LINE      ---      ---       #566
      00FF2D98H   LINE      ---      ---       #567
      00FF2D9FH   LINE      ---      ---       #568
      00FF2D9FH   LINE      ---      ---       #571
      00FF2DA6H   LINE      ---      ---       #572
      00FF2DA9H   LINE      ---      ---       #573
L251 LINKER/LOCATER V4.66.93.0                                                        12/18/2023  14:21:09  PAGE 160


      00FF2DAEH   LINE      ---      ---       #574
      00FF2DAEH   LINE      ---      ---       #576
      00FF2DB0H   LINE      ---      ---       #578
      00FF2DB0H   LINE      ---      ---       #579
      00FF2DB5H   LINE      ---      ---       #580
      00FF2DC1H   LINE      ---      ---       #582
      00FF2DC4H   LINE      ---      ---       #583
      00FF2DC9H   LINE      ---      ---       #585
      00FF2DCBH   LINE      ---      ---       #587
      00FF2DD0H   LINE      ---      ---       #588
      00FF2DD3H   LINE      ---      ---       #589
      00FF2DD3H   LINE      ---      ---       #590
      00FF2DD5H   LINE      ---      ---       #592
      00FF2DD5H   LINE      ---      ---       #593
      00FF2DDEH   LINE      ---      ---       #594
      00FF2DE1H   LINE      ---      ---       #595
      00FF2DEDH   LINE      ---      ---       #598
      00FF2DF3H   LINE      ---      ---       #600
      00FF2DFBH   LINE      ---      ---       #602
      00FF2DFEH   LINE      ---      ---       #603
      00FF2E01H   LINE      ---      ---       #604
      00FF2E01H   LINE      ---      ---       #605
      00FF2E06H   LINE      ---      ---       #606
      00FF2E08H   LINE      ---      ---       #607
      00FF2E10H   LINE      ---      ---       #609
      00FF2E13H   LINE      ---      ---       #610
      00FF2E16H   LINE      ---      ---       #611
      00FF2E16H   LINE      ---      ---       #613
      00FF2E19H   LINE      ---      ---       #614
      00FF2E1CH   LINE      ---      ---       #616
      00FF2E1FH   LINE      ---      ---       #618
      00FF2E25H   LINE      ---      ---       #620
      00FF2E28H   LINE      ---      ---       #621
      00FF2E28H   LINE      ---      ---       #622
      00FF2E2BH   LINE      ---      ---       #624
      00FF2E2FH   LINE      ---      ---       #625
      00FF2E33H   LINE      ---      ---       #627
      00FF2E33H   LINE      ---      ---       #628
      00FF2E33H   LINE      ---      ---       #630
      00FF2E36H   LINE      ---      ---       #632
      00FF2E39H   LINE      ---      ---       #633
      00FF1CCBH   LINE      ---      ---       #289
      00FF1CCBH   LINE      ---      ---       #290
      00FF1CCBH   LINE      ---      ---       #291
      00FF1CD3H   LINE      ---      ---       #292
      00FF1CD6H   LINE      ---      ---       #294
      00FF1CE8H   LINE      ---      ---       #295
      00FF1D06H   LINE      ---      ---       #301
      00FF1D09H   LINE      ---      ---       #302
      00FF1D0DH   LINE      ---      ---       #303
      00FF1D10H   LINE      ---      ---       #304
      00FF1D24H   LINE      ---      ---       #305
      00FF1D42H   LINE      ---      ---       #311
      00FF1D46H   LINE      ---      ---       #312
      00FF1D4AH   LINE      ---      ---       #313
      00FF1D4DH   LINE      ---      ---       #314
      00FF1D4FH   LINE      ---      ---       #315
      00FF1D5CH   LINE      ---      ---       #316
      00FF1D7AH   LINE      ---      ---       #322
      00FF1D88H   LINE      ---      ---       #323
      00FF1D88H   LINE      ---      ---       #324
      00FF1D8AH   LINE      ---      ---       #325
      00FF1D8DH   LINE      ---      ---       #326
      00FF1D90H   LINE      ---      ---       #327
      00FF1D96H   LINE      ---      ---       #329
L251 LINKER/LOCATER V4.66.93.0                                                        12/18/2023  14:21:09  PAGE 161


      00FF1D9AH   LINE      ---      ---       #330
      00FF1D9AH   LINE      ---      ---       #331
      00FF1D9DH   LINE      ---      ---       #332
      00FF1D9DH   LINE      ---      ---       #334
      00FF1DA4H   LINE      ---      ---       #335

      ---         MODULE    ---      ---       mac_htrp_tx
      00FF23BAH   PUBLIC    CODE     ---       mac_htrp_tx_set_state
      00FF2782H   PUBLIC    CODE     ---       mac_htrp_tx_get_state
      00FF2161H   PUBLIC    CODE     ---       mac_htrp_tx_handler
      00FF17EFH   PUBLIC    CODE     ---       mac_htrp_tx_init
      00FF1F37H   PUBLIC    CODE     ---       mac_htrp_tx_set_rf_task
      00FF7571H   PUBLIC    CODE     ---       mac_htrp_tx_burst_tx_done
      00FF763FH   PUBLIC    CODE     ---       mac_htrp_tx_slot_tx_done
      00FF7366H   PUBLIC    CODE     ---       mac_htrp_tx_slot_rx_done
      00FF75BEH   PUBLIC    CODE     ---       mac_htrp_tx_period_burst_tx_done
      00FF742FH   PUBLIC    CODE     ---       mac_htrp_tx_period_burst_rx_done
      0000B5DEH   PUBLIC    EDATA    BYTE      g_mac_htrp_tx_state
      0000B5DFH   PUBLIC    EDATA    BYTE      g_mac_htrp_tx_set_ch_time
      00000080H   SFRSYM    DATA     BYTE      P0

      00FF23BAH   BLOCK     CODE     ---       LVL=0
      00FF23BAH   LINE      ---      ---       #93
      00FF23BAH   LINE      ---      ---       #95
      00FF23BEH   LINE      ---      ---       #96
      R11         REGSYM    ---      BYTE      state
      ---         BLOCKEND  ---      ---       LVL=0

      00FF2782H   BLOCK     CODE     ---       LVL=0
      00FF2782H   LINE      ---      ---       #98
      00FF2782H   LINE      ---      ---       #100
      00FF2786H   LINE      ---      ---       #101
      ---         BLOCKEND  ---      ---       LVL=0

      00FF1F37H   BLOCK     CODE     ---       LVL=0
      00FF1F37H   LINE      ---      ---       #103
      00FF1F3FH   LINE      ---      ---       #104
      R13         REGSYM    ---      BYTE      need_rx
      REG=7       REGSYM    ---      ---       time
      00FF1F3FH   BLOCK     CODE     NEAR LAB  LVL=1
      00FF1F3FH   LINE      ---      ---       #108
      00FF1F45H   LINE      ---      ---       #109
      00FF1F4AH   LINE      ---      ---       #110
      00FF1F4EH   LINE      ---      ---       #111
      00FF1F52H   LINE      ---      ---       #112
      00FF1F58H   LINE      ---      ---       #113
      00FF1F6EH   LINE      ---      ---       #114
      00FF1F70H   LINE      ---      ---       #115
      00FF1F75H   LINE      ---      ---       #116
      00FF1F7BH   LINE      ---      ---       #117
      00FF1F7BH   LINE      ---      ---       #118
      00FF1F81H   LINE      ---      ---       #119
      00FF1F8DH   LINE      ---      ---       #120
      00FF1F95H   LINE      ---      ---       #122
      00FF1F99H   LINE      ---      ---       #123
      00FF1F9FH   LINE      ---      ---       #124
      00FF1FA4H   LINE      ---      ---       #125
      00FF1FAAH   LINE      ---      ---       #126
      00FF1FAFH   LINE      ---      ---       #127
      00FF1FB5H   LINE      ---      ---       #128
      00FF1FC1H   LINE      ---      ---       #129
      00FF1FC7H   LINE      ---      ---       #130
      00FF1FCFH   LINE      ---      ---       #131
      00FF1FCFH   LINE      ---      ---       #133
      00FF1FD3H   LINE      ---      ---       #135
L251 LINKER/LOCATER V4.66.93.0                                                        12/18/2023  14:21:09  PAGE 162


      00FF1FD9H   LINE      ---      ---       #136
      00FF1FDCH   LINE      ---      ---       #137
      00FF1FDEH   LINE      ---      ---       #138
      00FF1FE1H   LINE      ---      ---       #139
      00FF1FE4H   LINE      ---      ---       #140
      00FF1FE4H   LINE      ---      ---       #141
      DR8         REGSYM    ---      LONG      rtc
      0000B49AH   SYMBOL    EDATA    ---       taskControl
      ---         BLOCKEND  CODE     ---       LVL=1
      00FF1FF0H   LINE      ---      ---       #142
      00FF1FF0H   LINE      CODE     ---       #142

      00FF7571H   BLOCK     CODE     ---       LVL=0
      00FF7571H   LINE      ---      ---       #145
      00FF7573H   LINE      ---      ---       #146
      00FF7573H   BLOCK     CODE     NEAR LAB  LVL=1
      00FF7573H   LINE      ---      ---       #149
      00FF7575H   LINE      ---      ---       #153
      00FF757BH   LINE      ---      ---       #155
      00FF7585H   LINE      ---      ---       #156
      00FF758DH   LINE      ---      ---       #157
      00FF7597H   LINE      ---      ---       #158
      00FF75AFH   LINE      ---      ---       #159
      00FF75B7H   LINE      ---      ---       #160
      DR12        REGSYM    ---      DWORD     rtc
      0000B4EEH   SYMBOL    EDATA    ---       time
      ---         BLOCKEND  CODE     ---       LVL=1
      00FF75BBH   LINE      ---      ---       #161
      00FF75BBH   LINE      CODE     ---       #161

      00FF763FH   BLOCK     CODE     ---       LVL=0
      00FF763FH   LINE      ---      ---       #163
      00FF763FH   LINE      ---      ---       #165
      00FF7642H   LINE      ---      ---       #167
      ---         BLOCKEND  ---      ---       LVL=0

      00FF7366H   BLOCK     CODE     ---       LVL=0
      00FF7366H   LINE      ---      ---       #170
      00FF7368H   LINE      ---      ---       #171
      00FF7368H   BLOCK     CODE     NEAR LAB  LVL=1
      00FF7368H   LINE      ---      ---       #172
      00FF738BH   LINE      ---      ---       #177
      00FF7395H   LINE      ---      ---       #178
      00FF739CH   LINE      ---      ---       #179
      00FF73B5H   LINE      ---      ---       #180
      00FF73B8H   LINE      ---      ---       #183
      00FF73BEH   LINE      ---      ---       #185
      00FF73BEH   LINE      ---      ---       #187
      00FF73C0H   LINE      ---      ---       #191
      00FF73C6H   LINE      ---      ---       #193
      00FF73CEH   LINE      ---      ---       #194
      00FF73D8H   LINE      ---      ---       #195
      00FF73F0H   LINE      ---      ---       #196
      00FF73F9H   LINE      ---      ---       #197
      00FF73FDH   LINE      ---      ---       #200
      00FF7404H   LINE      ---      ---       #202
      00FF7406H   LINE      ---      ---       #203
      0000B428H   SYMBOL    EDATA    DWORD     now
      DR12        REGSYM    ---      DWORD     rtc
      0000B42CH   SYMBOL    EDATA    BYTE      count
      0000B42DH   SYMBOL    EDATA    ---       time
      ---         BLOCKEND  CODE     ---       LVL=1
      ---         BLOCKEND  CODE     ---       LVL=0

      00FF75BEH   BLOCK     CODE     ---       LVL=0
L251 LINKER/LOCATER V4.66.93.0                                                        12/18/2023  14:21:09  PAGE 163


      00FF75BEH   LINE      ---      ---       #207
      00FF75C0H   LINE      ---      ---       #209
      00FF75D4H   LINE      ---      ---       #210
      00FF75D7H   LINE      ---      ---       #211
      00FF75D9H   LINE      ---      ---       #212
      00FF75E5H   BLOCK     CODE     NEAR LAB  LVL=1
      00FF75E5H   LINE      ---      ---       #215
      00FF75E8H   LINE      ---      ---       #217
      00FF75EAH   LINE      ---      ---       #221
      00FF75F0H   LINE      ---      ---       #223
      00FF75FAH   LINE      ---      ---       #224
      00FF7602H   LINE      ---      ---       #225
      00FF760CH   LINE      ---      ---       #226
      00FF7624H   LINE      ---      ---       #227
      00FF762DH   LINE      ---      ---       #228
      DR12        REGSYM    ---      DWORD     rtc
      0000B4F8H   SYMBOL    EDATA    ---       time
      ---         BLOCKEND  CODE     ---       LVL=1
      00FF7631H   LINE      ---      ---       #230
      00FF7633H   LINE      ---      ---       #231
      00FF7636H   LINE      ---      ---       #232
      00FF7638H   LINE      ---      ---       #233
      00FF7638H   LINE      ---      ---       #234
      00FF763CH   LINE      ---      ---       #235
      00FF763CH   LINE      CODE     ---       #235

      00FF742FH   BLOCK     CODE     ---       LVL=0
      00FF742FH   LINE      ---      ---       #237
      00FF7431H   LINE      ---      ---       #238
      00FF7431H   BLOCK     CODE     NEAR LAB  LVL=1
      00FF7431H   LINE      ---      ---       #240
      00FF7454H   LINE      ---      ---       #244
      00FF7471H   LINE      ---      ---       #245
      00FF747AH   LINE      ---      ---       #246
      00FF7493H   LINE      ---      ---       #247
      00FF7496H   LINE      ---      ---       #250
      00FF749CH   LINE      ---      ---       #252
      00FF749CH   LINE      ---      ---       #253
      00FF749EH   LINE      ---      ---       #257
      00FF74A4H   LINE      ---      ---       #259
      00FF74ACH   LINE      ---      ---       #260
      00FF74B6H   LINE      ---      ---       #261
      00FF74CEH   LINE      ---      ---       #262
      00FF74E1H   LINE      ---      ---       #263
      00FF74E5H   LINE      ---      ---       #266
      00FF74ECH   LINE      ---      ---       #268
      00FF74EEH   LINE      ---      ---       #269
      DR12        REGSYM    ---      DWORD     rtc
      0000B437H   SYMBOL    EDATA    DWORD     now
      0000B43BH   SYMBOL    EDATA    BYTE      count
      0000B43CH   SYMBOL    EDATA    ---       time
      ---         BLOCKEND  CODE     ---       LVL=1
      ---         BLOCKEND  CODE     ---       LVL=0

      00FF2161H   BLOCK     CODE     ---       LVL=0
      00FF2161H   LINE      ---      ---       #273
      00FF2163H   LINE      ---      ---       #274
      00FF2163H   BLOCK     CODE     NEAR LAB  LVL=1
      00FF2163H   LINE      ---      ---       #275
      00FF2163H   LINE      ---      ---       #277
      00FF217BH   LINE      ---      ---       #278
      00FF217BH   LINE      ---      ---       #280
      00FF217EH   LINE      ---      ---       #282
      00FF2181H   LINE      ---      ---       #287
      00FF2193H   LINE      ---      ---       #289
L251 LINKER/LOCATER V4.66.93.0                                                        12/18/2023  14:21:09  PAGE 164


      00FF2196H   LINE      ---      ---       #291
      WR14        REGSYM    ---      WORD      macFunEventQueue
      00FF2196H   BLOCK     CODE     NEAR LAB  LVL=2
      00FF2196H   LINE      ---      ---       #293
      00FF219EH   LINE      ---      ---       #294
      00FF21A4H   LINE      ---      ---       #295
      00FF21ACH   LINE      ---      ---       #296
      00FF21B2H   LINE      ---      ---       #297
      0000B3D5H   SYMBOL    EDATA    ---       cb
      ---         BLOCKEND  CODE     ---       LVL=2
      00FF21B9H   BLOCK     CODE     NEAR LAB  LVL=2
      00FF21B9H   LINE      ---      ---       #298
      00FF21B9H   LINE      ---      ---       #300
      00FF21BFH   LINE      ---      ---       #301
      00FF21C2H   LINE      ---      ---       #303
      00FF21C2H   LINE      ---      ---       #305
      00FF21C4H   LINE      ---      ---       #307
      00FF21D7H   LINE      ---      ---       #308
      00FF21D7H   LINE      ---      ---       #309
      DR12        REGSYM    ---      DWORD     rtc
      0000B3DDH   SYMBOL    EDATA    ---       time
      ---         BLOCKEND  CODE     ---       LVL=2
      00FF21D7H   BLOCK     CODE     NEAR LAB  LVL=2
      00FF21D7H   LINE      ---      ---       #312
      00FF21DFH   LINE      ---      ---       #313
      00FF21E8H   LINE      ---      ---       #314
      00FF21F0H   LINE      ---      ---       #315
      00FF21FAH   LINE      ---      ---       #316
      00FF2212H   LINE      ---      ---       #317
      00FF2217H   LINE      ---      ---       #318
      DR12        REGSYM    ---      DWORD     rtc
      0000B3DDH   SYMBOL    EDATA    ---       time
      ---         BLOCKEND  CODE     ---       LVL=2
      00FF2217H   BLOCK     CODE     NEAR LAB  LVL=2
      00FF2217H   LINE      ---      ---       #320
      00FF2219H   LINE      ---      ---       #321
      00FF2219H   LINE      ---      ---       #322
      DR12        REGSYM    ---      DWORD     rtc
      0000B3DDH   SYMBOL    EDATA    ---       time
      ---         BLOCKEND  CODE     ---       LVL=2
      00FF2219H   BLOCK     CODE     NEAR LAB  LVL=2
      00FF2219H   LINE      ---      ---       #325
      00FF2223H   LINE      ---      ---       #326
      00FF222CH   LINE      ---      ---       #327
      00FF2234H   LINE      ---      ---       #328
      00FF223EH   LINE      ---      ---       #329
      00FF2256H   LINE      ---      ---       #330
      00FF2266H   LINE      ---      ---       #331
      DR4         REGSYM    ---      DWORD     rtc
      ---         BLOCKEND  CODE     ---       LVL=2
      00FF2266H   LINE      ---      ---       #333
      00FF2268H   LINE      ---      ---       #334
      00FF2268H   LINE      ---      ---       #335
      00FF2268H   LINE      CODE     ---       #335
      ---         BLOCKEND  CODE     ---       LVL=0

      00FF17EFH   BLOCK     CODE     ---       LVL=0
      00FF17EFH   LINE      ---      ---       #763
      00FF17EFH   LINE      ---      ---       #765
      00FF17F4H   LINE      ---      ---       #766
      ---         BLOCKEND  ---      ---       LVL=0
      00FF2268H   LINE      ---      ---       #338
      00FF2272H   LINE      ---      ---       #339
      00FF227BH   LINE      ---      ---       #340
      00FF2283H   LINE      ---      ---       #341
L251 LINKER/LOCATER V4.66.93.0                                                        12/18/2023  14:21:09  PAGE 165


      00FF228DH   LINE      ---      ---       #342
      00FF22A5H   LINE      ---      ---       #343
      00FF22AEH   LINE      ---      ---       #344
      00FF22B2H   LINE      ---      ---       #346
      00FF22B4H   LINE      ---      ---       #347
      00FF22B4H   LINE      ---      ---       #348
      00FF22B7H   LINE      ---      ---       #349
      00FF22B7H   LINE      ---      ---       #350
      00FF22B7H   LINE      ---      ---       #352
      00FF22BBH   LINE      ---      ---       #354
      00FF22C1H   LINE      ---      ---       #356
      00FF22C3H   LINE      ---      ---       #358
      00FF22C3H   LINE      ---      ---       #359
      00FF22C7H   LINE      ---      ---       #360
      00FF22D3H   LINE      ---      ---       #363
      00FF22D6H   LINE      ---      ---       #365
      00FF22DBH   LINE      ---      ---       #367
      00FF22EAH   LINE      ---      ---       #368
      00FF22ECH   LINE      ---      ---       #369
      00FF22EEH   LINE      ---      ---       #370
      00FF22EEH   LINE      ---      ---       #371
      00FF22F0H   LINE      ---      ---       #372
      00FF22F4H   LINE      ---      ---       #373
      00FF22F7H   LINE      ---      ---       #374
      00FF22F7H   LINE      ---      ---       #376
      00FF22FFH   LINE      ---      ---       #377
      00FF2302H   LINE      ---      ---       #378
      00FF2306H   LINE      ---      ---       #379
      00FF230CH   LINE      ---      ---       #380
      00FF230FH   LINE      ---      ---       #381
      00FF2312H   LINE      ---      ---       #382
      00FF2314H   LINE      ---      ---       #383
      00FF2317H   LINE      ---      ---       #384
      00FF2326H   LINE      ---      ---       #385
      00FF232CH   LINE      ---      ---       #386
      00FF232CH   LINE      ---      ---       #388
      00FF232EH   LINE      ---      ---       #390
      00FF232EH   LINE      ---      ---       #391
      00FF2332H   LINE      ---      ---       #392
      00FF233EH   LINE      ---      ---       #394
      00FF2341H   LINE      ---      ---       #396
      00FF2347H   LINE      ---      ---       #397
      00FF234AH   LINE      ---      ---       #398
      00FF2352H   LINE      ---      ---       #399
      00FF2355H   LINE      ---      ---       #400
      00FF2358H   LINE      ---      ---       #401
      00FF235CH   LINE      ---      ---       #402
      00FF2365H   LINE      ---      ---       #403
      00FF2368H   LINE      ---      ---       #404
      00FF236FH   LINE      ---      ---       #405
      00FF2372H   LINE      ---      ---       #406
      00FF2372H   LINE      ---      ---       #409
      00FF2374H   LINE      ---      ---       #412
      00FF2378H   LINE      ---      ---       #413
      00FF2378H   LINE      ---      ---       #414
      00FF2378H   LINE      ---      ---       #415
      00FF237AH   LINE      ---      ---       #417
      00FF237AH   LINE      ---      ---       #418
      00FF237DH   LINE      ---      ---       #419
      00FF237FH   LINE      ---      ---       #421
      00FF2382H   LINE      ---      ---       #422
      00FF2389H   LINE      ---      ---       #423
      00FF238FH   LINE      ---      ---       #424
      00FF2394H   LINE      ---      ---       #425
      00FF239CH   LINE      ---      ---       #427
L251 LINKER/LOCATER V4.66.93.0                                                        12/18/2023  14:21:09  PAGE 166


      00FF239CH   LINE      ---      ---       #428
      00FF239CH   LINE      ---      ---       #429
      00FF239EH   LINE      ---      ---       #431
      00FF23A0H   LINE      ---      ---       #432
      00FF23A3H   LINE      ---      ---       #433
      00FF23A3H   LINE      ---      ---       #434
      00FF23A5H   LINE      ---      ---       #436
      00FF23A8H   LINE      ---      ---       #438
      00FF23ABH   LINE      ---      ---       #439
      00FF23AFH   LINE      ---      ---       #440
      00FF23B1H   LINE      ---      ---       #441
      00FF23B1H   LINE      ---      ---       #442
      00FF23B1H   LINE      ---      ---       #444
      00FF23B4H   LINE      ---      ---       #446
      00FF23B7H   LINE      ---      ---       #447

      ---         MODULE    ---      ---       mac_srcmatch
      00FF37A5H   PUBLIC    CODE     ---       MAC_SrcMatch_EnableStatusGet
      00FF5E73H   PUBLIC    CODE     ---       MAC_SrcMatch_ListFind
      00FF5E52H   PUBLIC    CODE     ---       MAC_SrcMatch_ListFindIdx
      00FFA303H   PUBLIC    CODE     ---       MAC_SrcMatch_ListInit
      00FF59E6H   PUBLIC    CODE     ---       MAC_SrcMatch_Enable
      00FF5BD1H   PUBLIC    CODE     ---       MAC_SrcMatch_ListClear
      00FF5EC8H   PUBLIC    CODE     ---       MAC_SrcMatch_ListAdd
      00FF5EAAH   PUBLIC    CODE     ---       MAC_SrcMatch_ListModify
      00FFA36BH   PUBLIC    CODE     ---       MAC_SrcMatch_ListFindShort?_
      00FF7715H   PUBLIC    CODE     ---       MAC_SrcMatch_ListFindExtended?_
      00FFA400H   PUBLIC    CODE     ---       MAC_SrcMatch_ListAddShort
      00FFA512H   PUBLIC    CODE     ---       MAC_SrcMatch_ListAddExtended
      00FFA4A1H   PUBLIC    CODE     ---       MAC_SrcMatch_ListModifyShort
      00FFA5B6H   PUBLIC    CODE     ---       MAC_SrcMatch_ListModifyExtended
      0000A92AH   PUBLIC    EDATA    ---       gMacSrcCtrl
      0000AC3FH   PUBLIC    EDATA    ---       MacSrcFindEntry
      0000AC43H   PUBLIC    EDATA    ---       MacSrcAddEntry
      0000AC47H   PUBLIC    EDATA    ---       MacSrcModifyEntry

      00FFA303H   BLOCK     CODE     ---       LVL=0
      00FFA303H   LINE      ---      ---       #53
      00FFA303H   LINE      ---      ---       #54
      00FFA303H   BLOCK     CODE     NEAR LAB  LVL=1
      00FFA303H   LINE      ---      ---       #55
      00FFA308H   LINE      ---      ---       #59
      00FFA30CH   LINE      ---      ---       #60
      00FFA310H   LINE      ---      ---       #61
      00FFA312H   LINE      ---      ---       #63
      00FFA320H   LINE      ---      ---       #64
      00FFA328H   LINE      ---      ---       #65
      00FFA32FH   LINE      ---      ---       #66
      00FFA331H   LINE      ---      ---       #68
      00FFA344H   LINE      ---      ---       #69
      00FFA351H   LINE      ---      ---       #70
      00FFA363H   LINE      ---      ---       #71
      0000B5EFH   SYMBOL    EDATA    BYTE      listIdx
      R7          REGSYM    ---      BYTE      i
      ---         BLOCKEND  CODE     ---       LVL=1
      00FFA36AH   LINE      ---      ---       #83
      00FFA36AH   LINE      CODE     ---       #83

      00FF59E6H   BLOCK     CODE     ---       LVL=0
      00FF59E6H   LINE      ---      ---       #86
      00FF59EAH   LINE      ---      ---       #87
      R15         REGSYM    ---      BYTE      Enable
      00FF59EAH   BLOCK     CODE     NEAR LAB  LVL=1
      00FF59EAH   LINE      ---      ---       #89
      00FF59ECH   LINE      ---      ---       #91
L251 LINKER/LOCATER V4.66.93.0                                                        12/18/2023  14:21:09  PAGE 167


      R7          REGSYM    ---      BYTE      Pannum
      ---         BLOCKEND  CODE     ---       LVL=1
      00FF59F2H   LINE      ---      ---       #95
      00FF59F2H   LINE      CODE     ---       #95

      00FF37A5H   BLOCK     CODE     ---       LVL=0
      00FF37A5H   LINE      ---      ---       #98
      00FF37A7H   LINE      ---      ---       #99
      00FF37A7H   BLOCK     CODE     NEAR LAB  LVL=1
      00FF37A7H   LINE      ---      ---       #103
      00FF37ADH   LINE      ---      ---       #105
      00FF37B1H   LINE      ---      ---       #106
      00FF37B3H   LINE      ---      ---       #109
      00FF37B8H   LINE      ---      ---       #110
      00FF37B8H   LINE      ---      ---       #112
      R15         REGSYM    ---      BYTE      Pannum
      ---         BLOCKEND  CODE     ---       LVL=1
      00FF37BEH   LINE      ---      ---       #116
      00FF37BEH   LINE      CODE     ---       #116

      00FF5BD1H   BLOCK     CODE     ---       LVL=0
      00FF5BD1H   LINE      ---      ---       #120
      00FF5BD9H   LINE      ---      ---       #121
      R14         REGSYM    ---      BYTE      all
      R15         REGSYM    ---      BYTE      type
      REG=6       REGSYM    ---      ---       addr
      00FF5BD9H   BLOCK     CODE     NEAR LAB  LVL=1
      00FF5BD9H   LINE      ---      ---       #122
      00FF5BDEH   LINE      ---      ---       #123
      00FF5BE4H   LINE      ---      ---       #125
      00FF5BEAH   LINE      ---      ---       #127
      00FF5BEEH   LINE      ---      ---       #129
      00FF5C01H   LINE      ---      ---       #130
      00FF5C04H   LINE      ---      ---       #132
      00FF5C1BH   LINE      ---      ---       #133
      00FF5C2DH   LINE      ---      ---       #134
      00FF5C2FH   LINE      ---      ---       #135
      00FF5C36H   LINE      ---      ---       #137
      00FF5C49H   LINE      ---      ---       #138
      00FF5C50H   LINE      ---      ---       #140
      00FF5C67H   LINE      ---      ---       #141
      00FF5C79H   LINE      ---      ---       #142
      00FF5C7BH   LINE      ---      ---       #146
      00FF5C8CH   LINE      ---      ---       #148
      00FF5C92H   LINE      ---      ---       #150
      00FF5CA6H   LINE      ---      ---       #152
      00FF5CA6H   LINE      ---      ---       #153
      00FF5CC3H   LINE      ---      ---       #154
      00FF5CC5H   LINE      ---      ---       #155
      00FF5CC5H   LINE      ---      ---       #156
      00FF5CE2H   LINE      ---      ---       #157
      00FF5CE4H   LINE      ---      ---       #158
      00FF5CE4H   LINE      ---      ---       #159
      00FF5D01H   LINE      ---      ---       #160
      00FF5D03H   LINE      ---      ---       #161
      00FF5D03H   LINE      ---      ---       #162
      00FF5D20H   LINE      ---      ---       #163
      00FF5D20H   LINE      ---      ---       #165
      00FF5D20H   LINE      ---      ---       #166
      00FF5D20H   LINE      ---      ---       #167
      00FF5D20H   LINE      ---      ---       #169
      00FF5D39H   LINE      ---      ---       #171
      00FF5D6DH   LINE      ---      ---       #172
      00FF5D6FH   LINE      ---      ---       #174
      00FF5D76H   LINE      ---      ---       #176
L251 LINKER/LOCATER V4.66.93.0                                                        12/18/2023  14:21:09  PAGE 168


      00FF5D8AH   LINE      ---      ---       #178
      00FF5D8AH   LINE      ---      ---       #179
      00FF5DA7H   LINE      ---      ---       #180
      00FF5DA9H   LINE      ---      ---       #181
      00FF5DA9H   LINE      ---      ---       #182
      00FF5DC6H   LINE      ---      ---       #183
      00FF5DC8H   LINE      ---      ---       #184
      00FF5DC8H   LINE      ---      ---       #185
      00FF5DE5H   LINE      ---      ---       #186
      00FF5DE7H   LINE      ---      ---       #187
      00FF5DE7H   LINE      ---      ---       #188
      00FF5E04H   LINE      ---      ---       #189
      00FF5E04H   LINE      ---      ---       #191
      00FF5E04H   LINE      ---      ---       #192
      00FF5E04H   LINE      ---      ---       #193
      00FF5E04H   LINE      ---      ---       #195
      00FF5E1BH   LINE      ---      ---       #197
      00FF5E4FH   LINE      ---      ---       #198
      00FF5E4FH   LINE      ---      ---       #200
      00FF5E4FH   LINE      ---      ---       #201
      0000B5E0H   SYMBOL    EDATA    BYTE      listIdx
      0000B5E1H   SYMBOL    EDATA    BYTE      Pannum
      ---         BLOCKEND  CODE     ---       LVL=1
      00FF5E4FH   LINE      ---      ---       #202
      00FF5E4FH   LINE      CODE     ---       #202

      00FFA36BH   BLOCK     CODE     ---       LVL=0
      00FFA36BH   LINE      ---      ---       #205
      00FFA373H   LINE      ---      ---       #206
      REG=3       REGSYM    ---      ---       addr
      00FFA373H   BLOCK     CODE     NEAR LAB  LVL=1
      00FFA373H   LINE      ---      ---       #210
      00FFA375H   LINE      ---      ---       #213
      00FFA37BH   LINE      ---      ---       #215
      00FFA37FH   LINE      ---      ---       #216
      00FFA381H   LINE      ---      ---       #219
      00FFA386H   LINE      ---      ---       #220
      00FFA386H   LINE      ---      ---       #222
      00FFA39AH   LINE      ---      ---       #224
      00FFA39DH   LINE      ---      ---       #226
      00FFA3ABH   LINE      ---      ---       #228
      00FFA3BEH   LINE      ---      ---       #230
      00FFA3C8H   LINE      ---      ---       #232
      00FFA3CDH   LINE      ---      ---       #233
      00FFA3CDH   LINE      ---      ---       #236
      00FFA3E6H   LINE      ---      ---       #237
      00FFA3F5H   LINE      ---      ---       #239
      00000000H   STKSYM    ---      BYTE      listIdx
      FFFFFFFCH   STKSYM    ---      DWORD     bitMask
      REG=4       REGSYM    ---      ---       smaddr
      REG=7       REGSYM    ---      ---       inaddr
      R13         REGSYM    ---      BYTE      Pannum
      ---         BLOCKEND  CODE     ---       LVL=1
      00FFA3F7H   LINE      ---      ---       #240
      00FFA3F7H   LINE      CODE     ---       #240

      00FF7715H   BLOCK     CODE     ---       LVL=0
      00FF7715H   LINE      ---      ---       #243
      00FF771DH   LINE      ---      ---       #244
      REG=3       REGSYM    ---      ---       addr
      00FF771DH   BLOCK     CODE     NEAR LAB  LVL=1
      00FF771DH   LINE      ---      ---       #248
      00FF771FH   LINE      ---      ---       #251
      00FF7725H   LINE      ---      ---       #253
      00FF7729H   LINE      ---      ---       #254
L251 LINKER/LOCATER V4.66.93.0                                                        12/18/2023  14:21:09  PAGE 169


      00FF772BH   LINE      ---      ---       #257
      00FF7730H   LINE      ---      ---       #258
      00FF7730H   LINE      ---      ---       #260
      00FF7744H   LINE      ---      ---       #262
      00FF7747H   LINE      ---      ---       #264
      00FF7755H   LINE      ---      ---       #266
      00FF776FH   LINE      ---      ---       #268
      00FF7798H   LINE      ---      ---       #271
      00FF779DH   LINE      ---      ---       #272
      00FF779DH   LINE      ---      ---       #275
      00FF77B6H   LINE      ---      ---       #276
      00FF77C5H   LINE      ---      ---       #278
      00000000H   STKSYM    ---      BYTE      listIdx
      FFFFFFFCH   STKSYM    ---      DWORD     bitMask
      FFFFFFFAH   STKSYM    ---      ---       smaddr
      REG=7       REGSYM    ---      ---       inaddr
      R13         REGSYM    ---      BYTE      Pannum
      ---         BLOCKEND  CODE     ---       LVL=1
      00FF77C7H   LINE      ---      ---       #279
      00FF77C7H   LINE      CODE     ---       #279

      00FF5E52H   BLOCK     CODE     ---       LVL=0
      00FF5E52H   LINE      ---      ---       #418
      00FF5E5AH   LINE      ---      ---       #420
      00FF5E62H   LINE      ---      ---       #421
      00FF5E6EH   LINE      ---      ---       #422
      R15         REGSYM    ---      BYTE      type
      REG=6       REGSYM    ---      ---       addr
      ---         BLOCKEND  ---      ---       LVL=0

      00FF5E73H   BLOCK     CODE     ---       LVL=0
      00FF5E73H   LINE      ---      ---       #425
      00FF5E7BH   LINE      ---      ---       #427
      00FF5E80H   LINE      ---      ---       #429
      00FF5E83H   LINE      ---      ---       #430
      00FF5E83H   LINE      ---      ---       #432
      00FF5E93H   LINE      ---      ---       #433
      R13         REGSYM    ---      BYTE      type
      REG=7       REGSYM    ---      ---       addr
      ---         BLOCKEND  ---      ---       LVL=0

      00FFA400H   BLOCK     CODE     ---       LVL=0
      00FFA400H   LINE      ---      ---       #437
      00FFA406H   LINE      ---      ---       #438
      REG=7       REGSYM    ---      ---       addr
      00FFA406H   BLOCK     CODE     NEAR LAB  LVL=1
      00FFA406H   LINE      ---      ---       #439
      00FFA40BH   LINE      ---      ---       #440
      00FFA410H   LINE      ---      ---       #442
      00FFA413H   LINE      ---      ---       #444
      00FFA436H   LINE      ---      ---       #446
      00FFA453H   LINE      ---      ---       #447
      00FFA47DH   LINE      ---      ---       #448
      00FFA483H   LINE      ---      ---       #450
      00FFA487H   LINE      ---      ---       #451
      00FFA49BH   LINE      ---      ---       #454
      0000B5F0H   SYMBOL    EDATA    BYTE      listIdx
      R13         REGSYM    ---      BYTE      Pannum
      ---         BLOCKEND  CODE     ---       LVL=1
      00FFA49CH   LINE      ---      ---       #455
      00FFA49CH   LINE      CODE     ---       #455

      00FFA512H   BLOCK     CODE     ---       LVL=0
      00FFA512H   LINE      ---      ---       #458
      00FFA518H   LINE      ---      ---       #459
L251 LINKER/LOCATER V4.66.93.0                                                        12/18/2023  14:21:09  PAGE 170


      REG=7       REGSYM    ---      ---       addr
      00FFA518H   BLOCK     CODE     NEAR LAB  LVL=1
      00FFA518H   LINE      ---      ---       #460
      00FFA51DH   LINE      ---      ---       #461
      00FFA522H   LINE      ---      ---       #463
      00FFA525H   LINE      ---      ---       #465
      00FFA548H   LINE      ---      ---       #467
      00FFA568H   LINE      ---      ---       #468
      00FFA592H   LINE      ---      ---       #469
      00FFA598H   LINE      ---      ---       #471
      00FFA59CH   LINE      ---      ---       #472
      00FFA5B0H   LINE      ---      ---       #475
      0000B5F1H   SYMBOL    EDATA    BYTE      listIdx
      R13         REGSYM    ---      BYTE      Pannum
      ---         BLOCKEND  CODE     ---       LVL=1
      00FFA5B1H   LINE      ---      ---       #476
      00FFA5B1H   LINE      CODE     ---       #476

      00FF5EC8H   BLOCK     CODE     ---       LVL=0
      00FF5EC8H   LINE      ---      ---       #519
      00FF5ED0H   LINE      ---      ---       #521
      00FF5ED8H   LINE      ---      ---       #522
      00FF5EE4H   LINE      ---      ---       #523
      R15         REGSYM    ---      BYTE      type
      REG=6       REGSYM    ---      ---       addr
      ---         BLOCKEND  ---      ---       LVL=0

      00FFA4A1H   BLOCK     CODE     ---       LVL=0
      00FFA4A1H   LINE      ---      ---       #526
      00FFA4A5H   LINE      ---      ---       #527
      R15         REGSYM    ---      BYTE      listidx
      00FFA4A5H   BLOCK     CODE     NEAR LAB  LVL=1
      00FFA4A5H   LINE      ---      ---       #528
      00FFA4AAH   LINE      ---      ---       #530
      00FFA4BEH   LINE      ---      ---       #532
      00FFA4BEH   LINE      ---      ---       #533
      00FFA4D0H   LINE      ---      ---       #534
      00FFA4D2H   LINE      ---      ---       #535
      00FFA4D2H   LINE      ---      ---       #536
      00FFA4E4H   LINE      ---      ---       #537
      00FFA4E6H   LINE      ---      ---       #538
      00FFA4E6H   LINE      ---      ---       #539
      00FFA4F8H   LINE      ---      ---       #540
      00FFA4FAH   LINE      ---      ---       #541
      00FFA4FAH   LINE      ---      ---       #542
      00FFA50FH   LINE      ---      ---       #543
      00FFA50FH   LINE      ---      ---       #545
      00FFA50FH   LINE      ---      ---       #546
      00FFA50FH   LINE      ---      ---       #547
      R6          REGSYM    ---      BYTE      Pannum
      ---         BLOCKEND  CODE     ---       LVL=1
      00FFA50FH   LINE      ---      ---       #548
      00FFA50FH   LINE      CODE     ---       #548

      00FFA5B6H   BLOCK     CODE     ---       LVL=0
      00FFA5B6H   LINE      ---      ---       #551
      00FFA5BAH   LINE      ---      ---       #552
      R15         REGSYM    ---      BYTE      listidx
      00FFA5BAH   BLOCK     CODE     NEAR LAB  LVL=1
      00FFA5BAH   LINE      ---      ---       #553
      00FFA5BFH   LINE      ---      ---       #555
      00FFA5D3H   LINE      ---      ---       #557
      00FFA5D3H   LINE      ---      ---       #558
      00FFA5E5H   LINE      ---      ---       #559
      00FFA5E7H   LINE      ---      ---       #560
L251 LINKER/LOCATER V4.66.93.0                                                        12/18/2023  14:21:09  PAGE 171


      00FFA5E7H   LINE      ---      ---       #561
      00FFA5F9H   LINE      ---      ---       #562
      00FFA5FBH   LINE      ---      ---       #563
      00FFA5FBH   LINE      ---      ---       #564
      00FFA60DH   LINE      ---      ---       #565
      00FFA60FH   LINE      ---      ---       #566
      00FFA60FH   LINE      ---      ---       #567
      00FFA624H   LINE      ---      ---       #568
      00FFA624H   LINE      ---      ---       #570
      00FFA624H   LINE      ---      ---       #571
      00FFA624H   LINE      ---      ---       #572
      R6          REGSYM    ---      BYTE      Pannum
      ---         BLOCKEND  CODE     ---       LVL=1
      00FFA624H   LINE      ---      ---       #573
      00FFA624H   LINE      CODE     ---       #573

      00FF5EAAH   BLOCK     CODE     ---       LVL=0
      00FF5EAAH   LINE      ---      ---       #621
      00FF5EB0H   LINE      ---      ---       #623
      00FF5EB8H   LINE      ---      ---       #624
      00FF5EC5H   LINE      ---      ---       #625
      R15         REGSYM    ---      BYTE      type
      R14         REGSYM    ---      BYTE      listidx
      ---         BLOCKEND  ---      ---       LVL=0

      ---         MODULE    ---      ---       msg_ctrl
      00FF13BAH   PUBLIC    CODE     ---       MSG_HdlrInit
      00FF17CEH   PUBLIC    CODE     ---       MSG_Hdlr
      00FFA627H   PUBLIC    CODE     ---       MSG_Isr?_
      00FF41B6H   PUBLIC    CODE     ---       MSG_Idle
      00FF4FD0H   PUBLIC    CODE     ---       MSG_OutMsgForceHandle
      00FF4C7FH   PUBLIC    CODE     ---       MSG_OutStateSet
      00FFA672H   PUBLIC    CODE     ---       MSG_EventClr
      00FF1729H   PUBLIC    CODE     ---       MSG_InMsgProc
      00FF4C2CH   PUBLIC    CODE     ---       MSG_OutMsgToBmu
      00FF4C55H   PUBLIC    CODE     ---       MSG_OutMsgProc
      0000B57CH   PUBLIC    EDATA    ---       sMsgCtrl
      000000A8H.7 SFRSYM    DATA     BIT       EA

      00FF4C7FH   BLOCK     CODE     ---       LVL=0
      00FF4C7FH   LINE      ---      ---       #89
      00FF4C7FH   LINE      ---      ---       #93
      00FF4C81H   LINE      ---      ---       #94
      00FF4C85H   LINE      ---      ---       #95
      00FF4C87H   LINE      ---      ---       #96
      WR6         REGSYM    ---      INT       outMsgState
      ---         BLOCKEND  ---      ---       LVL=0

      00FFA672H   BLOCK     CODE     ---       LVL=0
      00FFA672H   LINE      ---      ---       #98
      00FFA672H   LINE      ---      ---       #102
      00FFA674H   LINE      ---      ---       #103
      00FFA680H   LINE      ---      ---       #104
      00FFA682H   LINE      ---      ---       #105
      WR6         REGSYM    ---      INT       inType
      ---         BLOCKEND  ---      ---       LVL=0

      00FF13BAH   BLOCK     CODE     ---       LVL=0
      00FF13BAH   LINE      ---      ---       #127
      00FF13BAH   LINE      ---      ---       #130
      00FF13BDH   LINE      ---      ---       #133
      00FF13C3H   LINE      ---      ---       #134
      00FF13C7H   LINE      ---      ---       #135
      00FF13CCH   LINE      ---      ---       #139
      ---         BLOCKEND  ---      ---       LVL=0
L251 LINKER/LOCATER V4.66.93.0                                                        12/18/2023  14:21:09  PAGE 172



      00FF1729H   BLOCK     CODE     ---       LVL=0
      00FF1729H   LINE      ---      ---       #234
      00FF172DH   LINE      ---      ---       #235
      00FF172DH   BLOCK     CODE     NEAR LAB  LVL=1
      00FF172DH   LINE      ---      ---       #245
      00FF1731H   LINE      ---      ---       #249
      00FF1739H   LINE      ---      ---       #250
      00FF1744H   LINE      ---      ---       #251
      00FF1746H   LINE      ---      ---       #254
      00FF1746H   LINE      ---      ---       #255
      00FF1752H   LINE      ---      ---       #256
      00FF1763H   LINE      ---      ---       #259
      00FF1763H   LINE      ---      ---       #266
      00FF1768H   LINE      ---      ---       #268
      00FF176AH   LINE      ---      ---       #272
      00FF176AH   LINE      ---      ---       #273
      00FF176AH   LINE      ---      ---       #283
      00FF1777H   LINE      ---      ---       #285
      00FF1779H   LINE      ---      ---       #288
      00FF1779H   LINE      ---      ---       #289
      00FF177BH   LINE      ---      ---       #290
      00FF177BH   LINE      ---      ---       #291
      R15         REGSYM    ---      BYTE      qIdx
      REG=6       REGSYM    ---      ---       pQPayload
      REG=6       REGSYM    ---      ---       pRuciHead
      0000B5E2H   SYMBOL    EDATA    WORD      cmdLength
      ---         BLOCKEND  CODE     ---       LVL=1
      00FF177BH   LINE      ---      ---       #297
      00FF177BH   LINE      CODE     ---       #297

      00FF4C2CH   BLOCK     CODE     ---       LVL=0
      00FF4C2CH   LINE      ---      ---       #300
      00FF4C2EH   LINE      ---      ---       #301
      00FF4C2EH   BLOCK     CODE     NEAR LAB  LVL=1
      00FF4C2EH   LINE      ---      ---       #314
      00FF4C36H   LINE      ---      ---       #317
      00FF4C3EH   LINE      ---      ---       #364
      00FF4C45H   LINE      ---      ---       #369
      00FF4C4BH   LINE      ---      ---       #373
      REG=7       REGSYM    ---      ---       pQPayload
      WR4         REGSYM    ---      WORD      msgLength
      R15         REGSYM    ---      BYTE      retValue
      ---         BLOCKEND  CODE     ---       LVL=1
      00FF4C52H   LINE      ---      ---       #375
      00FF4C52H   LINE      CODE     ---       #375

      00FF4C55H   BLOCK     CODE     ---       LVL=0
      00FF4C55H   LINE      ---      ---       #378
      00FF4C55H   LINE      ---      ---       #380
      00FF4C67H   LINE      ---      ---       #382
      00FF4C67H   LINE      ---      ---       #384
      00FF4C6BH   LINE      ---      ---       #386
      00FF4C6BH   LINE      ---      ---       #389
      00FF4C73H   LINE      ---      ---       #390
      00FF4C73H   LINE      ---      ---       #393
      00FF4C79H   LINE      ---      ---       #396
      00FF4C7BH   LINE      ---      ---       #398
      00FF4C7BH   LINE      ---      ---       #400
      00FF4C7BH   LINE      ---      ---       #403
      00FF4C7BH   LINE      ---      ---       #405
      00FF4C7BH   LINE      ---      ---       #406
      00FF4C7EH   LINE      ---      ---       #407
      00FF4C7EH   LINE      ---      ---       #408
      00FF4C7EH   LINE      ---      ---       #409
L251 LINKER/LOCATER V4.66.93.0                                                        12/18/2023  14:21:09  PAGE 173


      ---         BLOCKEND  ---      ---       LVL=0

      00FF17CEH   BLOCK     CODE     ---       LVL=0
      00FF17CEH   LINE      ---      ---       #411
      00FF17CEH   LINE      ---      ---       #437
      00FF17D1H   LINE      ---      ---       #440
      00FF17DBH   LINE      ---      ---       #443
      00FF17E2H   LINE      ---      ---       #446
      00FF17E4H   LINE      ---      ---       #447
      ---         BLOCKEND  ---      ---       LVL=0

      00FFA627H   BLOCK     CODE     ---       LVL=0
      00FFA627H   LINE      ---      ---       #455
      00FFA629H   LINE      ---      ---       #460
      00FFA62CH   LINE      ---      ---       #461
      00FFA637H   LINE      ---      ---       #464
      00FFA63CH   LINE      ---      ---       #465
      00FFA644H   LINE      ---      ---       #468
      00FFA649H   LINE      ---      ---       #469
      R4          REGSYM    ---      BYTE      statusBmu
      00FFA649H   BLOCK     CODE     NEAR LAB  LVL=1
      00FFA649H   LINE      ---      ---       #472
      00FFA659H   LINE      ---      ---       #473
      R5          REGSYM    ---      BYTE      regValue
      ---         BLOCKEND  CODE     ---       LVL=1
      00FFA669H   LINE      ---      ---       #474
      00FFA669H   LINE      ---      ---       #477
      00FFA671H   LINE      ---      ---       #490
      00FFA671H   LINE      CODE     ---       #490

      00FF41B6H   BLOCK     CODE     ---       LVL=0
      00FF41B6H   LINE      ---      ---       #492
      00FF41B8H   LINE      ---      ---       #493
      00FF41B8H   BLOCK     CODE     NEAR LAB  LVL=1
      00FF41B8H   LINE      ---      ---       #497
      00FF41C8H   LINE      ---      ---       #498
      00FF41CBH   LINE      ---      ---       #501
      00FF41CDH   LINE      ---      ---       #503
      00FF41D4H   LINE      ---      ---       #504
      00FF41D7H   LINE      ---      ---       #505
      00FF41DFH   LINE      ---      ---       #507
      WR14        REGSYM    ---      INT       qIdx
      ---         BLOCKEND  CODE     ---       LVL=1
      00FF41E1H   LINE      ---      ---       #508
      00FF41E1H   LINE      CODE     ---       #508

      00FF4FD0H   BLOCK     CODE     ---       LVL=0
      00FF4FD0H   LINE      ---      ---       #510
      00FF4FD2H   LINE      ---      ---       #511
      00FF4FD2H   BLOCK     CODE     NEAR LAB  LVL=1
      00FF4FD2H   LINE      ---      ---       #515
      00FF4FD4H   LINE      ---      ---       #516
      00FF4FD6H   LINE      ---      ---       #517
      R15         REGSYM    ---      BYTE      msgState
      ---         BLOCKEND  CODE     ---       LVL=1
      00FF4FDDH   LINE      ---      ---       #518
      00FF4FDDH   LINE      CODE     ---       #518

      ---         MODULE    ---      ---       hal
      00FF7FA6H   PUBLIC    CODE     ---       HAL_IsBleHw
      00FFA683H   PUBLIC    CODE     ---       HAL_IsWisunHw
      00FFA698H   PUBLIC    CODE     ---       HAL_IsZigbeeHw
      00FFA6CEH   PUBLIC    CODE     ---       HAL_IsSubgRf
      00FFA7E7H   PUBLIC    CODE     ---       HAL_Is2gRf
      00FF3FC9H   PUBLIC    CODE     ---       HAL_HwModeGet
L251 LINKER/LOCATER V4.66.93.0                                                        12/18/2023  14:21:09  PAGE 174


      00FFA7F6H   PUBLIC    CODE     ---       HAL_ClkModeSet
      00FFA83EH   PUBLIC    CODE     ---       HAL_HwModeInit?_
      00FFAF7AH   PUBLIC    CODE     ---       HAL_Watchdog
      00FFADC5H   PUBLIC    CODE     ---       HAL_PktTypeSet

      00FFADC5H   BLOCK     CODE     ---       LVL=0
      00FFADC5H   LINE      ---      ---       #35
      00FFADC5H   LINE      ---      ---       #36
      00FFADC5H   BLOCK     CODE     NEAR LAB  LVL=1
      00FFADC5H   LINE      ---      ---       #46
      00FFADD2H   LINE      ---      ---       #47
      00FFADD7H   LINE      ---      ---       #50
      00FFADD9H   LINE      ---      ---       #51
      00FFADF3H   LINE      ---      ---       #52
      00FFAE0EH   LINE      ---      ---       #59
      00FFAE12H   LINE      ---      ---       #60
      00FFAE1DH   LINE      ---      ---       #63
      R10         REGSYM    ---      BYTE      regValue
      ---         BLOCKEND  CODE     ---       LVL=1
      00FFAE29H   LINE      ---      ---       #64
      00FFAE29H   LINE      CODE     ---       #64

      00FF7FA6H   BLOCK     CODE     ---       LVL=0
      00FF7FA6H   LINE      ---      ---       #70
      00FF7FA6H   LINE      ---      ---       #72
      00FF7FB8H   LINE      ---      ---       #73
      ---         BLOCKEND  ---      ---       LVL=0

      00FFA683H   BLOCK     CODE     ---       LVL=0
      00FFA683H   LINE      ---      ---       #77
      00FFA683H   LINE      ---      ---       #79
      00FFA697H   LINE      ---      ---       #80
      ---         BLOCKEND  ---      ---       LVL=0

      00FFA698H   BLOCK     CODE     ---       LVL=0
      00FFA698H   LINE      ---      ---       #84
      00FFA698H   LINE      ---      ---       #86
      00FFA6ACH   LINE      ---      ---       #87
      ---         BLOCKEND  ---      ---       LVL=0

      00FFA6ADH   BLOCK     CODE     ---       LVL=0
      00FFA6CEH   LINE      ---      ---       #98
      00FFA6CEH   LINE      ---      ---       #100
      00FFA6DBH   LINE      ---      ---       #101
      00FFA6ADH   SYMBOL    CODE     NEAR LAB  ?L?COM0012
      ---         BLOCKEND  ---      ---       LVL=0

      00FFA7E7H   BLOCK     CODE     ---       LVL=0
      00FFA7E7H   LINE      ---      ---       #105
      00FFA7E7H   LINE      ---      ---       #107
      00FFA7F5H   LINE      ---      ---       #108
      ---         BLOCKEND  ---      ---       LVL=0

      00FFA7F6H   BLOCK     CODE     ---       LVL=0
      00FFA7F6H   LINE      ---      ---       #111
      00FFA7F8H   LINE      ---      ---       #115
      00FFA800H   LINE      ---      ---       #117
      00FFA800H   LINE      ---      ---       #119
      00FFA800H   LINE      ---      ---       #120
      00FFA80CH   LINE      ---      ---       #121
      00FFA818H   LINE      ---      ---       #122
      00FFA819H   LINE      ---      ---       #124
      00FFA81BH   LINE      ---      ---       #127
      00FFA81BH   LINE      ---      ---       #128
      00FFA827H   LINE      ---      ---       #129
L251 LINKER/LOCATER V4.66.93.0                                                        12/18/2023  14:21:09  PAGE 175


      00FFA833H   LINE      ---      ---       #133
      00FFA839H   LINE      ---      ---       #134
      00FFA839H   LINE      ---      ---       #136
      00FFA839H   LINE      ---      ---       #137
      00FFA83DH   LINE      ---      ---       #138
      WR4         REGSYM    ---      INT       clkMode
      ---         BLOCKEND  ---      ---       LVL=0

      00FF3FC9H   BLOCK     CODE     ---       LVL=0
      00FF3FC9H   LINE      ---      ---       #140
      00FF3FC9H   LINE      ---      ---       #142
      00FF3FD0H   LINE      ---      ---       #162
      ---         BLOCKEND  ---      ---       LVL=0

      00FFA83EH   BLOCK     CODE     ---       LVL=0
      00FFA83EH   LINE      ---      ---       #269
      00FFA848H   LINE      ---      ---       #276
      WR12        REGSYM    ---      INT       halType
      FFFFFFFBH   STKSYM    ---      INT       rfkBand
      WR14        REGSYM    ---      INT       clkMode
      FFFFFFF3H   STKSYM    ---      INT       rxqOpMode
      00FFA848H   BLOCK     CODE     NEAR LAB  LVL=1
      00FFA848H   LINE      ---      ---       #290
      00FFA84BH   LINE      ---      ---       #294
      00FFA855H   LINE      ---      ---       #298
      00FFA859H   LINE      ---      ---       #299
      00FFA871H   LINE      ---      ---       #300
      00FFA881H   LINE      ---      ---       #301
      00FFA88DH   LINE      ---      ---       #304
      00FFA891H   LINE      ---      ---       #306
      00FFA895H   LINE      ---      ---       #307
      00FFA897H   LINE      ---      ---       #311
      00FFA8A3H   LINE      ---      ---       #312
      00FFA8A3H   LINE      ---      ---       #315
      00FFA8ABH   LINE      ---      ---       #318
      00FFA8B0H   LINE      ---      ---       #321
      00FFA8CEH   LINE      ---      ---       #325
      00FFA8D0H   LINE      ---      ---       #328
      00FFA8DCH   LINE      ---      ---       #330
      00FFA8DCH   LINE      ---      ---       #332
      00FFA8DCH   LINE      ---      ---       #333
      00FFA8ECH   LINE      ---      ---       #336
      00FFA8EEH   LINE      ---      ---       #338
      00FFA8EEH   LINE      ---      ---       #339
      00FFA908H   LINE      ---      ---       #341
      00FFA908H   LINE      ---      ---       #343
      00FFA908H   LINE      ---      ---       #346
      00FFA90EH   LINE      ---      ---       #349
      00FFA914H   LINE      ---      ---       #352
      00FFA91AH   LINE      ---      ---       #355
      00FFA929H   LINE      ---      ---       #358
      00FFA948H   LINE      ---      ---       #362
      00FFA94EH   LINE      ---      ---       #364
      00FFA959H   LINE      ---      ---       #365
      00FFA978H   LINE      ---      ---       #366
      00FFA983H   LINE      ---      ---       #367
      00FFA9A2H   LINE      ---      ---       #368
      00FFA9A2H   LINE      ---      ---       #372
      00FFA9ADH   LINE      ---      ---       #375
      00FFA9BAH   LINE      ---      ---       #379
      00FFA9C4H   LINE      ---      ---       #383
      00FFA9CEH   LINE      ---      ---       #386
      00FFA9DBH   LINE      ---      ---       #389
      00FFA9E3H   LINE      ---      ---       #393
      00FFA9EBH   LINE      ---      ---       #394
L251 LINKER/LOCATER V4.66.93.0                                                        12/18/2023  14:21:09  PAGE 176


      00FFA9F0H   LINE      ---      ---       #428
      FFFFFFFFH   STKSYM    ---      INT       clkModeCurrent
      FFFFFFFDH   STKSYM    ---      INT       rfBandTemp
      WR4         REGSYM    ---      INT       rfkBandTemp
      WR2         REGSYM    ---      INT       modemTemp
      ---         BLOCKEND  CODE     ---       LVL=1
      00FFA9F0H   LINE      ---      ---       #430
      00FFA9F0H   LINE      CODE     ---       #430

      00FFAF7AH   BLOCK     CODE     ---       LVL=0
      00FFAF7AH   LINE      ---      ---       #433
      00FFAF7AH   LINE      ---      ---       #448
      ---         BLOCKEND  ---      ---       LVL=0

      ---         MODULE    ---      ---       hal_cfg
      00FF109BH   PUBLIC    HCONST   ---       sHalFwCfg
      00FF10A9H   PUBLIC    HCONST   ---       sHalHwCfgBLE
      00FF10DFH   PUBLIC    HCONST   ---       sHalHwCfgWisun
      00FF1115H   PUBLIC    HCONST   ---       sHalHwCfgZigbee

      ---         MODULE    ---      ---       hal_mac
      00FF37C1H   PUBLIC    CODE     ---       HALMAC_WhitenSet
      00FF3391H   PUBLIC    CODE     ---       HALMAC_CrcInitDftGet
      00FF37F7H   PUBLIC    CODE     ---       HALMAC_CrcSet
      00FF8FA2H   PUBLIC    CODE     ---       HALMAC_TxPreambleSet
      00FF8FB2H   PUBLIC    CODE     ---       HALMAC_RxPreambleSet
      00FF33D1H   PUBLIC    CODE     ---       HALMAC_TxSfdSet
      00FF8ECFH   PUBLIC    CODE     ---       HALMAC_RxSfdSet
      00FF2539H   PUBLIC    CODE     ---       HALMAC_PhrSet
      00FF37ECH   PUBLIC    CODE     ---       HALMAC_RxMhrRptLenSet
      00FFAD11H   PUBLIC    CODE     ---       HALMAC_RxMaxPktLenSet
      00FFAD51H   PUBLIC    CODE     ---       HALMAC_PktBitEndianSet
      00FFAF7BH   PUBLIC    CODE     ---       HALMAC_WhitenDftGet
      00FF3335H   PUBLIC    CODE     ---       HALMAC_WhitenInitDftGet
      00FF3EBFH   PUBLIC    CODE     ---       HALMAC_CrcLenCfgGet
      00FFAF84H   PUBLIC    CODE     ---       HALMAC_PhrLenCfgGet
      00FFAFA6H   PUBLIC    CODE     ---       HALMAC_SfdDftGet
      00FF3F72H   PUBLIC    CODE     ---       HALMAC_RxPayloadLenGet
      00FF2EC7H   PUBLIC    CODE     ---       HALMAC_MaxPayloadDftGet
      00FF7C46H   PUBLIC    CODE     ---       HALMAC_MaxPayloadLenGet
      00FFAFC1H   PUBLIC    CODE     ---       HALMAC_TxTypeSet
      00FFB03AH   PUBLIC    CODE     ---       HALMAC_IfsT2T
      00FFB0C6H   PUBLIC    CODE     ---       HALMAC_IfsT2R
      00FFB128H   PUBLIC    CODE     ---       HALMAC_IfsR2R
      00FFB1AAH   PUBLIC    CODE     ---       HALMAC_IfsR2T

      00FF37C1H   BLOCK     CODE     ---       LVL=0
      00FF37C1H   LINE      ---      ---       #23
      00FF37C3H   LINE      ---      ---       #29
      00FF37DCH   LINE      ---      ---       #32
      00FF37E3H   LINE      ---      ---       #33
      WR6         REGSYM    ---      INT       whitenType
      R10         REGSYM    ---      BYTE      initValue
      ---         BLOCKEND  ---      ---       LVL=0

      00FF37F7H   BLOCK     CODE     ---       LVL=0
      00FF37F7H   LINE      ---      ---       #35
      00FF37FBH   LINE      ---      ---       #41
      00FF3814H   LINE      ---      ---       #44
      00FF3818H   LINE      ---      ---       #45
      00FF382AH   LINE      ---      ---       #47
      00FF3835H   LINE      ---      ---       #48
      WR2         REGSYM    ---      INT       crcType
      DR28        REGSYM    ---      DWORD     initValue
      ---         BLOCKEND  ---      ---       LVL=0
L251 LINKER/LOCATER V4.66.93.0                                                        12/18/2023  14:21:09  PAGE 177



      00FF8FA2H   BLOCK     CODE     ---       LVL=0
      00FF8FA2H   LINE      ---      ---       #51
      00FF8FA2H   LINE      ---      ---       #56
      WR6         REGSYM    ---      INT       preambleType
      ---         BLOCKEND  ---      ---       LVL=0

      00FF8FB2H   BLOCK     CODE     ---       LVL=0
      00FF8FB2H   LINE      ---      ---       #59
      00FF8FB2H   LINE      ---      ---       #64
      WR6         REGSYM    ---      INT       preambleType
      ---         BLOCKEND  ---      ---       LVL=0

      00FF33D1H   BLOCK     CODE     ---       LVL=0
      00FF33D1H   LINE      ---      ---       #67
      00FF33D1H   LINE      ---      ---       #73
      00FF33DFH   LINE      ---      ---       #76
      WR6         REGSYM    ---      INT       sfdType
      DR0         REGSYM    ---      DWORD     sfdData
      ---         BLOCKEND  ---      ---       LVL=0

      00FF8ECFH   BLOCK     CODE     ---       LVL=0
      00FF8ECFH   LINE      ---      ---       #80
      00FF8ED3H   LINE      ---      ---       #85
      00FF8EE8H   LINE      ---      ---       #89
      00FF8EE8H   LINE      ---      ---       #90
      00FF8EEEH   LINE      ---      ---       #92
      00FF8EFDH   LINE      ---      ---       #93
      00FF8F14H   LINE      ---      ---       #94
      00FF8F1FH   LINE      ---      ---       #95
      00FF8F23H   LINE      ---      ---       #96
      00FF8F25H   LINE      ---      ---       #99
      00FF8F35H   LINE      ---      ---       #100
      00FF8F4CH   LINE      ---      ---       #101
      00FF8F57H   LINE      ---      ---       #102
      00FF8F6AH   LINE      ---      ---       #103
      00FF8F6AH   LINE      ---      ---       #107
      00FF8F6AH   LINE      ---      ---       #109
      00FF8F7AH   LINE      ---      ---       #110
      00FF8F85H   LINE      ---      ---       #111
      00FF8F85H   LINE      ---      ---       #114
      00FF8F85H   LINE      ---      ---       #115
      00FF8F85H   LINE      ---      ---       #116
      00FF8F85H   LINE      ---      ---       #117
      WR10        REGSYM    ---      INT       sfdType
      DR28        REGSYM    ---      DWORD     sfdData
      ---         BLOCKEND  ---      ---       LVL=0

      00FF252BH   BLOCK     CODE     ---       LVL=0
      00FF2539H   LINE      ---      ---       #120
      00FF2539H   LINE      ---      ---       #127
      00FF254AH   LINE      ---      ---       #133
      00FF2559H   LINE      ---      ---       #134
      00FF252BH   SYMBOL    CODE     NEAR LAB  ?L?COM0029
      WR6         REGSYM    ---      INT       phrType
      DR0         REGSYM    ---      DWORD     phrData
      ---         BLOCKEND  ---      ---       LVL=0

      00FF37ECH   BLOCK     CODE     ---       LVL=0
      00FF37ECH   LINE      ---      ---       #136
      00FF37ECH   LINE      ---      ---       #140
      WR6         REGSYM    ---      WORD      rptLen
      ---         BLOCKEND  ---      ---       LVL=0

      00FFAD11H   BLOCK     CODE     ---       LVL=0
L251 LINKER/LOCATER V4.66.93.0                                                        12/18/2023  14:21:09  PAGE 178


      00FFAD11H   LINE      ---      ---       #144
      WR2         REGSYM    ---      WORD      pktLen
      00FFAD11H   BLOCK     CODE     NEAR LAB  LVL=1
      00FFAD1FH   LINE      ---      ---       #157
      00FFAD24H   LINE      ---      ---       #158
      DR8         REGSYM    ---      DWORD     regVal
      ---         BLOCKEND  CODE     ---       LVL=1
      00FFAD2FH   LINE      ---      ---       #159
      00FFAD2FH   LINE      CODE     ---       #159

      00FFAD51H   BLOCK     CODE     ---       LVL=0
      00FFAD51H   LINE      ---      ---       #162
      WR2         REGSYM    ---      INT       bitEndian
      00FFAD51H   BLOCK     CODE     NEAR LAB  LVL=1
      00FFAD5FH   LINE      ---      ---       #175
      00FFAD70H   LINE      ---      ---       #176
      DR28        REGSYM    ---      DWORD     regVal
      ---         BLOCKEND  CODE     ---       LVL=1
      ---         BLOCKEND  CODE     ---       LVL=0

      00FFAF7BH   BLOCK     CODE     ---       LVL=0
      00FFAF7BH   LINE      ---      ---       #181
      00FFAF7BH   LINE      ---      ---       #183
      00FFAF83H   LINE      ---      ---       #184
      ---         BLOCKEND  ---      ---       LVL=0

      00FF3335H   BLOCK     CODE     ---       LVL=0
      00FF3335H   LINE      ---      ---       #186
      00FF3335H   LINE      ---      ---       #189
      00FF333DH   LINE      ---      ---       #190
      ---         BLOCKEND  ---      ---       LVL=0

      00FF338DH   BLOCK     CODE     ---       LVL=0
      00FF3391H   LINE      ---      ---       #192
      00FF3391H   LINE      ---      ---       #197
      00FF33A7H   LINE      ---      ---       #198
      00FF338DH   SYMBOL    CODE     NEAR LAB  ?L?COM004D
      WR6         REGSYM    ---      INT       crcType
      ---         BLOCKEND  ---      ---       LVL=0

      00FF3EBFH   BLOCK     CODE     ---       LVL=0
      00FF3EBFH   LINE      ---      ---       #201
      00FF3EBFH   LINE      ---      ---       #202
      00FF3EBFH   BLOCK     CODE     NEAR LAB  LVL=1
      00FF3EBFH   LINE      ---      ---       #206
      00FF3ECCH   LINE      ---      ---       #207
      R7          REGSYM    ---      BYTE      regValue
      ---         BLOCKEND  CODE     ---       LVL=1
      00FF3ED7H   LINE      ---      ---       #208
      00FF3ED7H   LINE      CODE     ---       #208

      00FFAF84H   BLOCK     CODE     ---       LVL=0
      00FFAF84H   LINE      ---      ---       #210
      00FFAF84H   LINE      ---      ---       #214
      00FFAF8FH   LINE      ---      ---       #215
      00FFAF92H   LINE      ---      ---       #219
      00FFAF98H   LINE      ---      ---       #220
      00FFAF9BH   LINE      ---      ---       #224
      00FFAFA1H   LINE      ---      ---       #225
      00FFAFA4H   LINE      ---      ---       #238
      00FFAFA5H   LINE      ---      ---       #239
      ---         BLOCKEND  ---      ---       LVL=0

      00FF3F72H   BLOCK     CODE     ---       LVL=0
      00FF3F72H   LINE      ---      ---       #254
L251 LINKER/LOCATER V4.66.93.0                                                        12/18/2023  14:21:09  PAGE 179


      00FF3F72H   LINE      ---      ---       #256
      00FF3F85H   LINE      ---      ---       #259
      00FF3F85H   LINE      ---      ---       #260
      00FF3F97H   LINE      ---      ---       #264
      00FF3F97H   LINE      ---      ---       #265
      00FF3FAEH   LINE      ---      ---       #269
      00FF3FAEH   LINE      ---      ---       #270
      00FF3FC6H   LINE      ---      ---       #278
      00FF3FC6H   LINE      ---      ---       #279
      00FF3FC8H   LINE      ---      ---       #280
      00FF3FC8H   LINE      ---      ---       #281
      ---         BLOCKEND  ---      ---       LVL=0

      00FFAFA6H   BLOCK     CODE     ---       LVL=0
      00FFAFA6H   LINE      ---      ---       #283
      00FFAFA6H   LINE      ---      ---       #288
      00FFAFBCH   LINE      ---      ---       #289
      WR6         REGSYM    ---      INT       sfdType
      ---         BLOCKEND  ---      ---       LVL=0

      00FF2EC7H   BLOCK     CODE     ---       LVL=0
      00FF2EC7H   LINE      ---      ---       #292
      00FF2EC7H   LINE      ---      ---       #295
      00FF2ECFH   LINE      ---      ---       #296
      ---         BLOCKEND  ---      ---       LVL=0

      00FF7C46H   BLOCK     CODE     ---       LVL=0
      00FF7C46H   LINE      ---      ---       #299
      00FF7C46H   LINE      ---      ---       #301
      00FF7C59H   LINE      ---      ---       #305
      00FF7C59H   LINE      ---      ---       #310
      00FF7C5EH   LINE      ---      ---       #315
      00FF7C5EH   LINE      ---      ---       #318
      00FF7C5EH   LINE      ---      ---       #320
      00FF7C6EH   LINE      ---      ---       #322
      00FF7C6EH   LINE      ---      ---       #324
      00FF7C70H   LINE      ---      ---       #325
      ---         BLOCKEND  ---      ---       LVL=0

      00FFAFBDH   BLOCK     CODE     ---       LVL=0
      00FFAFC1H   LINE      ---      ---       #328
      00FFAFC1H   LINE      ---      ---       #330
      00FFAFCDH   LINE      ---      ---       #332
      00FFAFCDH   LINE      ---      ---       #334
      00FFAFD9H   LINE      ---      ---       #335
      00FFAFDBH   LINE      ---      ---       #336
      00FFAFDBH   LINE      ---      ---       #337
      00FFAFDBH   LINE      ---      ---       #338
      00FFAFDBH   LINE      ---      ---       #339
      00FFAFDDH   LINE      ---      ---       #340
      00FFAFDDH   LINE      ---      ---       #342
      00FFAFE9H   LINE      ---      ---       #343
      00FFAFEEH   LINE      ---      ---       #344
      00FFAFFAH   LINE      ---      ---       #345
      00FFB003H   LINE      ---      ---       #346
      00FFB00BH   LINE      ---      ---       #347
      00FFB00CH   LINE      ---      ---       #348
      00FFB00CH   LINE      ---      ---       #350
      00FFB018H   LINE      ---      ---       #351
      00FFB01AH   LINE      ---      ---       #352
      00FFB01AH   LINE      ---      ---       #353
      00FFB01CH   LINE      ---      ---       #354
      00FFB01CH   LINE      ---      ---       #356
      00FFB028H   LINE      ---      ---       #357
      00FFB02DH   LINE      ---      ---       #358
L251 LINKER/LOCATER V4.66.93.0                                                        12/18/2023  14:21:09  PAGE 180


      00FFB039H   LINE      ---      ---       #359
      00FFB039H   LINE      ---      ---       #360
      00FFB039H   LINE      ---      ---       #361
      00FFAFBDH   SYMBOL    CODE     NEAR LAB  ?L?COM0049
      WR6         REGSYM    ---      INT       type
      ---         BLOCKEND  ---      ---       LVL=0

      00FFB03AH   BLOCK     CODE     ---       LVL=0
      00FFB03AH   LINE      ---      ---       #363
      00FFB040H   LINE      ---      ---       #368
      WR14        REGSYM    ---      WORD      ifs
      WR4         REGSYM    ---      INT       txBw
      R3          REGSYM    ---      BYTE      bEndTimer
      00FFB040H   BLOCK     CODE     NEAR LAB  LVL=1
      00FFB040H   LINE      ---      ---       #371
      00FFB044H   LINE      ---      ---       #372
      00FFB055H   LINE      ---      ---       #374
      00FFB06FH   LINE      ---      ---       #376
      00FFB083H   LINE      ---      ---       #377
      00FFB097H   LINE      ---      ---       #379
      R13         REGSYM    ---      BYTE      txTailDelay
      ---         BLOCKEND  CODE     ---       LVL=1
      00FFB099H   LINE      ---      ---       #380
      00FFB099H   LINE      CODE     ---       #380

      00FFB0C6H   BLOCK     CODE     ---       LVL=0
      00FFB0C6H   LINE      ---      ---       #383
      00FFB0CCH   LINE      ---      ---       #388
      WR14        REGSYM    ---      WORD      ifs
      WR4         REGSYM    ---      INT       txBw
      R3          REGSYM    ---      BYTE      bEndTimer
      00FFB0CCH   BLOCK     CODE     NEAR LAB  LVL=1
      00FFB0CCH   LINE      ---      ---       #391
      00FFB0D0H   LINE      ---      ---       #392
      00FFB0E1H   LINE      ---      ---       #394
      00FFB0FBH   LINE      ---      ---       #396
      00FFB10FH   LINE      ---      ---       #397
      00FFB123H   LINE      ---      ---       #399
      R13         REGSYM    ---      BYTE      txTailDelay
      ---         BLOCKEND  CODE     ---       LVL=1
      00FFB125H   LINE      ---      ---       #400
      00FFB125H   LINE      CODE     ---       #400

      00FFB128H   BLOCK     CODE     ---       LVL=0
      00FFB128H   LINE      ---      ---       #402
      WR14        REGSYM    ---      WORD      ifs
      WR4         REGSYM    ---      INT       rxBw
      00FFB12AH   BLOCK     CODE     NEAR LAB  LVL=1
      00FFB12EH   LINE      ---      ---       #409
      00FFB142H   LINE      ---      ---       #410
      00FFB158H   LINE      ---      ---       #412
      R10         REGSYM    ---      BYTE      rxTailDelay
      ---         BLOCKEND  CODE     ---       LVL=1
      00FFB15AH   LINE      ---      ---       #413
      00FFB15AH   LINE      CODE     ---       #413

      00FFB1AAH   BLOCK     CODE     ---       LVL=0
      00FFB1AAH   LINE      ---      ---       #415
      WR14        REGSYM    ---      WORD      ifs
      WR4         REGSYM    ---      INT       rxBw
      00FFB1ACH   BLOCK     CODE     NEAR LAB  LVL=1
      00FFB1B0H   LINE      ---      ---       #422
      00FFB1C4H   LINE      ---      ---       #423
      00FFB1DAH   LINE      ---      ---       #425
      R10         REGSYM    ---      BYTE      rxTailDelay
L251 LINKER/LOCATER V4.66.93.0                                                        12/18/2023  14:21:09  PAGE 181


      ---         BLOCKEND  CODE     ---       LVL=1
      00FFB1DCH   LINE      ---      ---       #426
      00FFB1DCH   LINE      CODE     ---       #426

      ---         MODULE    ---      ---       hal_para
      00FF082BH   PUBLIC    HCONST   ---       phyTabBpFir15Tap
      00FF0833H   PUBLIC    HCONST   ---       phyTabBpFir31Tap
      00FF0843H   PUBLIC    HCONST   ---       phyTabIfMap
      00FF084BH   PUBLIC    HCONST   ---       phyTabIfMapDclk
      00FF0851H   PUBLIC    HCONST   ---       sHalHwPara
      00FF08CAH   PUBLIC    HCONST   ---       sHalHwTab

      ---         MODULE    ---      ---       hal_phy
      00FFB1DFH   PUBLIC    CODE     ---       HALPHY_DfeSet
      00FFB258H   PUBLIC    CODE     ---       HALPHY_ParaSet
      00FF33BAH   PUBLIC    CODE     ---       HALPHY_GaussianFiltSet
      00FFB402H   PUBLIC    CODE     ---       HALPHY_RxDisable
      00FFB41CH   PUBLIC    CODE     ---       HALPHY_RxEnable
      00FFB4C9H   PUBLIC    CODE     ---       HALPHY_TxEnable
      00FF31C8H   PUBLIC    CODE     ---       HALPHY_PreamNumSet
      00FFB69DH   PUBLIC    CODE     ---       HALPHY_TxBwSet
      00FFB95AH   PUBLIC    CODE     ---       HALPHY_RxBwSet
      00FFBDE4H   PUBLIC    CODE     ---       HALPHY_InputPwrGet
      00FFBD23H   PUBLIC    CODE     ---       HALPHY_BleRxParaSet
      00FFBDA9H   PUBLIC    CODE     ---       HALPHY_FskRxParaSet
      00FFBD88H   PUBLIC    CODE     ---       HALPHY_ModIdxSet

      00FFBD23H   BLOCK     CODE     ---       LVL=0
      00FFBD23H   LINE      ---      ---       #25
      00FFBD2BH   LINE      ---      ---       #34
      00FFBD3EH   LINE      ---      ---       #35
      00FFBD51H   LINE      ---      ---       #36
      00FFBD59H   LINE      ---      ---       #37
      00FFBD64H   LINE      ---      ---       #38
      00FFBD6BH   LINE      ---      ---       #39
      00FFBD76H   LINE      ---      ---       #40
      R11         REGSYM    ---      BYTE      detectionOffset
      R8          REGSYM    ---      BYTE      rxPreamBase
      R9          REGSYM    ---      BYTE      syncBitTh
      WR2         REGSYM    ---      WORD      syncCorrTh
      R10         REGSYM    ---      BYTE      trackBitTh
      WR0         REGSYM    ---      WORD      trackCorrTh
      ---         BLOCKEND  ---      ---       LVL=0

      00FFBDA9H   BLOCK     CODE     ---       LVL=0
      00FFBDA9H   LINE      ---      ---       #44
      00FFBDABH   LINE      ---      ---       #50
      00FFBDBFH   LINE      ---      ---       #51
      00FFBDD5H   LINE      ---      ---       #52
      R2          REGSYM    ---      BYTE      trackKp
      R3          REGSYM    ---      BYTE      trackKq
      R6          REGSYM    ---      BYTE      cfoEstAlphaIdx
      ---         BLOCKEND  ---      ---       LVL=0

      00FFB1DFH   BLOCK     CODE     ---       LVL=0
      00FFB1DFH   LINE      ---      ---       #59
      00FFB1DFH   LINE      ---      ---       #61
      00FFB1F2H   LINE      ---      ---       #65
      00FFB1F2H   LINE      ---      ---       #68
      00FFB1F2H   LINE      ---      ---       #71
      00FFB205H   LINE      ---      ---       #73
      00FFB20DH   LINE      ---      ---       #74
      00FFB20FH   LINE      ---      ---       #78
      00FFB20FH   LINE      ---      ---       #81
      00FFB215H   LINE      ---      ---       #83
L251 LINKER/LOCATER V4.66.93.0                                                        12/18/2023  14:21:09  PAGE 182


      00FFB21DH   LINE      ---      ---       #84
      00FFB21FH   LINE      ---      ---       #88
      00FFB232H   LINE      ---      ---       #89
      00FFB232H   LINE      ---      ---       #91
      00FFB245H   LINE      ---      ---       #92
      00FFB245H   LINE      ---      ---       #103
      00FFB245H   LINE      ---      ---       #107
      ---         BLOCKEND  ---      ---       LVL=0

      00FFB258H   BLOCK     CODE     ---       LVL=0
      00FFB258H   LINE      ---      ---       #111
      00FFB258H   LINE      ---      ---       #114
      00FFB26FH   LINE      ---      ---       #117
      00FFB26FH   LINE      ---      ---       #121
      00FFB28BH   LINE      ---      ---       #122
      00FFB29EH   LINE      ---      ---       #123
      00FFB2B1H   LINE      ---      ---       #124
      00FFB2C4H   LINE      ---      ---       #125
      00FFB2D9H   LINE      ---      ---       #128
      00FFB2DBH   LINE      ---      ---       #132
      00FFB2DBH   LINE      ---      ---       #133
      00FFB2F5H   LINE      ---      ---       #134
      00FFB308H   LINE      ---      ---       #135
      00FFB30AH   LINE      ---      ---       #139
      00FFB30AH   LINE      ---      ---       #140
      00FFB324H   LINE      ---      ---       #141
      00FFB32FH   LINE      ---      ---       #142
      00FFB33BH   LINE      ---      ---       #143
      00FFB352H   LINE      ---      ---       #144
      00FFB365H   LINE      ---      ---       #145
      00FFB370H   LINE      ---      ---       #146
      00FFB38BH   LINE      ---      ---       #148
      00FFB391H   LINE      ---      ---       #150
      00FFB3A4H   LINE      ---      ---       #151
      00FFB3AFH   LINE      ---      ---       #152
      00FFB3B3H   LINE      ---      ---       #153
      00FFB3B5H   LINE      ---      ---       #157
      00FFB3C8H   LINE      ---      ---       #158
      00FFB3D3H   LINE      ---      ---       #159
      00FFB3EBH   LINE      ---      ---       #160
      00FFB3EBH   LINE      ---      ---       #161
      00FFB401H   LINE      ---      ---       #162
      00FFB401H   LINE      ---      ---       #177
      00FFB401H   LINE      ---      ---       #178
      00FFB401H   LINE      ---      ---       #179
      00FFB401H   LINE      ---      ---       #180
      ---         BLOCKEND  ---      ---       LVL=0

      00FF33BAH   BLOCK     CODE     ---       LVL=0
      00FF33BAH   LINE      ---      ---       #182
      00FF33BAH   LINE      ---      ---       #186
      WR6         REGSYM    ---      INT       type
      ---         BLOCKEND  ---      ---       LVL=0

      00FFB402H   BLOCK     CODE     ---       LVL=0
      00FFB402H   LINE      ---      ---       #285
      00FFB402H   LINE      ---      ---       #288
      00FFB40BH   LINE      ---      ---       #291
      00FFB413H   LINE      ---      ---       #292
      00FFB41BH   LINE      ---      ---       #293
      ---         BLOCKEND  ---      ---       LVL=0

      00FFB41CH   BLOCK     CODE     ---       LVL=0
      00FFB41CH   LINE      ---      ---       #295
      00FFB41CH   LINE      ---      ---       #308
L251 LINKER/LOCATER V4.66.93.0                                                        12/18/2023  14:21:09  PAGE 183


      00FFB42BH   LINE      ---      ---       #314
      00FFB437H   LINE      ---      ---       #315
      00FFB443H   LINE      ---      ---       #317
      00FFB448H   LINE      ---      ---       #318
      00FFB454H   LINE      ---      ---       #322
      ---         BLOCKEND  ---      ---       LVL=0

      00FFB4C9H   BLOCK     CODE     ---       LVL=0
      00FFB4C9H   LINE      ---      ---       #328
      00FFB4CBH   LINE      ---      ---       #329
      00FFB4CBH   BLOCK     CODE     NEAR LAB  LVL=1
      00FFB4CBH   LINE      ---      ---       #330
      00FFB4D3H   LINE      ---      ---       #332
      00FFB4D7H   LINE      ---      ---       #347
      00FFB4E4H   LINE      ---      ---       #348
      00FFB504H   LINE      ---      ---       #354
      00FFB51AH   LINE      ---      ---       #355
      REG=7       REGSYM    ---      ---       pPllCfg
      WR12        REGSYM    ---      INT       modIdx
      00FFB51AH   BLOCK     CODE     NEAR LAB  LVL=2
      00FFB51AH   LINE      ---      ---       #356
      00FFB521H   LINE      ---      ---       #357
      00FFB525H   LINE      ---      ---       #360
      00FFB555H   LINE      ---      ---       #361
      00FFB571H   LINE      ---      ---       #362
      00FFB5A2H   LINE      ---      ---       #363
      00FFB5CEH   LINE      ---      ---       #364
      00FFB5D8H   LINE      ---      ---       #367
      00FFB5E1H   LINE      ---      ---       #368
      00FFB5EDH   LINE      ---      ---       #369
      00FFB5EFH   LINE      ---      ---       #373
      00FFB631H   LINE      ---      ---       #374
      00FFB666H   LINE      ---      ---       #375
      00FFB666H   LINE      ---      ---       #377
      00FFB66AH   LINE      ---      ---       #382
      00FFB676H   LINE      ---      ---       #383
      00FFB682H   LINE      ---      ---       #385
      00FFB687H   LINE      ---      ---       #386
      WR2         REGSYM    ---      INT       dataBwIdx
      WR30        REGSYM    ---      INT       subgBand
      ---         BLOCKEND  CODE     ---       LVL=2
      00FFB693H   LINE      ---      ---       #387
      00FFB693H   LINE      ---      ---       #392
      00FFB697H   LINE      ---      ---       #396
      00FFB69AH   LINE      ---      ---       #400
      00FFB69AH   LINE      CODE     ---       #400
      ---         BLOCKEND  CODE     ---       LVL=0

      00FFBD88H   BLOCK     CODE     ---       LVL=0
      00FFBD88H   LINE      ---      ---       #404
      00FFBD88H   LINE      ---      ---       #409
      00FFBD8CH   LINE      ---      ---       #418
      00FFBD94H   LINE      ---      ---       #419
      00FFBD96H   LINE      ---      ---       #429
      WR6         REGSYM    ---      INT       modIdx
      ---         BLOCKEND  ---      ---       LVL=0

      00FF31C8H   BLOCK     CODE     ---       LVL=0
      00FF31C8H   LINE      ---      ---       #435
      00FF31C8H   LINE      ---      ---       #439
      R7          REGSYM    ---      BYTE      preambleNum
      ---         BLOCKEND  ---      ---       LVL=0

      00FFB69DH   BLOCK     CODE     ---       LVL=0
      00FFB69DH   LINE      ---      ---       #443
L251 LINKER/LOCATER V4.66.93.0                                                        12/18/2023  14:21:09  PAGE 184


      00FFB6A5H   LINE      ---      ---       #449
      WR30        REGSYM    ---      INT       dataBw
      WR8         REGSYM    ---      INT       modIdx
      WR28        REGSYM    ---      INT       codingType
      R11         REGSYM    ---      BYTE      bAutoCfg
      00FFB6A5H   BLOCK     CODE     NEAR LAB  LVL=1
      00FFB6A5H   LINE      ---      ---       #454
      00FFB6B7H   LINE      ---      ---       #456
      00FFB6BDH   LINE      ---      ---       #474
      00FFB6C1H   LINE      ---      ---       #476
      00FFB6D8H   LINE      ---      ---       #479
      00FFB6D8H   LINE      ---      ---       #488
      00FFB6DEH   LINE      ---      ---       #489
      00FFB6E8H   LINE      ---      ---       #492
      00FFB6F7H   LINE      ---      ---       #494
      00FFB6F9H   LINE      ---      ---       #498
      00FFB6F9H   LINE      ---      ---       #501
      00FFB6FFH   LINE      ---      ---       #502
      00FFB709H   LINE      ---      ---       #506
      00FFB714H   LINE      ---      ---       #509
      00FFB714H   LINE      ---      ---       #514
      00FFB724H   LINE      ---      ---       #516
      00FFB726H   LINE      ---      ---       #520
      00FFB726H   LINE      ---      ---       #525
      00FFB736H   LINE      ---      ---       #527
      00FFB738H   LINE      ---      ---       #529
      00FFB738H   LINE      ---      ---       #530
      00FFB738H   LINE      ---      ---       #531
      00FFB738H   LINE      ---      ---       #535
      00FFB738H   LINE      ---      ---       #537
      00FFB743H   LINE      ---      ---       #540
      00FFB743H   LINE      ---      ---       #545
      00FFB753H   LINE      ---      ---       #547
      00FFB755H   LINE      ---      ---       #551
      00FFB755H   LINE      ---      ---       #556
      00FFB777H   LINE      ---      ---       #558
      00FFB777H   LINE      ---      ---       #560
      00FFB777H   LINE      ---      ---       #561
      00FFB777H   LINE      ---      ---       #574
      00FFB777H   LINE      ---      ---       #580
      00FFB777H   LINE      ---      ---       #583
      00FFB78DH   LINE      ---      ---       #587
      00FFB78DH   LINE      ---      ---       #590
      00FFB78DH   LINE      ---      ---       #593
      00FFB78DH   LINE      ---      ---       #596
      00FFB794H   LINE      ---      ---       #598
      00FFB79CH   LINE      ---      ---       #600
      00FFB7A4H   LINE      ---      ---       #603
      00FFB7C6H   LINE      ---      ---       #605
      00FFB7E2H   LINE      ---      ---       #611
      00FFB7ECH   LINE      ---      ---       #613
      00FFB7ECH   LINE      ---      ---       #615
      00FFB7ECH   LINE      ---      ---       #618
      00FFB7EEH   LINE      ---      ---       #630
      00FFB813H   LINE      ---      ---       #631
      00FFB82CH   LINE      ---      ---       #634
      00FFB852H   LINE      ---      ---       #636
      00FFB85AH   LINE      ---      ---       #642
      00FFB85CH   LINE      ---      ---       #645
      00FFB85CH   LINE      ---      ---       #648
      00FFB86CH   LINE      ---      ---       #660
      00FFB89CH   LINE      ---      ---       #661
      00FFB8B5H   LINE      ---      ---       #664
      00FFB8DCH   LINE      ---      ---       #666
      00FFB8E5H   LINE      ---      ---       #671
L251 LINKER/LOCATER V4.66.93.0                                                        12/18/2023  14:21:09  PAGE 185


      00FFB8E5H   LINE      ---      ---       #673
      00FFB8E5H   LINE      ---      ---       #677
      00FFB907H   LINE      ---      ---       #678
      00FFB91EH   LINE      ---      ---       #680
      00FFB92CH   LINE      ---      ---       #683
      00FFB932H   LINE      ---      ---       #684
      00FFB93CH   LINE      ---      ---       #686
      00FFB94FH   LINE      ---      ---       #691
      00FFB94FH   LINE      ---      ---       #717
      00FFB94FH   LINE      ---      ---       #721
      00FFB957H   LINE      ---      ---       #728
      WR12        REGSYM    ---      INT       dataBwEff
      WR14        REGSYM    ---      INT       dataBwIdx
      WR6         REGSYM    ---      INT       dataBwIdxDclk
      ---         BLOCKEND  CODE     ---       LVL=1
      00FFB957H   LINE      ---      ---       #729
      00FFB957H   LINE      CODE     ---       #729

      00FFB95AH   BLOCK     CODE     ---       LVL=0
      00FFB95AH   LINE      ---      ---       #731
      00FFB968H   LINE      ---      ---       #737
      WR14        REGSYM    ---      INT       dataBw
      0000B54DH   SYMBOL    EDATA    INT       modIdx
      WR12        REGSYM    ---      INT       codingType
      0000B54FH   SYMBOL    EDATA    BYTE      bAutoCfg
      00FFB968H   BLOCK     CODE     NEAR LAB  LVL=1
      00FFB968H   LINE      ---      ---       #742
      00FFB97EH   LINE      ---      ---       #744
      00FFB988H   LINE      ---      ---       #768
      00FFB9A1H   LINE      ---      ---       #772
      00FFB9A1H   LINE      ---      ---       #775
      00FFB9B3H   LINE      ---      ---       #781
      00FFB9B9H   LINE      ---      ---       #783
      00FFB9D7H   LINE      ---      ---       #786
      00FFB9E0H   LINE      ---      ---       #787
      00FFB9E2H   LINE      ---      ---       #791
      00FFB9E8H   LINE      ---      ---       #793
      00FFBA04H   LINE      ---      ---       #796
      00FFBA06H   LINE      ---      ---       #799
      00FFBA24H   LINE      ---      ---       #802
      00FFBA24H   LINE      ---      ---       #803
      00FFBA30H   LINE      ---      ---       #804
      00FFBA30H   LINE      ---      ---       #808
      00FFBA30H   LINE      ---      ---       #811
      00FFBA30H   LINE      ---      ---       #815
      00FFBA3FH   LINE      ---      ---       #817
      00FFBA4FH   LINE      ---      ---       #819
      00FFBA51H   LINE      ---      ---       #832
      00FFBA6DH   LINE      ---      ---       #835
      00FFBA6DH   LINE      ---      ---       #839
      00FFBA73H   LINE      ---      ---       #840
      00FFBA7DH   LINE      ---      ---       #842
      00FFBA8FH   LINE      ---      ---       #846
      00FFBA95H   LINE      ---      ---       #850
      00FFBAAEH   LINE      ---      ---       #852
      00FFBABCH   LINE      ---      ---       #854
      00FFBAC5H   LINE      ---      ---       #859
      00FFBACBH   LINE      ---      ---       #860
      00FFBAD5H   LINE      ---      ---       #862
      00FFBAE8H   LINE      ---      ---       #890
      00FFBB0CH   LINE      ---      ---       #892
      00FFBB0CH   LINE      ---      ---       #895
      00FFBB18H   LINE      ---      ---       #897
      00FFBB24H   LINE      ---      ---       #899
      00FFBB30H   LINE      ---      ---       #902
L251 LINKER/LOCATER V4.66.93.0                                                        12/18/2023  14:21:09  PAGE 186


      00FFBB3FH   LINE      ---      ---       #905
      00FFBB3FH   LINE      ---      ---       #908
      00FFBB68H   LINE      ---      ---       #909
      00FFBB7EH   LINE      ---      ---       #912
      00FFBBA2H   LINE      ---      ---       #913
      00FFBBBBH   LINE      ---      ---       #915
      00FFBBDFH   LINE      ---      ---       #917
      00FFBBF5H   LINE      ---      ---       #918
      00FFBC03H   LINE      ---      ---       #931
      00FFBC0FH   LINE      ---      ---       #932
      00FFBC11H   LINE      ---      ---       #936
      00FFBC11H   LINE      ---      ---       #939
      00FFBC3AH   LINE      ---      ---       #940
      00FFBC50H   LINE      ---      ---       #943
      00FFBC74H   LINE      ---      ---       #944
      00FFBC8DH   LINE      ---      ---       #946
      00FFBCB1H   LINE      ---      ---       #948
      00FFBCC7H   LINE      ---      ---       #949
      00FFBCD5H   LINE      ---      ---       #965
      00FFBCE2H   LINE      ---      ---       #966
      00FFBCE2H   LINE      ---      ---       #968
      00FFBCE2H   LINE      ---      ---       #971
      00FFBCF4H   LINE      ---      ---       #977
      00FFBD0DH   LINE      ---      ---       #981
      00FFBD0DH   LINE      ---      ---       #1014
      00FFBD0DH   LINE      ---      ---       #1015
      00FFBD0DH   LINE      ---      ---       #1016
      00FFBD0DH   LINE      ---      ---       #1020
      00FFBD1AH   LINE      ---      ---       #1021
      00FFBD20H   LINE      ---      ---       #1030
      WR6         REGSYM    ---      INT       dataBwEff
      0000B550H   SYMBOL    EDATA    INT       dataBwIdx
      0000B552H   SYMBOL    EDATA    INT       dataBwIdxDclk
      ---         BLOCKEND  CODE     ---       LVL=1
      00FFBD20H   LINE      ---      ---       #1031
      00FFBD20H   LINE      CODE     ---       #1031

      00FFBDE4H   BLOCK     CODE     ---       LVL=0
      00FFBDE4H   LINE      ---      ---       #1033
      00FFBDECH   LINE      ---      ---       #1039
      R15         REGSYM    ---      BYTE      LNAGainIndex
      R8          REGSYM    ---      BYTE      TIAGainindex
      R9          REGSYM    ---      BYTE      VGAGainindex
      R10         REGSYM    ---      CHAR      RSSIvalue
      00FFBDECH   BLOCK     CODE     NEAR LAB  LVL=1
      00FFBDECH   LINE      ---      ---       #1041
      00FFBDF0H   LINE      ---      ---       #1042
      00FFBDF9H   LINE      ---      ---       #1053
      00FFBE38H   LINE      ---      ---       #1057
      00FFBE3EH   LINE      ---      ---       #1058
      00FFBE44H   LINE      ---      ---       #1060
      00FFBE58H   LINE      ---      ---       #1061
      00FFBE68H   LINE      ---      ---       #1062
      00FFBE6AH   LINE      ---      ---       #1066
      WR6         REGSYM    ---      INT       RSSIvalueTemp
      R5          REGSYM    ---      BYTE      rfkBand
      REG=1       REGSYM    ---      ---       pRssiCtrl
      ---         BLOCKEND  CODE     ---       LVL=1
      00FFBE6CH   LINE      ---      ---       #1067
      00FFBE6CH   LINE      CODE     ---       #1067
      00FFB69AH   LINE      ---      ---       #401

      ---         MODULE    ---      ---       hal_pkt
      00FF2563H   PUBLIC    CODE     ---       HALPKT_TxqDoneSet
      00FF28B0H   PUBLIC    CODE     ---       HALPKT_RxqDoneSet
L251 LINKER/LOCATER V4.66.93.0                                                        12/18/2023  14:21:09  PAGE 187


      00FF6AD2H   PUBLIC    CODE     ---       HALPKT_PhyStatusGet

      00FF255AH   BLOCK     CODE     ---       LVL=0
      00FF2563H   LINE      ---      ---       #23
      00FF256BH   LINE      ---      ---       #31
      00FF2577H   LINE      ---      ---       #34
      00FF2581H   LINE      ---      ---       #35
      00FF2585H   LINE      ---      ---       #38
      00FF258DH   LINE      ---      ---       #40
      00FF2596H   LINE      ---      ---       #41
      00FF2599H   LINE      ---      ---       #42
      00FF2599H   LINE      ---      ---       #44
      00FF259DH   LINE      ---      ---       #47
      00FF25A2H   LINE      ---      ---       #48
      00FF25A2H   LINE      ---      ---       #50
      00FF25A4H   LINE      ---      ---       #51
      00FF255AH   SYMBOL    CODE     NEAR LAB  ?L?COM0002
      R14         REGSYM    ---      BYTE      bLocalTxQueue
      R15         REGSYM    ---      BYTE      txQueueId
      R10         REGSYM    ---      BYTE      txPktId
      WR4         REGSYM    ---      INT       txProcess
      ---         BLOCKEND  ---      ---       LVL=0

      00FF28AAH   BLOCK     CODE     ---       LVL=0
      00FF28B0H   LINE      ---      ---       #53
      00FF28B4H   LINE      ---      ---       #59
      00FF28C0H   LINE      ---      ---       #62
      00FF28CEH   LINE      ---      ---       #63
      00FF28D1H   LINE      ---      ---       #66
      00FF28DDH   LINE      ---      ---       #68
      00FF28DDH   LINE      ---      ---       #69
      00FF28DFH   LINE      ---      ---       #70
      00FF28E1H   LINE      ---      ---       #72
      00FF28E1H   LINE      ---      ---       #73
      00FF28EBH   LINE      ---      ---       #74
      00FF28EDH   LINE      ---      ---       #76
      00FF28EFH   LINE      ---      ---       #77
      00FF28F1H   LINE      ---      ---       #79
      00FF28F1H   LINE      ---      ---       #80
      00FF28FAH   LINE      ---      ---       #81
      00FF28FCH   LINE      ---      ---       #83
      00FF28FCH   LINE      ---      ---       #84
      00FF28FEH   LINE      ---      ---       #85
      00FF28FEH   LINE      ---      ---       #87
      00FF2900H   LINE      ---      ---       #88
      00FF28AAH   SYMBOL    CODE     NEAR LAB  ?L?COM0013
      R10         REGSYM    ---      BYTE      bLocalRxQueue
      WR4         REGSYM    ---      INT       rxProcess
      ---         BLOCKEND  ---      ---       LVL=0

      00FF6ACDH   BLOCK     CODE     ---       LVL=0
      00FF6AD2H   LINE      ---      ---       #91
      00FF6AD8H   LINE      ---      ---       #95
      00FF6ACDH   SYMBOL    CODE     NEAR LAB  ?L?COM0034
      R1          REGSYM    ---      BYTE      bLocalRxQueue
      REG=1       REGSYM    ---      ---       pRxPhyStatus
      00FF6AD8H   BLOCK     CODE     NEAR LAB  LVL=1
      00FF6AD8H   LINE      ---      ---       #100
      00FF6AE5H   LINE      ---      ---       #101
      00FF6AE9H   LINE      ---      ---       #103
      00FF6AEDH   LINE      ---      ---       #104
      00FF6AF7H   LINE      ---      ---       #106
      00FF6AFFH   LINE      ---      ---       #112
      WR4         REGSYM    ---      WORD      rxPktLength
      R15         REGSYM    ---      BYTE      retValue
L251 LINKER/LOCATER V4.66.93.0                                                        12/18/2023  14:21:09  PAGE 188


      WR4         REGSYM    ---      WORD      offset
      ---         BLOCKEND  CODE     ---       LVL=1
      00FF6B01H   LINE      ---      ---       #113
      00FF6B01H   LINE      CODE     ---       #113

      ---         MODULE    ---      ---       hal_rf
      00FFBE6FH   PUBLIC    CODE     ---       HALRF_AgcSet
      00FFAD7BH   PUBLIC    CODE     ---       HALRF_TxPwrSet
      00FFBE82H   PUBLIC    CODE     ---       HALRF_TxPwrCompChUpdat
      00FF4EE1H   PUBLIC    CODE     ---       HALRF_TxPwrCompSet
      00FF4F74H   PUBLIC    CODE     ---       HALRF_TxPwrChCompSet
      00FFBF97H   PUBLIC    CODE     ---       HALRF_TxPwrChSegSet
      00FFAE2AH   PUBLIC    CODE     ---       HALRF_TxPwrRptGet
      00FFBFB7H   PUBLIC    CODE     ---       HALRF_TemperatureRptGet
      00FFBFCEH   PUBLIC    CODE     ---       HALRF_VoltageRptGet
      00FFBFE5H   PUBLIC    CODE     ---       HALRF_RssiOffsetSet
      00FFA6DCH   PUBLIC    CODE     ---       HALRF_AllPathDisable
      00FF4F04H   PUBLIC    CODE     ---       HALRF_TxPwrCompUpdate
      0000B5E4H   PUBLIC    EDATA    ---       txPwrCtrlArray

      00FFBE6FH   BLOCK     CODE     ---       LVL=0
      00FFBE6FH   LINE      ---      ---       #32
      00FFBE6FH   LINE      ---      ---       #40
      00FFBE73H   LINE      ---      ---       #41
      00FFBE77H   LINE      ---      ---       #42
      00FFBE7BH   LINE      ---      ---       #43
      00FFBE7FH   LINE      ---      ---       #46
      WR6         REGSYM    ---      INT       type
      R3          REGSYM    ---      BYTE      lnaGain
      R5          REGSYM    ---      BYTE      tiaGain
      R4          REGSYM    ---      BYTE      vgaGain
      ---         BLOCKEND  ---      ---       LVL=0

      00FFAD7BH   BLOCK     CODE     ---       LVL=0
      00FFAD7BH   LINE      ---      ---       #50
      00FFAD85H   LINE      ---      ---       #56
      WR30        REGSYM    ---      INT       rfkBand
      WR8         REGSYM    ---      INT       modem
      R15         REGSYM    ---      BYTE      gainTab
      R10         REGSYM    ---      BYTE      offset
      00FFAD85H   BLOCK     CODE     NEAR LAB  LVL=1
      00FFAD85H   LINE      ---      ---       #58
      00FFAD93H   LINE      ---      ---       #60
      00FFAD9BH   LINE      ---      ---       #62
      00FFAD9FH   LINE      ---      ---       #63
      00FFADA3H   LINE      ---      ---       #69
      00FFADB7H   LINE      ---      ---       #71
      00FFADB9H   LINE      ---      ---       #72
      REG=14      REGSYM    ---      ---       pTxPwrCtrl
      ---         BLOCKEND  CODE     ---       LVL=1
      ---         BLOCKEND  CODE     ---       LVL=0

      00FFBE82H   BLOCK     CODE     ---       LVL=0
      00FFBE82H   LINE      ---      ---       #77
      00FFBE84H   LINE      ---      ---       #80
      DR28        REGSYM    ---      DWORD     freq
      00FFBE84H   BLOCK     CODE     NEAR LAB  LVL=1
      00FFBE84H   LINE      ---      ---       #84
      00FFBE86H   LINE      ---      ---       #86
      00FFBE86H   LINE      ---      ---       #88
      00FFBE92H   LINE      ---      ---       #89
      00FFBE9CH   LINE      ---      ---       #91
      00FFBEA4H   LINE      ---      ---       #93
      00FFBEA6H   LINE      ---      ---       #95
      00FFBEBDH   LINE      ---      ---       #96
L251 LINKER/LOCATER V4.66.93.0                                                        12/18/2023  14:21:09  PAGE 189


      00FFBEBDH   LINE      ---      ---       #97
      00FFBEC4H   LINE      ---      ---       #99
      00FFBECCH   LINE      ---      ---       #100
      00FFBECEH   LINE      ---      ---       #101
      REG=6       REGSYM    ---      ---       pChSeg
      R6          REGSYM    ---      BYTE      segIdx
      R7          REGSYM    ---      BYTE      updateIdx
      ---         BLOCKEND  CODE     ---       LVL=1
      00FFBED3H   LINE      ---      ---       #103
      00FFBED3H   LINE      CODE     ---       #103

      00FF4F04H   BLOCK     CODE     ---       LVL=0
      00FF4F04H   LINE      ---      ---       #105
      00FF4F06H   LINE      ---      ---       #108
      R6          REGSYM    ---      BYTE      modemType
      00FF4F06H   BLOCK     CODE     NEAR LAB  LVL=1
      00FF4F06H   LINE      ---      ---       #113
      00FF4F0FH   LINE      ---      ---       #116
      00FF4F11H   LINE      ---      ---       #118
      00FF4F17H   LINE      ---      ---       #119
      00FF4F1DH   LINE      ---      ---       #120
      00FF4F29H   LINE      ---      ---       #121
      00FF4F2FH   LINE      ---      ---       #122
      00FF4F35H   LINE      ---      ---       #123
      00FF4F3BH   LINE      ---      ---       #124
      00FF4F3FH   LINE      ---      ---       #125
      00FF4F47H   LINE      ---      ---       #126
      R10         REGSYM    ---      BYTE      segIdx
      WR4         REGSYM    ---      INT       tempValue
      REG=3       REGSYM    ---      ---       pTxPwrCtrl
      ---         BLOCKEND  CODE     ---       LVL=1
      00FF4F4EH   LINE      ---      ---       #128
      00FF4F4EH   LINE      CODE     ---       #128

      00FF4EE1H   BLOCK     CODE     ---       LVL=0
      00FF4EE1H   LINE      ---      ---       #130
      00FF4EE3H   LINE      ---      ---       #136
      R1          REGSYM    ---      CHAR      txPwrOffset
      R2          REGSYM    ---      BYTE      txPolyGain
      R3          REGSYM    ---      BYTE      txPaPwPre
      R10         REGSYM    ---      BYTE      modemType
      00FF4EE3H   BLOCK     CODE     NEAR LAB  LVL=1
      00FF4EE3H   LINE      ---      ---       #139
      00FF4EECH   LINE      ---      ---       #142
      00FF4EF4H   LINE      ---      ---       #143
      00FF4EF8H   LINE      ---      ---       #144
      00FF4EFCH   LINE      ---      ---       #145
      00FF4F00H   LINE      ---      ---       #146
      REG=4       REGSYM    ---      ---       pTxPwrCtrl
      ---         BLOCKEND  CODE     ---       LVL=1
      ---         BLOCKEND  CODE     ---       LVL=0

      00FF4F74H   BLOCK     CODE     ---       LVL=0
      00FF4F74H   LINE      ---      ---       #150
      00FF4F7AH   LINE      ---      ---       #154
      REG=2       REGSYM    ---      ---       pTxPwrOffset
      R15         REGSYM    ---      BYTE      modemType
      00FF4F7AH   BLOCK     CODE     NEAR LAB  LVL=1
      00FF4F7AH   LINE      ---      ---       #157
      00FF4F83H   LINE      ---      ---       #160
      00FF4F8BH   LINE      ---      ---       #161
      00FF4F96H   LINE      ---      ---       #162
      REG=3       REGSYM    ---      ---       pTxPwrCtrl
      ---         BLOCKEND  CODE     ---       LVL=1
      00FF4F9AH   LINE      ---      ---       #164
L251 LINKER/LOCATER V4.66.93.0                                                        12/18/2023  14:21:09  PAGE 190


      00FF4F9AH   LINE      CODE     ---       #164

      00FFBF97H   BLOCK     CODE     ---       LVL=0
      00FFBF97H   LINE      ---      ---       #166
      00FFBF99H   LINE      ---      ---       #170
      REG=1       REGSYM    ---      ---       pChSeg
      R5          REGSYM    ---      BYTE      modemType
      00FFBF99H   BLOCK     CODE     NEAR LAB  LVL=1
      00FFBF99H   LINE      ---      ---       #173
      00FFBFA2H   LINE      ---      ---       #176
      00FFBFAAH   LINE      ---      ---       #177
      REG=3       REGSYM    ---      ---       pTxPwrCtrl
      ---         BLOCKEND  CODE     ---       LVL=1
      ---         BLOCKEND  CODE     ---       LVL=0

      00FFAE2AH   BLOCK     CODE     ---       LVL=0
      00FFAE2AH   LINE      ---      ---       #181
      00FFAE30H   LINE      ---      ---       #185
      WR30        REGSYM    ---      INT       rfkBand
      REG=4       REGSYM    ---      ---       pTxPwrRpt
      00FFAE30H   BLOCK     CODE     NEAR LAB  LVL=1
      00FFAE30H   LINE      ---      ---       #191
      00FFAE36H   LINE      ---      ---       #192
      00FFAE44H   LINE      ---      ---       #194
      00FFAE4AH   LINE      ---      ---       #195
      00FFAE50H   LINE      ---      ---       #197
      00FFAE54H   LINE      ---      ---       #200
      00FFAE58H   LINE      ---      ---       #204
      00FFAE5AH   LINE      ---      ---       #206
      00FFAE68H   LINE      ---      ---       #207
      00FFAE6DH   LINE      ---      ---       #208
      00FFAE6FH   LINE      ---      ---       #209
      00FFAE74H   LINE      ---      ---       #210
      00FFAE77H   LINE      ---      ---       #211
      00FFAE7EH   LINE      ---      ---       #212
      00FFAE85H   LINE      ---      ---       #213
      00FFAE87H   LINE      ---      ---       #216
      WR0         REGSYM    ---      INT       modem
      R10         REGSYM    ---      BYTE      segIdx
      R15         REGSYM    ---      CHAR      txPwrIdx
      R7          REGSYM    ---      CHAR      tempVal
      REG=14      REGSYM    ---      ---       pTxPwrCtrl
      ---         BLOCKEND  CODE     ---       LVL=1
      00FFAE92H   LINE      ---      ---       #217
      00FFAE92H   LINE      CODE     ---       #217

      00FFBFE5H   BLOCK     CODE     ---       LVL=0
      00FFBFE5H   LINE      ---      ---       #221
      00FFBFE7H   LINE      ---      ---       #225
      WR6         REGSYM    ---      INT       rfkBand
      R10         REGSYM    ---      BYTE      offset
      00FFBFE7H   BLOCK     CODE     NEAR LAB  LVL=1
      00FFBFE7H   LINE      ---      ---       #227
      00FFBFEFH   LINE      ---      ---       #229
      00FFBFF7H   LINE      ---      ---       #230
      REG=4       REGSYM    ---      ---       pRssiCtrl
      ---         BLOCKEND  CODE     ---       LVL=1
      00FFBFFBH   LINE      ---      ---       #231
      00FFBFFBH   LINE      CODE     ---       #231

      00FFBFB7H   BLOCK     CODE     ---       LVL=0
      00FFBFB7H   LINE      ---      ---       #233
      00FFBFBBH   LINE      ---      ---       #238
      00FFBFC6H   LINE      ---      ---       #239
      00FFBFCDH   LINE      ---      ---       #240
L251 LINKER/LOCATER V4.66.93.0                                                        12/18/2023  14:21:09  PAGE 191


      REG=4       REGSYM    ---      ---       pTimeStamp
      REG=5       REGSYM    ---      ---       pValue
      ---         BLOCKEND  ---      ---       LVL=0

      00FFBFCEH   BLOCK     CODE     ---       LVL=0
      00FFBFCEH   LINE      ---      ---       #242
      00FFBFD2H   LINE      ---      ---       #247
      00FFBFDDH   LINE      ---      ---       #248
      00FFBFE4H   LINE      ---      ---       #249
      REG=4       REGSYM    ---      ---       pTimeStamp
      REG=5       REGSYM    ---      ---       pValue
      ---         BLOCKEND  ---      ---       LVL=0

      00FFA6DCH   BLOCK     CODE     ---       LVL=0
      00FFA6DCH   LINE      ---      ---       #252
      00FFA6DCH   LINE      ---      ---       #254
      00FFA6E8H   LINE      ---      ---       #256
      00FFA6EDH   LINE      ---      ---       #257
      00FFA6F2H   LINE      ---      ---       #258
      00FFA6F7H   LINE      ---      ---       #260
      00FFA703H   LINE      ---      ---       #261
      00FFA708H   LINE      ---      ---       #262
      00FFA70DH   LINE      ---      ---       #268
      ---         BLOCKEND  ---      ---       LVL=0

      ---         MODULE    ---      ---       hal_rfdb

      ---         MODULE    ---      ---       hal_sec
      00FF46E7H   PUBLIC    CODE     ---       HALSEC_AesKeySet
      00FF7FD2H   PUBLIC    CODE     ---       HALSEC_AesKeyOnlySet
      00FF7FC5H   PUBLIC    CODE     ---       HALSEC_NonceOnlySet
      00FFBFFCH   PUBLIC    CODE     ---       HALSEC_AesLevelOnlySet
      00FF3FF0H   PUBLIC    CODE     ---       HALSEC_AesSet
      00FFC026H   PUBLIC    CODE     ---       HALSEC_AesTxSet
      0000B598H   PUBLIC    EDATA    BYTE      ?HALSEC_AesSet?BYTE

      00FF46E7H   BLOCK     CODE     ---       LVL=0
      00FF46E7H   LINE      ---      ---       #23
      00FF46EEH   LINE      ---      ---       #35
      00FF4701H   LINE      ---      ---       #39
      00FF470EH   LINE      ---      ---       #40
      WR2         REGSYM    ---      INT       aesKeyType
      REG=0       REGSYM    ---      ---       pAesKey
      REG=7       REGSYM    ---      ---       pNonce
      ---         BLOCKEND  ---      ---       LVL=0

      00FF7FD2H   BLOCK     CODE     ---       LVL=0
      00FF7FD2H   LINE      ---      ---       #42
      00FF7FD5H   LINE      ---      ---       #53
      WR2         REGSYM    ---      INT       aesKeyType
      REG=0       REGSYM    ---      ---       pAesKey
      ---         BLOCKEND  ---      ---       LVL=0

      00FF7FB9H   BLOCK     CODE     ---       LVL=0
      00FF7FC5H   LINE      ---      ---       #57
      00FF7FC7H   LINE      ---      ---       #63
      00FF7FB9H   SYMBOL    CODE     NEAR LAB  ?L?COM002D
      REG=2       REGSYM    ---      ---       pNonce
      ---         BLOCKEND  ---      ---       LVL=0

      00FFBFFCH   BLOCK     CODE     ---       LVL=0
      00FFBFFCH   LINE      ---      ---       #66
      00FFBFFEH   LINE      ---      ---       #74
      00FFC01AH   LINE      ---      ---       #77
      WR6         REGSYM    ---      INT       aesLevel
L251 LINKER/LOCATER V4.66.93.0                                                        12/18/2023  14:21:09  PAGE 192


      R10         REGSYM    ---      BYTE      bLoopback
      ---         BLOCKEND  ---      ---       LVL=0

      00FF3FF0H   BLOCK     CODE     ---       LVL=0
      00FF3FF0H   LINE      ---      ---       #80
      00FF3FF4H   LINE      ---      ---       #93
      00FF4012H   LINE      ---      ---       #96
      00FF4027H   LINE      ---      ---       #100
      00FF4032H   LINE      ---      ---       #104
      00FF403DH   LINE      ---      ---       #107
      00FF404AH   LINE      ---      ---       #108
      00FF4057H   LINE      ---      ---       #111
      00FF4067H   LINE      ---      ---       #112
      WR6         REGSYM    ---      INT       aesLevel
      WR8         REGSYM    ---      INT       aesMode
      R10         REGSYM    ---      BYTE      bLoopback
      WR2         REGSYM    ---      WORD      aDataLength
      WR0         REGSYM    ---      WORD      mDataLength
      0000B5A1H   SYMBOL    EDATA    WORD      bypassLen0
      0000B5A3H   SYMBOL    EDATA    WORD      bypassLen1
      ---         BLOCKEND  ---      ---       LVL=0

      00FFC026H   BLOCK     CODE     ---       LVL=0
      00FFC026H   LINE      ---      ---       #114
      00FFC02AH   LINE      ---      ---       #121
      00FFC035H   LINE      ---      ---       #125
      00FFC040H   LINE      ---      ---       #126
      WR0         REGSYM    ---      WORD      aDataLength
      WR2         REGSYM    ---      WORD      mDataLength
      ---         BLOCKEND  ---      ---       LVL=0

      ---         MODULE    ---      ---       hal_rfk
      00FF5300H   PUBLIC    CODE     ---       HALRFK_Calibration
      00FFAF22H   PUBLIC    CODE     ---       HALRFK_kValueSet?_
      00FFAE95H   PUBLIC    CODE     ---       HALRFK_kValueSet2Hw
      00FFC041H   PUBLIC    CODE     ---       HALRFK_kValueGet?_

      00FF5300H   BLOCK     CODE     ---       LVL=0
      00FF5300H   LINE      ---      ---       #40
      00FF5302H   LINE      ---      ---       #41
      00FF5302H   BLOCK     CODE     NEAR LAB  LVL=1
      00FF5302H   LINE      ---      ---       #42
      00FF5308H   LINE      ---      ---       #43
      00FF530EH   LINE      ---      ---       #44
      00FF531AH   LINE      ---      ---       #51
      00FF531EH   LINE      ---      ---       #55
      00FF5322H   LINE      ---      ---       #56
      00FF5322H   LINE      ---      ---       #68
      00FF5325H   LINE      ---      ---       #71
      00FF532CH   LINE      ---      ---       #76
      00FF5331H   LINE      ---      ---       #103
      00FF5333H   LINE      ---      ---       #105
      00FF5337H   LINE      ---      ---       #106
      00FF5339H   LINE      ---      ---       #107
      00FF533FH   LINE      ---      ---       #108
      00FF5341H   LINE      ---      ---       #109
      00FF5343H   LINE      ---      ---       #110
      00FF534BH   LINE      ---      ---       #115
      00FF5350H   LINE      ---      ---       #125
      00FF5355H   LINE      ---      ---       #143
      00FF5357H   LINE      ---      ---       #145
      00FF535BH   LINE      ---      ---       #146
      00FF535DH   LINE      ---      ---       #147
      00FF5366H   LINE      ---      ---       #148
      00FF5368H   LINE      ---      ---       #149
L251 LINKER/LOCATER V4.66.93.0                                                        12/18/2023  14:21:09  PAGE 193


      00FF536AH   LINE      ---      ---       #150
      00FF5372H   LINE      ---      ---       #155
      00FF5378H   LINE      ---      ---       #157
      00FF537CH   LINE      ---      ---       #158
      00FF537EH   LINE      ---      ---       #159
      00FF5387H   LINE      ---      ---       #160
      00FF5389H   LINE      ---      ---       #161
      00FF538BH   LINE      ---      ---       #162
      00FF5393H   LINE      ---      ---       #167
      00FF5398H   LINE      ---      ---       #174
      WR14        REGSYM    ---      INT       rfBand
      WR6         REGSYM    ---      INT       rfkBand
      REG=6       REGSYM    ---      ---       pRfkCtrl
      0000B30FH   SYMBOL    EDATA    ---       sHalrfkParaBackup
      ---         BLOCKEND  CODE     ---       LVL=1
      00FF539FH   LINE      ---      ---       #187
      00FF539FH   LINE      CODE     ---       #187

      00FFAF22H   BLOCK     CODE     ---       LVL=0
      00FFAF22H   LINE      ---      ---       #218
      00FFAF28H   LINE      ---      ---       #226
      WR0         REGSYM    ---      INT       rfkBand
      R11         REGSYM    ---      BYTE      status
      R10         REGSYM    ---      BYTE      rxFilt
      REG=1       REGSYM    ---      ---       pTxLo
      FFFFFFFDH   STKSYM    ---      ---       pTxSb
      00FFAF28H   BLOCK     CODE     NEAR LAB  LVL=1
      00FFAF28H   LINE      ---      ---       #227
      00FFAF34H   LINE      ---      ---       #231
      00FFAF37H   LINE      ---      ---       #232
      00FFAF3BH   LINE      ---      ---       #239
      00FFAF3BH   LINE      ---      ---       #241
      00FFAF42H   LINE      ---      ---       #242
      00FFAF4AH   LINE      ---      ---       #243
      00FFAF55H   LINE      ---      ---       #244
      00FFAF61H   LINE      ---      ---       #245
      00FFAF6DH   LINE      ---      ---       #248
      00FFAF77H   LINE      ---      ---       #249
      REG=4       REGSYM    ---      ---       pRfkCtrl
      ---         BLOCKEND  CODE     ---       LVL=1
      00FFAF79H   LINE      ---      ---       #250
      00FFAF79H   LINE      CODE     ---       #250

      00FFAE95H   BLOCK     CODE     ---       LVL=0
      00FFAE95H   LINE      ---      ---       #253
      00FFAE95H   LINE      ---      ---       #254
      00FFAE95H   BLOCK     CODE     NEAR LAB  LVL=1
      00FFAE95H   LINE      ---      ---       #255
      00FFAEA2H   LINE      ---      ---       #258
      00FFAEAAH   LINE      ---      ---       #263
      00FFAEAEH   LINE      ---      ---       #265
      00FFAEB0H   LINE      ---      ---       #271
      00FFAEBBH   LINE      ---      ---       #273
      00FFAEBBH   LINE      ---      ---       #292
      00FFAEC0H   LINE      ---      ---       #294
      00FFAECBH   LINE      ---      ---       #295
      00FFAECFH   LINE      ---      ---       #296
      00FFAED1H   LINE      ---      ---       #299
      00FFAED9H   LINE      ---      ---       #300
      00FFAEE0H   LINE      ---      ---       #301
      00FFAEE0H   LINE      ---      ---       #303
      00FFAEE5H   LINE      ---      ---       #305
      00FFAEF0H   LINE      ---      ---       #306
      00FFAEFBH   LINE      ---      ---       #307
      00FFAF06H   LINE      ---      ---       #308
L251 LINKER/LOCATER V4.66.93.0                                                        12/18/2023  14:21:09  PAGE 194


      00FFAF07H   LINE      ---      ---       #311
      00FFAF10H   LINE      ---      ---       #312
      00FFAF18H   LINE      ---      ---       #313
      00FFAF21H   LINE      ---      ---       #314
      00FFAF21H   LINE      ---      ---       #319
      REG=3       REGSYM    ---      ---       pRfkCtrl
      ---         BLOCKEND  CODE     ---       LVL=1
      00FFAF21H   LINE      ---      ---       #321
      00FFAF21H   LINE      CODE     ---       #321

      00FFC041H   BLOCK     CODE     ---       LVL=0
      00FFC041H   LINE      ---      ---       #324
      00FFC049H   LINE      ---      ---       #331
      REG=5       REGSYM    ---      ---       pStatus
      REG=0       REGSYM    ---      ---       pRxFilt
      REG=1       REGSYM    ---      ---       pRxTiaDc
      REG=7       REGSYM    ---      ---       pTxLo
      FFFFFFF9H   STKSYM    ---      ---       pTxSb
      00FFC049H   BLOCK     CODE     NEAR LAB  LVL=1
      00FFC049H   LINE      ---      ---       #332
      00FFC056H   LINE      ---      ---       #334
      00FFC05CH   LINE      ---      ---       #335
      00FFC063H   LINE      ---      ---       #336
      00FFC072H   LINE      ---      ---       #337
      00FFC081H   LINE      ---      ---       #338
      REG=6       REGSYM    ---      ---       pRfkCtrl
      ---         BLOCKEND  CODE     ---       LVL=1
      00FFC092H   LINE      ---      ---       #339
      00FFC092H   LINE      CODE     ---       #339

      ---         MODULE    ---      ---       hal_io
      00FFC095H   PUBLIC    CODE     ---       HALIO_dioSet
      00000080H   SFRSYM    DATA     BYTE      P0

      00FFC095H   BLOCK     CODE     ---       LVL=0
      00FFC095H   LINE      ---      ---       #24
      00FFC095H   LINE      ---      ---       #33
      00FFC0B3H   LINE      ---      ---       #34
      00FFC0BEH   LINE      ---      ---       #53
      00FFC0C1H   LINE      ---      ---       #54
      ---         BLOCKEND  ---      ---       LVL=0

      ---         MODULE    ---      ---       hal_init
      00FFC0C2H   PUBLIC    CODE     ---       HAL_ParaInit
      00FFC1ABH   PUBLIC    CODE     ---       HAL_ColdInit
      00FFAD30H   PUBLIC    CODE     ---       HAL_DftParaGet
      0000AEE1H   PUBLIC    EDATA    ---       pHalFwCfg
      0000AEE5H   PUBLIC    EDATA    ---       pHalRegPatch
      0000AEE9H   PUBLIC    EDATA    ---       pHalHwCfg
      0000AEEDH   PUBLIC    EDATA    ---       pHalMdmDefaultCfg
      0000AEF1H   PUBLIC    EDATA    ---       pHalRfDefaultCfg2G
      0000AEF5H   PUBLIC    EDATA    ---       pHalRfDefaultCfgSubG
      0000AEF9H   PUBLIC    EDATA    ---       pHalPmuDefaultCfg2G
      0000AEFDH   PUBLIC    EDATA    ---       pHalPmuDefaultCfgSubG
      0000AF01H   PUBLIC    EDATA    ---       pHalBmuMemSizeHwRxq
      0000AF05H   PUBLIC    EDATA    ---       pHalBmuMemSizeHwSwRxq
      0000AF09H   PUBLIC    EDATA    ---       pHalHwPara
      0000AF0DH   PUBLIC    EDATA    ---       pHalHwTab
      0000AF11H   PUBLIC    EDATA    ---       sHalCtrl
      0000B03FH   PUBLIC    EDATA    ---       sHalPktCfg
      0000B06EH   PUBLIC    EDATA    ---       pHalPktCfg
      0000B070H   PUBLIC    EDATA    ---       sHalFuncHdlr
      0000B0B4H   PUBLIC    EDATA    ---       pHalPrtclCfg
      00FF11F8H   PUBLIC    HCONST   ---       sHalParaIndDefault

L251 LINKER/LOCATER V4.66.93.0                                                        12/18/2023  14:21:09  PAGE 195


      00FFAD30H   BLOCK     CODE     ---       LVL=0
      00FFAD30H   LINE      ---      ---       #263
      00FFAD32H   LINE      ---      ---       #266
      WR2         REGSYM    ---      INT       halType
      00FFAD32H   BLOCK     CODE     NEAR LAB  LVL=1
      00FFAD32H   LINE      ---      ---       #274
      00FFAD3AH   LINE      ---      ---       #276
      REG=1       REGSYM    ---      ---       pHalParaInd
      ---         BLOCKEND  CODE     ---       LVL=1
      00FFAD50H   LINE      ---      ---       #277
      00FFAD50H   LINE      CODE     ---       #277

      00FFC0C2H   BLOCK     CODE     ---       LVL=0
      00FFC0C2H   LINE      ---      ---       #279
      00FFC0C2H   LINE      ---      ---       #296
      00FFC0D0H   LINE      ---      ---       #297
      00FFC0DEH   LINE      ---      ---       #306
      00FFC0F0H   LINE      ---      ---       #317
      00FFC102H   LINE      ---      ---       #334
      00FFC114H   LINE      ---      ---       #337
      00FFC126H   LINE      ---      ---       #356
      00FFC138H   LINE      ---      ---       #359
      00FFC14AH   LINE      ---      ---       #373
      00FFC15CH   LINE      ---      ---       #374
      00FFC16EH   LINE      ---      ---       #383
      00FFC180H   LINE      ---      ---       #391
      00FFC192H   LINE      ---      ---       #399
      00FFC1A4H   LINE      ---      ---       #407
      00FFC1AAH   LINE      ---      ---       #410
      ---         BLOCKEND  ---      ---       LVL=0

      00FFC1ABH   BLOCK     CODE     ---       LVL=0
      00FFC1ABH   LINE      ---      ---       #412
      00FFC1ABH   LINE      ---      ---       #420
      00FFC1B1H   LINE      ---      ---       #421
      00FFC1B5H   LINE      ---      ---       #422
      00FFC1CBH   LINE      ---      ---       #423
      ---         BLOCKEND  ---      ---       LVL=0

      ---         MODULE    ---      ---       hal_patch

      ---         MODULE    ---      ---       hal_prtcl
      00FF12AAH   PUBLIC    HCONST   ---       sHalPrtclCfg

      ---         MODULE    ---      ---       hal_rt569mp_init
      00FFA9F7H   PUBLIC    CODE     ---       HAL_HwInit

      00FFA9F7H   BLOCK     CODE     ---       LVL=0
      00FFA9F7H   LINE      ---      ---       #27
      00FFAA05H   LINE      ---      ---       #34
      00FFAA09H   LINE      ---      ---       #35
      00FFAA0DH   LINE      ---      ---       #36
      00FFAA11H   LINE      ---      ---       #145
      00FFAA20H   LINE      ---      ---       #148
      00FFAA30H   LINE      ---      ---       #151
      00FFAA30H   LINE      ---      ---       #152
      00FFAA3FH   LINE      ---      ---       #153
      00FFAA4EH   LINE      ---      ---       #154
      00FFAA5AH   LINE      ---      ---       #158
      00FFAA5FH   LINE      ---      ---       #159
      00FFAA6AH   LINE      ---      ---       #162
      00FFAA73H   LINE      ---      ---       #164
      00FFAA75H   LINE      ---      ---       #168
      00FFAA75H   LINE      ---      ---       #169
      00FFAA84H   LINE      ---      ---       #170
L251 LINKER/LOCATER V4.66.93.0                                                        12/18/2023  14:21:09  PAGE 196


      00FFAA93H   LINE      ---      ---       #171
      00FFAA9FH   LINE      ---      ---       #174
      00FFAAABH   LINE      ---      ---       #175
      00FFAAB7H   LINE      ---      ---       #176
      00FFAABCH   LINE      ---      ---       #177
      00FFAAC8H   LINE      ---      ---       #178
      00FFAAD1H   LINE      ---      ---       #179
      00FFAADDH   LINE      ---      ---       #180
      00FFAAE9H   LINE      ---      ---       #182
      00FFAB00H   LINE      ---      ---       #191
      00FFAB0CH   LINE      ---      ---       #192
      00FFAB1AH   LINE      ---      ---       #193
      00FFAB1FH   LINE      ---      ---       #194
      00FFAB2BH   LINE      ---      ---       #196
      00FFAB33H   LINE      ---      ---       #198
      00FFAB3CH   LINE      ---      ---       #199
      00FFAB48H   LINE      ---      ---       #200
      00FFAB54H   LINE      ---      ---       #203
      00FFAB60H   LINE      ---      ---       #204
      00FFAB6EH   LINE      ---      ---       #205
      00FFAB7AH   LINE      ---      ---       #206
      00FFAB88H   LINE      ---      ---       #210
      00FFAB96H   LINE      ---      ---       #211
      00FFABA2H   LINE      ---      ---       #212
      00FFABAEH   LINE      ---      ---       #213
      00FFABB5H   LINE      ---      ---       #241
      00FFABBDH   LINE      ---      ---       #243
      00FFABBDH   LINE      ---      ---       #244
      00FFABC9H   LINE      ---      ---       #245
      00FFABD7H   LINE      ---      ---       #246
      00FFABD7H   LINE      ---      ---       #247
      00FFABD7H   LINE      ---      ---       #249
      00FFABD7H   LINE      ---      ---       #251
      00FFABD7H   LINE      ---      ---       #254
      00FFABDDH   LINE      ---      ---       #257
      00FFABE3H   LINE      ---      ---       #260
      00FFABE6H   LINE      ---      ---       #263
      00FFABFDH   LINE      ---      ---       #275
      00FFAC09H   LINE      ---      ---       #290
      00FFAC27H   LINE      ---      ---       #292
      00FFAC32H   LINE      ---      ---       #295
      00FFAC34H   LINE      ---      ---       #301
      00FFAC45H   LINE      ---      ---       #304
      00FFAC47H   LINE      ---      ---       #307
      00FFAC51H   LINE      ---      ---       #318
      00FFAC5AH   LINE      ---      ---       #319
      00FFAC62H   LINE      ---      ---       #325
      0000B5A5H   SYMBOL    EDATA    INT       rfBand
      WR14        REGSYM    ---      INT       rfkBand
      WR12        REGSYM    ---      INT       modem
      0000B5A7H   SYMBOL    EDATA    INT       clkMode
      ---         BLOCKEND  ---      ---       LVL=0

      ---         MODULE    ---      ---       rt569mp_mem
      00FF1367H   PUBLIC    HCONST   ---       pMemMapSharedBuffer
      00FF1369H   PUBLIC    HCONST   ---       pMemMapExtData
      00FF136BH   PUBLIC    HCONST   ---       pMemMapBmuLinkTable

      ---         MODULE    ---      ---       rt569mp_reg
      00FF0006H   PUBLIC    HCONST   ---       pBmuMacIntrSts

      ---         MODULE    ---      ---       hal_rt569mp_rfk
      00FFC1CCH   PUBLIC    CODE     ---       HALRFK_ParaBackUp
      00FFC33DH   PUBLIC    CODE     ---       HALRFK_ParaRecover
      00FF53D1H   PUBLIC    CODE     ---       HALRFK_SingleToneEnable
L251 LINKER/LOCATER V4.66.93.0                                                        12/18/2023  14:21:09  PAGE 197


      00FF53A2H   PUBLIC    CODE     ---       HALRFK_SingleToneDisable
      00FF5508H   PUBLIC    CODE     ---       HALRFK_PllForLokSet
      00FFC58FH   PUBLIC    CODE     ---       HALRFK_TxLok
      00FF5527H   PUBLIC    CODE     ---       HALRFK_PllForSideBandKSet
      00FFC613H   PUBLIC    CODE     ---       HALRFK_TxSbk
      00FFC3E9H   PUBLIC    CODE     ---       HALRFK_LbPathEnable
      00FFC6E1H   PUBLIC    CODE     ---       HALRFK_LbPathDisable
      00FF5291H   PUBLIC    CODE     ---       HALRFK_LbTrxEnable
      00FF53AFH   PUBLIC    CODE     ---       HALRFK_LbTrxDisable
      00FF55A3H   PUBLIC    CODE     ---       HALRFK_PllForFiltKSet
      00FF5464H   PUBLIC    CODE     ---       HALRFK_RxFiltK
      00FFC708H   PUBLIC    CODE     ---       HALRFK_RxPathEnable
      00FFC778H   PUBLIC    CODE     ---       HALRFK_RxPathDisable
      00FFA70EH   PUBLIC    CODE     ---       HALRFK_RxEnable
      00FFC7A3H   PUBLIC    CODE     ---       HALRFK_RxDisable
      00FFC49FH   PUBLIC    CODE     ---       HALRFK_RingPllSet
      00FF53FAH   PUBLIC    CODE     ---       HALRFK_RssiGet
      00FF554DH   PUBLIC    CODE     ---       HALRFK_RfGainCfg
      00FF56B9H   PUBLIC    CODE     ---       HALRFK_RfPllCfg
      00FF560AH   PUBLIC    CODE     ---       HALRFK_RfTxCfg
      00FFC2C8H   PUBLIC    CODE     ---       HALRFK_RxBwCfg
      0000B5A9H   PUBLIC    EDATA    ---       sHalRfkCtrl
      0000B5BEH   PUBLIC    EDATA    BYTE      ?HALRFK_RingPllSet?BYTE

      00FFC49FH   BLOCK     CODE     ---       LVL=0
      00FFC49FH   LINE      ---      ---       #211
      00FFC4A1H   LINE      ---      ---       #225
      00FFC4B4H   LINE      ---      ---       #226
      00FFC4C7H   LINE      ---      ---       #227
      00FFC4DBH   LINE      ---      ---       #228
      00FFC4F1H   LINE      ---      ---       #229
      00FFC505H   LINE      ---      ---       #230
      00FFC517H   LINE      ---      ---       #231
      00FFC52CH   LINE      ---      ---       #232
      00FFC542H   LINE      ---      ---       #233
      00FFC558H   LINE      ---      ---       #234
      00FFC55EH   LINE      ---      ---       #235
      00FFC571H   LINE      ---      ---       #237
      00FFC58EH   LINE      ---      ---       #238
      WR30        REGSYM    ---      INT       band
      R11         REGSYM    ---      BYTE      divNum
      R9          REGSYM    ---      BYTE      divNum2
      R10         REGSYM    ---      BYTE      calDiv
      R3          REGSYM    ---      BYTE      div2ClkRing
      R2          REGSYM    ---      BYTE      manuBank
      R1          REGSYM    ---      BYTE      bank1
      R0          REGSYM    ---      BYTE      iniBank
      0000B5C7H   SYMBOL    EDATA    BYTE      bypRst
      0000B5C8H   SYMBOL    EDATA    BYTE      tuneBuff
      0000B5C9H   SYMBOL    EDATA    BYTE      calBuf
      ---         BLOCKEND  ---      ---       LVL=0

      00FF53EEH   BLOCK     CODE     ---       LVL=0
      00FF53FAH   LINE      ---      ---       #240
      00FF5400H   LINE      ---      ---       #244
      00FF53EEH   SYMBOL    CODE     NEAR LAB  ?L?COM0021
      WR4         REGSYM    ---      WORD      extraDelay
      R15         REGSYM    ---      BYTE      rssiAvg
      00FF5400H   BLOCK     CODE     NEAR LAB  LVL=1
      00FF5400H   LINE      ---      ---       #251
      00FF540CH   LINE      ---      ---       #253
      00FF5412H   LINE      ---      ---       #255
      00FF541EH   LINE      ---      ---       #258
      00FF5420H   LINE      ---      ---       #259
      00FF5424H   LINE      ---      ---       #261
L251 LINKER/LOCATER V4.66.93.0                                                        12/18/2023  14:21:09  PAGE 198


      00FF542AH   LINE      ---      ---       #262
      00FF5435H   LINE      ---      ---       #263
      00FF543DH   LINE      ---      ---       #264
      00FF5454H   LINE      ---      ---       #266
      WR12        REGSYM    ---      INT       rssiAcc
      0000B5F2H   SYMBOL    EDATA    CHAR      rssiTemp
      R14         REGSYM    ---      BYTE      idx
      ---         BLOCKEND  CODE     ---       LVL=1
      00FF5461H   LINE      ---      ---       #267
      00FF5461H   LINE      CODE     ---       #267

      00FF5546H   BLOCK     CODE     ---       LVL=0
      00FF554DH   LINE      ---      ---       #269
      00FF5553H   LINE      ---      ---       #275
      00FF5561H   LINE      ---      ---       #276
      00FF5575H   LINE      ---      ---       #277
      00FF5585H   LINE      ---      ---       #278
      00FF558CH   LINE      ---      ---       #279
      00FF5546H   SYMBOL    CODE     NEAR LAB  ?L?COM003E
      R10         REGSYM    ---      BYTE      lnaGain
      R2          REGSYM    ---      BYTE      vgaGain
      R3          REGSYM    ---      BYTE      tiaGain
      ---         BLOCKEND  ---      ---       LVL=0

      00FF56B9H   BLOCK     CODE     ---       LVL=0
      00FF56B9H   LINE      ---      ---       #282
      00FF56BFH   LINE      ---      ---       #291
      00FF56D2H   LINE      ---      ---       #292
      00FF56E9H   LINE      ---      ---       #293
      00FF56F4H   LINE      ---      ---       #294
      00FF5708H   LINE      ---      ---       #295
      00FF571CH   LINE      ---      ---       #296
      00FF5723H   LINE      ---      ---       #297
      R11         REGSYM    ---      BYTE      pllN
      R9          REGSYM    ---      BYTE      pllS
      WR0         REGSYM    ---      WORD      pllSDM
      R10         REGSYM    ---      BYTE      mod
      R3          REGSYM    ---      BYTE      mod46
      R2          REGSYM    ---      BYTE      selVco
      ---         BLOCKEND  ---      ---       LVL=0

      00FF55F6H   BLOCK     CODE     ---       LVL=0
      00FF560AH   LINE      ---      ---       #315
      00FF5614H   LINE      ---      ---       #326
      00FF5627H   LINE      ---      ---       #327
      00FF5640H   LINE      ---      ---       #328
      00FF5657H   LINE      ---      ---       #329
      00FF566BH   LINE      ---      ---       #330
      00FF567EH   LINE      ---      ---       #331
      00FF568EH   LINE      ---      ---       #332
      00FF56A8H   LINE      ---      ---       #333
      00FF55F6H   SYMBOL    CODE     NEAR LAB  ?L?COM000E
      R11         REGSYM    ---      BYTE      regGainAttRefBle
      R8          REGSYM    ---      BYTE      gainPre
      R9          REGSYM    ---      BYTE      pwPa
      R0          REGSYM    ---      BYTE      pwD2s
      R1          REGSYM    ---      BYTE      pabPreSze
      R3          REGSYM    ---      BYTE      gainPa
      R2          REGSYM    ---      BYTE      pabPwPre
      R10         REGSYM    ---      BYTE      gainPaBit2
      ---         BLOCKEND  ---      ---       LVL=0

      00FFC2C8H   BLOCK     CODE     ---       LVL=0
      00FFC2C8H   LINE      ---      ---       #342
      00FFC2C8H   LINE      ---      ---       #345
L251 LINKER/LOCATER V4.66.93.0                                                        12/18/2023  14:21:09  PAGE 199


      00FFC2D1H   LINE      ---      ---       #346
      00FFC2DFH   LINE      ---      ---       #347
      00FFC2E6H   LINE      ---      ---       #351
      00FFC2F9H   LINE      ---      ---       #360
      00FFC30CH   LINE      ---      ---       #367
      00FFC31FH   LINE      ---      ---       #373
      00FFC328H   LINE      ---      ---       #376
      00FFC334H   LINE      ---      ---       #377
      00FFC33CH   LINE      ---      ---       #378
      ---         BLOCKEND  ---      ---       LVL=0

      00FFC1CCH   BLOCK     CODE     ---       LVL=0
      00FFC1CCH   LINE      ---      ---       #380
      00FFC1D0H   LINE      ---      ---       #392
      00FFC1DDH   LINE      ---      ---       #393
      00FFC1EBH   LINE      ---      ---       #394
      00FFC1F8H   LINE      ---      ---       #395
      00FFC203H   LINE      ---      ---       #396
      00FFC210H   LINE      ---      ---       #397
      00FFC21DH   LINE      ---      ---       #398
      00FFC22CH   LINE      ---      ---       #399
      00FFC237H   LINE      ---      ---       #400
      00FFC244H   LINE      ---      ---       #404
      00FFC251H   LINE      ---      ---       #405
      00FFC25EH   LINE      ---      ---       #406
      00FFC26CH   LINE      ---      ---       #407
      00FFC27BH   LINE      ---      ---       #411
      00FFC285H   LINE      ---      ---       #414
      00FFC294H   LINE      ---      ---       #415
      00FFC29FH   LINE      ---      ---       #416
      00FFC2AAH   LINE      ---      ---       #417
      00FFC2BBH   LINE      ---      ---       #420
      00FFC2C3H   LINE      ---      ---       #423
      00FFC2C5H   LINE      ---      ---       #428
      REG=7       REGSYM    ---      ---       pPara
      ---         BLOCKEND  ---      ---       LVL=0

      00FFC33DH   BLOCK     CODE     ---       LVL=0
      00FFC33DH   LINE      ---      ---       #430
      00FFC341H   LINE      ---      ---       #435
      00FFC346H   LINE      ---      ---       #436
      00FFC35EH   LINE      ---      ---       #442
      00FFC381H   LINE      ---      ---       #448
      00FFC38BH   LINE      ---      ---       #451
      00FFC3A7H   LINE      ---      ---       #452
      00FFC3B2H   LINE      ---      ---       #453
      00FFC3BDH   LINE      ---      ---       #454
      00FFC3CEH   LINE      ---      ---       #455
      REG=7       REGSYM    ---      ---       pPara
      ---         BLOCKEND  ---      ---       LVL=0

      00FF53CDH   BLOCK     CODE     ---       LVL=0
      00FF53D1H   LINE      ---      ---       #457
      00FF53D3H   LINE      ---      ---       #463
      00FF53DAH   LINE      ---      ---       #464
      00FF53E1H   LINE      ---      ---       #467
      00FF53EDH   LINE      ---      ---       #468
      00FF53CDH   SYMBOL    CODE     NEAR LAB  ?L?COM0044
      R11         REGSYM    ---      BYTE      stI
      R4          REGSYM    ---      BYTE      stQ
      ---         BLOCKEND  ---      ---       LVL=0

      00FF53A2H   BLOCK     CODE     ---       LVL=0
      00FF53A2H   LINE      ---      ---       #470
      00FF53A2H   LINE      ---      ---       #473
L251 LINKER/LOCATER V4.66.93.0                                                        12/18/2023  14:21:09  PAGE 200


      00FF53AEH   LINE      ---      ---       #474
      ---         BLOCKEND  ---      ---       LVL=0

      00FF5508H   BLOCK     CODE     ---       LVL=0
      00FF5508H   LINE      ---      ---       #478
      00FF550CH   LINE      ---      ---       #486
      00FF550EH   LINE      ---      ---       #488
      00FF5512H   LINE      ---      ---       #497
      00FF5512H   LINE      ---      ---       #499
      00FF5524H   LINE      ---      ---       #500
      00FF5524H   LINE      ---      ---       #502
      00FF5524H   LINE      ---      ---       #503
      WR14        REGSYM    ---      INT       rfBand
      ---         BLOCKEND  ---      ---       LVL=0

      00FFC58FH   BLOCK     CODE     ---       LVL=0
      00FFC58FH   LINE      ---      ---       #505
      00FFC593H   LINE      ---      ---       #508
      REG=7       REGSYM    ---      ---       pDcOffset
      00FFC593H   BLOCK     CODE     NEAR LAB  LVL=1
      00FFC593H   LINE      ---      ---       #527
      00FFC599H   LINE      ---      ---       #528
      00FFC59EH   LINE      ---      ---       #529
      00FFC5A0H   LINE      ---      ---       #533
      00FFC5A3H   LINE      ---      ---       #537
      00FFC5AAH   LINE      ---      ---       #542
      00FFC5B0H   LINE      ---      ---       #546
      00FFC5BBH   LINE      ---      ---       #552
      00FFC5C2H   LINE      ---      ---       #554
      00FFC5CCH   LINE      ---      ---       #556
      00FFC5D4H   LINE      ---      ---       #557
      00FFC5D8H   LINE      ---      ---       #558
      00FFC5DCH   LINE      ---      ---       #559
      00FFC5EFH   LINE      ---      ---       #571
      00FFC5F7H   LINE      ---      ---       #574
      00FFC602H   LINE      ---      ---       #575
      00FFC609H   LINE      ---      ---       #576
      00FFC60CH   LINE      ---      ---       #577
      0000B5ADH   SYMBOL    EDATA    CHAR      rssiMin
      0000B5AEH   SYMBOL    EDATA    CHAR      rssiTemp
      0000B5AFH   SYMBOL    EDATA    CHAR      minI
      R13         REGSYM    ---      CHAR      minQ
      R12         REGSYM    ---      CHAR      iIdx
      0000B5B0H   SYMBOL    EDATA    CHAR      qIdx
      ---         BLOCKEND  CODE     ---       LVL=1
      00FFC610H   LINE      ---      ---       #578
      00FFC610H   LINE      CODE     ---       #578

      00FF5527H   BLOCK     CODE     ---       LVL=0
      00FF5527H   LINE      ---      ---       #582
      00FF552BH   LINE      ---      ---       #590
      00FF552DH   LINE      ---      ---       #592
      00FF5531H   LINE      ---      ---       #601
      00FF5531H   LINE      ---      ---       #603
      00FF5543H   LINE      ---      ---       #605
      00FF5543H   LINE      ---      ---       #606
      WR14        REGSYM    ---      INT       rfBand
      ---         BLOCKEND  ---      ---       LVL=0

      00FFC613H   BLOCK     CODE     ---       LVL=0
      00FFC613H   LINE      ---      ---       #608
      00FFC617H   LINE      ---      ---       #611
      REG=7       REGSYM    ---      ---       pIqc
      00FFC617H   BLOCK     CODE     NEAR LAB  LVL=1
      00FFC617H   LINE      ---      ---       #632
L251 LINKER/LOCATER V4.66.93.0                                                        12/18/2023  14:21:09  PAGE 201


      00FFC61DH   LINE      ---      ---       #633
      00FFC621H   LINE      ---      ---       #634
      00FFC626H   LINE      ---      ---       #635
      00FFC62CH   LINE      ---      ---       #636
      00FFC638H   LINE      ---      ---       #640
      00FFC63CH   LINE      ---      ---       #644
      00FFC64AH   LINE      ---      ---       #645
      00FFC655H   LINE      ---      ---       #646
      00FFC660H   LINE      ---      ---       #652
      00FFC66DH   LINE      ---      ---       #654
      00FFC677H   LINE      ---      ---       #656
      00FFC67FH   LINE      ---      ---       #657
      00FFC68AH   LINE      ---      ---       #658
      00FFC692H   LINE      ---      ---       #659
      00FFC69AH   LINE      ---      ---       #660
      00FFC69AH   LINE      ---      ---       #663
      00FFC6A6H   LINE      ---      ---       #674
      00FFC6AAH   LINE      ---      ---       #676
      00FFC6B5H   LINE      ---      ---       #677
      00FFC6C0H   LINE      ---      ---       #678
      00FFC6CBH   LINE      ---      ---       #679
      00FFC6CEH   LINE      ---      ---       #680
      00FFC6D6H   LINE      ---      ---       #681
      0000B50CH   SYMBOL    EDATA    CHAR      rssiMin
      0000B50DH   SYMBOL    EDATA    CHAR      rssiTemp
      0000B50EH   SYMBOL    EDATA    CHAR      minA
      0000B50FH   SYMBOL    EDATA    CHAR      minB
      0000B510H   SYMBOL    EDATA    CHAR      minC
      WR12        REGSYM    ---      WORD      idx
      0000B511H   SYMBOL    EDATA    ---       pSbkCand
      ---         BLOCKEND  CODE     ---       LVL=1
      00FFC6DEH   LINE      ---      ---       #682
      00FFC6DEH   LINE      CODE     ---       #682

      00FFC3E9H   BLOCK     CODE     ---       LVL=0
      00FFC3E9H   LINE      ---      ---       #702
      00FFC3EBH   LINE      ---      ---       #707
      00FFC3F6H   LINE      ---      ---       #708
      00FFC401H   LINE      ---      ---       #711
      00FFC40FH   LINE      ---      ---       #712
      00FFC41DH   LINE      ---      ---       #713
      00FFC427H   LINE      ---      ---       #716
      00FFC433H   LINE      ---      ---       #717
      00FFC437H   LINE      ---      ---       #718
      00FFC43BH   LINE      ---      ---       #732
      00FFC43BH   LINE      ---      ---       #735
      00FFC443H   LINE      ---      ---       #736
      00FFC46EH   LINE      ---      ---       #738
      00FFC47AH   LINE      ---      ---       #739
      00FFC486H   LINE      ---      ---       #740
      00FFC492H   LINE      ---      ---       #741
      00FFC49EH   LINE      ---      ---       #742
      00FFC49EH   LINE      ---      ---       #744
      00FFC49EH   LINE      ---      ---       #745
      WR2         REGSYM    ---      INT       rfBand
      ---         BLOCKEND  ---      ---       LVL=0

      00FFC6E1H   BLOCK     CODE     ---       LVL=0
      00FFC6E1H   LINE      ---      ---       #747
      00FFC6E3H   LINE      ---      ---       #752
      00FFC6EFH   LINE      ---      ---       #753
      00FFC6F3H   LINE      ---      ---       #766
      00FFC6F3H   LINE      ---      ---       #769
      00FFC6FBH   LINE      ---      ---       #771
      00FFC707H   LINE      ---      ---       #772
L251 LINKER/LOCATER V4.66.93.0                                                        12/18/2023  14:21:09  PAGE 202


      00FFC707H   LINE      ---      ---       #774
      00FFC707H   LINE      ---      ---       #775
      WR4         REGSYM    ---      INT       rfBand
      ---         BLOCKEND  ---      ---       LVL=0

      00FF5291H   BLOCK     CODE     ---       LVL=0
      00FF5291H   LINE      ---      ---       #777
      00FF5293H   LINE      ---      ---       #778
      00FF5293H   BLOCK     CODE     NEAR LAB  LVL=1
      00FF5293H   LINE      ---      ---       #784
      00FF529FH   LINE      ---      ---       #794
      00FF52ABH   LINE      ---      ---       #795
      00FF52B5H   LINE      ---      ---       #796
      00FF52CEH   LINE      ---      ---       #797
      00FF52E2H   LINE      ---      ---       #800
      00FF52EFH   LINE      ---      ---       #801
      00FF52F3H   LINE      ---      ---       #802
      R15         REGSYM    ---      BYTE      bandSel
      ---         BLOCKEND  CODE     ---       LVL=1
      00FF52FDH   LINE      ---      ---       #814
      00FF52FDH   LINE      CODE     ---       #814

      00FF53AFH   BLOCK     CODE     ---       LVL=0
      00FF53AFH   LINE      ---      ---       #816
      00FF53AFH   LINE      ---      ---       #819
      00FF53BBH   LINE      ---      ---       #820
      00FF53C7H   LINE      ---      ---       #821
      00FF53CCH   LINE      ---      ---       #822
      ---         BLOCKEND  ---      ---       LVL=0

      00FF55A3H   BLOCK     CODE     ---       LVL=0
      00FF55A3H   LINE      ---      ---       #854
      00FF55A7H   LINE      ---      ---       #862
      00FF55B1H   LINE      ---      ---       #864
      00FF55B5H   LINE      ---      ---       #878
      00FF55B5H   LINE      ---      ---       #880
      00FF55C7H   LINE      ---      ---       #882
      00FF55CFH   LINE      ---      ---       #883
      00FF55D7H   LINE      ---      ---       #884
      00FF55E5H   LINE      ---      ---       #885
      00FF55F3H   LINE      ---      ---       #886
      00FF55F3H   LINE      ---      ---       #888
      00FF55F3H   LINE      ---      ---       #889
      WR14        REGSYM    ---      INT       rfBand
      ---         BLOCKEND  ---      ---       LVL=0

      00FF5464H   BLOCK     CODE     ---       LVL=0
      00FF5464H   LINE      ---      ---       #891
      00FF5468H   LINE      ---      ---       #894
      REG=7       REGSYM    ---      ---       pFiltCap
      00FF5468H   BLOCK     CODE     NEAR LAB  LVL=1
      00FF5468H   LINE      ---      ---       #924
      00FF546EH   LINE      ---      ---       #925
      00FF5472H   LINE      ---      ---       #929
      00FF5478H   LINE      ---      ---       #933
      00FF5483H   LINE      ---      ---       #936
      00FF5495H   LINE      ---      ---       #942
      00FF549BH   LINE      ---      ---       #954
      00FF54AFH   LINE      ---      ---       #957
      00FF54D3H   LINE      ---      ---       #994
      00FF54D9H   LINE      ---      ---       #996
      00FF54DDH   LINE      ---      ---       #997
      00FF54E5H   LINE      ---      ---       #1013
      00FF54F7H   LINE      ---      ---       #1017
      00FF5502H   LINE      ---      ---       #1018
L251 LINKER/LOCATER V4.66.93.0                                                        12/18/2023  14:21:09  PAGE 203


      0000B56CH   SYMBOL    EDATA    BYTE      minCap
      0000B56DH   SYMBOL    EDATA    BYTE      cIdx
      0000B56EH   SYMBOL    EDATA    CHAR      rssiRef
      0000B56FH   SYMBOL    EDATA    CHAR      rssiTemp1
      WR12        REGSYM    ---      INT       minRssiDiff
      0000B570H   SYMBOL    EDATA    INT       rssiDiff
      ---         BLOCKEND  CODE     ---       LVL=1
      00FF5505H   LINE      ---      ---       #1024
      00FF5505H   LINE      CODE     ---       #1024

      00FFC708H   BLOCK     CODE     ---       LVL=0
      00FFC708H   LINE      ---      ---       #1028
      00FFC70AH   LINE      ---      ---       #1033
      00FFC715H   LINE      ---      ---       #1034
      00FFC71CH   LINE      ---      ---       #1037
      00FFC72AH   LINE      ---      ---       #1038
      00FFC738H   LINE      ---      ---       #1039
      00FFC742H   LINE      ---      ---       #1042
      00FFC75BH   LINE      ---      ---       #1043
      00FFC75FH   LINE      ---      ---       #1054
      00FFC75FH   LINE      ---      ---       #1056
      00FFC76BH   LINE      ---      ---       #1057
      00FFC777H   LINE      ---      ---       #1058
      00FFC777H   LINE      ---      ---       #1060
      00FFC777H   LINE      ---      ---       #1061
      WR2         REGSYM    ---      INT       rfBand
      ---         BLOCKEND  ---      ---       LVL=0

      00FFC778H   BLOCK     CODE     ---       LVL=0
      00FFC778H   LINE      ---      ---       #1063
      00FFC77AH   LINE      ---      ---       #1068
      00FFC786H   LINE      ---      ---       #1069
      00FFC78AH   LINE      ---      ---       #1081
      00FFC78AH   LINE      ---      ---       #1084
      00FFC796H   LINE      ---      ---       #1085
      00FFC7A2H   LINE      ---      ---       #1086
      00FFC7A2H   LINE      ---      ---       #1088
      00FFC7A2H   LINE      ---      ---       #1089
      WR4         REGSYM    ---      INT       rfBand
      ---         BLOCKEND  ---      ---       LVL=0

      00FFA70EH   BLOCK     CODE     ---       LVL=0
      00FFA70EH   LINE      ---      ---       #1091
      00FFA710H   LINE      ---      ---       #1092
      00FFA710H   BLOCK     CODE     NEAR LAB  LVL=1
      00FFA710H   LINE      ---      ---       #1098
      00FFA71BH   LINE      ---      ---       #1108
      00FFA727H   LINE      ---      ---       #1109
      00FFA732H   LINE      ---      ---       #1110
      00FFA749H   LINE      ---      ---       #1111
      00FFA764H   LINE      ---      ---       #1112
      00FFA775H   LINE      ---      ---       #1113
      00FFA77EH   LINE      ---      ---       #1116
      R15         REGSYM    ---      BYTE      bandSel
      ---         BLOCKEND  CODE     ---       LVL=1
      00FFA789H   LINE      ---      ---       #1128
      00FFA789H   LINE      CODE     ---       #1128

      00FFC7A3H   BLOCK     CODE     ---       LVL=0
      00FFC7A3H   LINE      ---      ---       #1130
      00FFC7A3H   LINE      ---      ---       #1133
      00FFC7AFH   LINE      ---      ---       #1134
      00FFC7BBH   LINE      ---      ---       #1135
      00FFC7C0H   LINE      ---      ---       #1136
      ---         BLOCKEND  ---      ---       LVL=0
L251 LINKER/LOCATER V4.66.93.0                                                        12/18/2023  14:21:09  PAGE 204



      ---         MODULE    ---      ---       hal_rt569mp_rf
      00FFB45AH   PUBLIC    CODE     ---       HALRF_PllCfg
      00FFBED4H   PUBLIC    CODE     ---       HALRF_Freq2gCfg
      00FFC7C1H   PUBLIC    CODE     ---       HALRF_FreqSubgCfg
      00FFC978H   PUBLIC    CODE     ---       HALRF_AgcInit
      00FFC9E3H   PUBLIC    CODE     ---       HALRF_TemperatureMeasure
      00FFC9E4H   PUBLIC    CODE     ---       HALRF_VoltageMeasure
      00FFAC65H   PUBLIC    CODE     ---       HALRF_TxPwrSet2Hw
      00FFA78CH   PUBLIC    CODE     ---       HALRF_TxPwrCompSet2Hw
      00FF5724H   PUBLIC    CODE     ---       HALRF_AgcSet2Hw
      00FFC9E5H   PUBLIC    CODE     ---       HALRF_ExtFemInit
      00FFC9E6H   PUBLIC    CODE     ---       HALRF_IfCheck
      00FFCA85H   PUBLIC    CODE     ---       HALRF_Freq2gCal
      00FFACA7H   PUBLIC    CODE     ---       HALRF_TxGainTableCfg
      00FF130FH   PUBLIC    HCONST   ---       pllFreqBandTab
      0000B5A9H   PUBLIC    EDATA    BYTE      ?HALRF_IfCheck?BYTE

      00FFC9E6H   BLOCK     CODE     ---       LVL=0
      00FFC9E6H   LINE      ---      ---       #93
      00FFC9EAH   LINE      ---      ---       #120
      00FFC9F7H   LINE      ---      ---       #123
      00FFC9F7H   LINE      ---      ---       #124
      00FFC9FCH   LINE      ---      ---       #125
      00FFCA0BH   LINE      ---      ---       #126
      00FFCA16H   LINE      ---      ---       #127
      00FFCA35H   LINE      ---      ---       #129
      00FFCA3EH   LINE      ---      ---       #133
      00FFCA3FH   LINE      ---      ---       #136
      00FFCA3FH   LINE      ---      ---       #137
      00FFCA44H   LINE      ---      ---       #138
      00FFCA53H   LINE      ---      ---       #139
      00FFCA5EH   LINE      ---      ---       #140
      00FFCA7DH   LINE      ---      ---       #144
      00FFCA81H   LINE      ---      ---       #146
      00FFCA82H   LINE      ---      ---       #148
      00FFCA82H   LINE      ---      ---       #149
      WR6         REGSYM    ---      INT       dataBw
      REG=2       REGSYM    ---      ---       pIfNum
      REG=15      REGSYM    ---      ---       pIfTab
      REG=4       REGSYM    ---      ---       pPllCfgRet
      0000B5B1H   SYMBOL    EDATA    ---       pIfIdx
      0000B5B3H   SYMBOL    EDATA    ---       pIfIdxZero
      ---         BLOCKEND  ---      ---       LVL=0

      00FFCA85H   BLOCK     CODE     ---       LVL=0
      00FFCA85H   LINE      ---      ---       #156
      00FFCA85H   LINE      ---      ---       #161
      WR6         REGSYM    ---      WORD      freq
      WR4         REGSYM    ---      WORD      ifVal
      REG=1       REGSYM    ---      ---       pPllCfgRet
      00FFCA85H   BLOCK     CODE     NEAR LAB  LVL=1
      00FFCA85H   LINE      ---      ---       #165
      00FFCA8DH   LINE      ---      ---       #177
      00FFCA97H   LINE      ---      ---       #178
      00FFCA99H   LINE      ---      ---       #179
      00FFCAABH   LINE      ---      ---       #180
      00FFCABDH   LINE      ---      ---       #181
      00FFCAD4H   LINE      ---      ---       #182
      00FFCAE5H   LINE      ---      ---       #183
      00FFCAEAH   LINE      ---      ---       #184
      DR4         REGSYM    ---      DWORD     freqTarget
      ---         BLOCKEND  CODE     ---       LVL=1
      00FFCAEEH   LINE      ---      ---       #185
      00FFCAEEH   LINE      CODE     ---       #185
L251 LINKER/LOCATER V4.66.93.0                                                        12/18/2023  14:21:09  PAGE 205



      00FFB45AH   BLOCK     CODE     ---       LVL=0
      00FFB45AH   LINE      ---      ---       #191
      00FFB45CH   LINE      ---      ---       #196
      00FFB472H   LINE      ---      ---       #197
      00FFB48AH   LINE      ---      ---       #198
      00FFB49CH   LINE      ---      ---       #199
      00FFB4B2H   LINE      ---      ---       #200
      00FFB4C8H   LINE      ---      ---       #208
      REG=1       REGSYM    ---      ---       pPllCfg
      ---         BLOCKEND  ---      ---       LVL=0

      00FFBED4H   BLOCK     CODE     ---       LVL=0
      00FFBED4H   LINE      ---      ---       #211
      00FFBEDAH   LINE      ---      ---       #216
      WR14        REGSYM    ---      WORD      freq
      WR4         REGSYM    ---      INT       dataBw
      WR12        REGSYM    ---      INT       mode
      00FFBEDAH   BLOCK     CODE     NEAR LAB  LVL=1
      00FFBEDAH   LINE      ---      ---       #221
      00FFBEE2H   LINE      ---      ---       #225
      00FFBF03H   LINE      ---      ---       #228
      00FFBF13H   LINE      ---      ---       #232
      00FFBF15H   LINE      ---      ---       #236
      00FFBF27H   LINE      ---      ---       #238
      00FFBF27H   LINE      ---      ---       #245
      00FFBF27H   LINE      ---      ---       #251
      00FFBF27H   LINE      ---      ---       #254
      00FFBF4BH   LINE      ---      ---       #258
      00FFBF4DH   LINE      ---      ---       #260
      00FFBF4DH   LINE      ---      ---       #262
      00FFBF50H   LINE      ---      ---       #265
      00FFBF6BH   LINE      ---      ---       #269
      00FFBF75H   LINE      ---      ---       #270
      00FFBF81H   LINE      ---      ---       #271
      00FFBF94H   LINE      ---      ---       #272
      00FFBF94H   LINE      ---      ---       #273
      0000B502H   SYMBOL    EDATA    ---       pIfTab
      0000B506H   SYMBOL    EDATA    BYTE      ifNum
      0000B507H   SYMBOL    EDATA    BYTE      ifIdx
      0000B508H   SYMBOL    EDATA    BYTE      ifZeroIdx
      0000B509H   SYMBOL    EDATA    ---       pPllCfgRet
      0000B50BH   SYMBOL    EDATA    BYTE      ifBitShift
      ---         BLOCKEND  CODE     ---       LVL=1
      00FFBF94H   LINE      ---      ---       #274
      00FFBF94H   LINE      CODE     ---       #274

      00FFC7C1H   BLOCK     CODE     ---       LVL=0
      00FFC7C1H   LINE      ---      ---       #278
      00FFC7C5H   LINE      ---      ---       #281
      DR12        REGSYM    ---      DWORD     freq
      00FFC7C5H   BLOCK     CODE     NEAR LAB  LVL=1
      00FFC7C5H   LINE      ---      ---       #286
      00FFC7CDH   LINE      ---      ---       #289
      00FFC7EEH   LINE      ---      ---       #292
      00FFC7FAH   LINE      ---      ---       #294
      00FFC7FEH   LINE      ---      ---       #297
      00FFC80BH   LINE      ---      ---       #298
      00FFC82EH   LINE      ---      ---       #302
      00FFC834H   LINE      ---      ---       #303
      00FFC840H   LINE      ---      ---       #305
      00FFC84EH   LINE      ---      ---       #306
      00FFC864H   LINE      ---      ---       #309
      00FFC869H   LINE      ---      ---       #312
      00FFC88CH   LINE      ---      ---       #313
L251 LINKER/LOCATER V4.66.93.0                                                        12/18/2023  14:21:09  PAGE 206


      00FFC88CH   LINE      ---      ---       #316
      00FFC898H   LINE      ---      ---       #317
      00FFC8A6H   LINE      ---      ---       #318
      00FFC8A8H   LINE      ---      ---       #319
      00FFC8B8H   LINE      ---      ---       #322
      00FFC8BBH   LINE      ---      ---       #323
      00FFC8BBH   LINE      ---      ---       #327
      00FFC8C5H   LINE      ---      ---       #328
      00FFC8E0H   LINE      ---      ---       #330
      00FFC8FDH   LINE      ---      ---       #331
      00FFC90CH   LINE      ---      ---       #334
      00FFC914H   LINE      ---      ---       #335
      00FFC92AH   LINE      ---      ---       #336
      00FFC93CH   LINE      ---      ---       #337
      00FFC949H   LINE      ---      ---       #340
      00FFC953H   LINE      ---      ---       #341
      00FFC95FH   LINE      ---      ---       #342
      00FFC8BBH   SYMBOL    CODE     NEAR LAB  DONE?440?hal_rt569mp_rf
      0000B39EH   SYMBOL    EDATA    ---       pIfTab
      0000B3A2H   SYMBOL    EDATA    BYTE      ifNum
      0000B3A3H   SYMBOL    EDATA    BYTE      ifIdx
      0000B3A4H   SYMBOL    EDATA    BYTE      ifZeroIdx
      0000B3A5H   SYMBOL    EDATA    BYTE      bandIdx
      0000B3A6H   SYMBOL    EDATA    ---       pPllCfgRet
      0000B3A8H   SYMBOL    EDATA    DWORD     freqTarget
      0000B3ACH   SYMBOL    EDATA    DWORD     absTrxIf
      0000B3B0H   SYMBOL    EDATA    BYTE      ifBitShift
      00FFC8D2H   SYMBOL    CODE     NEAR LAB  DONE?440
      ---         BLOCKEND  CODE     ---       LVL=1
      00FFC975H   LINE      ---      ---       #343
      00FFC975H   LINE      CODE     ---       #343

      00FFC978H   BLOCK     CODE     ---       LVL=0
      00FFC978H   LINE      ---      ---       #346
      00FFC97AH   LINE      ---      ---       #431
      00FFC988H   LINE      ---      ---       #433
      00FFC98CH   LINE      ---      ---       #435
      00FFC995H   LINE      ---      ---       #436
      00FFC9A3H   LINE      ---      ---       #437
      00FFC9A8H   LINE      ---      ---       #438
      00FFC9B4H   LINE      ---      ---       #439
      00FFC9BDH   LINE      ---      ---       #440
      00FFC9C4H   LINE      ---      ---       #441
      00FFC9CFH   LINE      ---      ---       #442
      00FFC9DBH   LINE      ---      ---       #443
      00FFC9E2H   LINE      ---      ---       #444
      WR4         REGSYM    ---      INT       clkMode
      ---         BLOCKEND  ---      ---       LVL=0

      00FFC9E3H   BLOCK     CODE     ---       LVL=0
      00FFC9E3H   LINE      ---      ---       #562
      00FFC9E3H   LINE      ---      ---       #565
      ---         BLOCKEND  ---      ---       LVL=0

      00FFC9E4H   BLOCK     CODE     ---       LVL=0
      00FFC9E4H   LINE      ---      ---       #567
      00FFC9E4H   LINE      ---      ---       #570
      ---         BLOCKEND  ---      ---       LVL=0

      00FFACA7H   BLOCK     CODE     ---       LVL=0
      00FFACA7H   LINE      ---      ---       #573
      00FFACA9H   LINE      ---      ---       #576
      WR4         REGSYM    ---      INT       gainTabIdx
      00FFACA9H   BLOCK     CODE     NEAR LAB  LVL=1
      00FFACA9H   LINE      ---      ---       #577
L251 LINKER/LOCATER V4.66.93.0                                                        12/18/2023  14:21:09  PAGE 207


      00FFACAFH   LINE      ---      ---       #579
      00FFACC5H   LINE      ---      ---       #582
      00FFACC5H   LINE      ---      ---       #584
      00FFACCBH   LINE      ---      ---       #586
      00FFACCFH   LINE      ---      ---       #587
      00FFACCFH   LINE      ---      ---       #588
      00FFACEEH   LINE      ---      ---       #592
      00FFACF0H   LINE      ---      ---       #596
      00FFACF0H   LINE      ---      ---       #597
      00FFACF0H   LINE      ---      ---       #598
      00FFACF0H   LINE      ---      ---       #599
      00FFACF0H   LINE      ---      ---       #600
      00FFAD10H   LINE      ---      ---       #601
      00FFAD10H   LINE      ---      ---       #602
      00FFAD10H   LINE      ---      ---       #604
      WR6         REGSYM    ---      INT       rfkBand
      ---         BLOCKEND  CODE     ---       LVL=1
      00FFAD10H   LINE      ---      ---       #605
      00FFAD10H   LINE      CODE     ---       #605

      00FFAC65H   BLOCK     CODE     ---       LVL=0
      00FFAC65H   LINE      ---      ---       #608
      00FFAC65H   LINE      ---      ---       #609
      00FFAC65H   BLOCK     CODE     NEAR LAB  LVL=1
      00FFAC65H   LINE      ---      ---       #610
      00FFAC7DH   LINE      ---      ---       #613
      00FFAC83H   LINE      ---      ---       #615
      00FFAC8EH   LINE      ---      ---       #617
      00FFAC92H   LINE      ---      ---       #619
      00FFAC94H   LINE      ---      ---       #622
      00FFAC9FH   LINE      ---      ---       #624
      REG=3       REGSYM    ---      ---       pTxPwrCtrl
      ---         BLOCKEND  CODE     ---       LVL=1
      ---         BLOCKEND  CODE     ---       LVL=0

      00FFA78CH   BLOCK     CODE     ---       LVL=0
      00FFA78CH   LINE      ---      ---       #633
      00FFA78EH   LINE      ---      ---       #634
      00FFA78EH   BLOCK     CODE     NEAR LAB  LVL=1
      00FFA78EH   LINE      ---      ---       #636
      00FFA79BH   LINE      ---      ---       #640
      00FFA79FH   LINE      ---      ---       #641
      00FFA79FH   LINE      ---      ---       #644
      00FFA7A5H   LINE      ---      ---       #646
      00FFA7B3H   LINE      ---      ---       #647
      00FFA7C5H   LINE      ---      ---       #648
      00FFA7D8H   LINE      ---      ---       #649
      REG=7       REGSYM    ---      ---       pTxPwrCtrl
      ---         BLOCKEND  CODE     ---       LVL=1
      ---         BLOCKEND  CODE     ---       LVL=0

      00FF5724H   BLOCK     CODE     ---       LVL=0
      00FF5724H   LINE      ---      ---       #653
      00FF5724H   LINE      ---      ---       #654
      00FF5724H   BLOCK     CODE     NEAR LAB  LVL=1
      00FF5724H   LINE      ---      ---       #671
      00FF572AH   LINE      ---      ---       #673
      00FF574BH   LINE      ---      ---       #677
      00FF575CH   LINE      ---      ---       #678
      00FF5774H   LINE      ---      ---       #679
      00FF5777H   LINE      ---      ---       #680
      00FF5786H   LINE      ---      ---       #681
      00FF5795H   LINE      ---      ---       #683
      00FF57A2H   LINE      ---      ---       #686
      00FF57A5H   LINE      ---      ---       #688
L251 LINKER/LOCATER V4.66.93.0                                                        12/18/2023  14:21:09  PAGE 208


      00FF57ABH   LINE      ---      ---       #689
      00FF57B6H   LINE      ---      ---       #700
      WR6         REGSYM    ---      INT       type
      ---         BLOCKEND  CODE     ---       LVL=1
      00FF57B6H   LINE      ---      ---       #701
      00FF57B6H   LINE      CODE     ---       #701

      00FFC9E5H   BLOCK     CODE     ---       LVL=0
      00FFC9E5H   LINE      ---      ---       #703
      00FFC9E5H   LINE      ---      ---       #706
      ---         BLOCKEND  ---      ---       LVL=0

      ---         MODULE    ---      ---       hal_rt569mp_tcon
      00FFCAEFH   PUBLIC    CODE     ---       HALTCON_Init
      00FFCC19H   PUBLIC    CODE     ---       HALTCON_PreTxTimeSet
      00FFB09CH   PUBLIC    CODE     ---       HALTCON_TxTailDelayGet
      00FFB161H   PUBLIC    CODE     ---       HALTCON_RxTailDelayGet

      00FFCAEFH   BLOCK     CODE     ---       LVL=0
      00FFCAEFH   LINE      ---      ---       #25
      00FFCAEFH   LINE      ---      ---       #28
      00FFCAEFH   BLOCK     CODE     NEAR LAB  LVL=1
      00FFCAEFH   LINE      ---      ---       #32
      00FFCAEFH   LINE      ---      ---       #45
      00FFCAF3H   LINE      ---      ---       #48
      00FFCAFDH   LINE      ---      ---       #50
      00FFCAFDH   LINE      ---      ---       #52
      00FFCAFDH   LINE      ---      ---       #53
      00FFCB05H   LINE      ---      ---       #54
      00FFCB09H   LINE      ---      ---       #55
      00FFCB0DH   LINE      ---      ---       #56
      00FFCB11H   LINE      ---      ---       #57
      00FFCB15H   LINE      ---      ---       #58
      00FFCB17H   LINE      ---      ---       #62
      00FFCB17H   LINE      ---      ---       #63
      00FFCB1FH   LINE      ---      ---       #64
      00FFCB23H   LINE      ---      ---       #65
      00FFCB27H   LINE      ---      ---       #66
      00FFCB2BH   LINE      ---      ---       #67
      00FFCB2FH   LINE      ---      ---       #68
      00FFCB2FH   LINE      ---      ---       #70
      00FFCB2FH   LINE      ---      ---       #73
      00FFCB37H   LINE      ---      ---       #74
      00FFCB4BH   LINE      ---      ---       #75
      00FFCB57H   LINE      ---      ---       #76
      00FFCB60H   LINE      ---      ---       #77
      00FFCB7EH   LINE      ---      ---       #78
      00FFCB9AH   LINE      ---      ---       #81
      00FFCBA5H   LINE      ---      ---       #82
      00FFCBAEH   LINE      ---      ---       #83
      00FFCBBAH   LINE      ---      ---       #84
      00FFCBC3H   LINE      ---      ---       #85
      00FFCBCEH   LINE      ---      ---       #86
      00FFCBD5H   LINE      ---      ---       #87
      00FFCBDCH   LINE      ---      ---       #90
      00FFCBE3H   LINE      ---      ---       #91
      00FFCBEAH   LINE      ---      ---       #92
      00FFCBFEH   LINE      ---      ---       #95
      00FFCC05H   LINE      ---      ---       #96
      00FFCC0CH   LINE      ---      ---       #99
      00FFCC18H   LINE      ---      ---       #102
      R10         REGSYM    ---      BYTE      unitShift
      WR4         REGSYM    ---      WORD      txDelayTime
      WR2         REGSYM    ---      WORD      pllLockTime
      WR26        REGSYM    ---      WORD      paOnTime
L251 LINKER/LOCATER V4.66.93.0                                                        12/18/2023  14:21:09  PAGE 209


      WR0         REGSYM    ---      WORD      txOnTime
      WR28        REGSYM    ---      WORD      paOffTime
      WR30        REGSYM    ---      WORD      rxOnTime
      ---         BLOCKEND  CODE     ---       LVL=1
      00FFCC18H   LINE      ---      ---       #103
      00FFCC18H   LINE      CODE     ---       #103

      00FFCC19H   BLOCK     CODE     ---       LVL=0
      00FFCC19H   LINE      ---      ---       #105
      00FFCC1BH   LINE      ---      ---       #108
      WR2         REGSYM    ---      INT       dataBwIdx
      00FFCC1BH   BLOCK     CODE     NEAR LAB  LVL=1
      00FFCC1BH   LINE      ---      ---       #123
      00FFCC25H   LINE      ---      ---       #125
      00FFCC25H   LINE      ---      ---       #127
      00FFCC25H   LINE      ---      ---       #128
      00FFCC2DH   LINE      ---      ---       #129
      00FFCC2FH   LINE      ---      ---       #133
      00FFCC2FH   LINE      ---      ---       #134
      00FFCC37H   LINE      ---      ---       #135
      00FFCC37H   LINE      ---      ---       #137
      00FFCC37H   LINE      ---      ---       #140
      00FFCC3BH   LINE      ---      ---       #148
      00FFCC52H   LINE      ---      ---       #151
      00FFCC56H   LINE      ---      ---       #152
      00FFCC64H   LINE      ---      ---       #154
      00FFCC6DH   LINE      ---      ---       #157
      R11         REGSYM    ---      BYTE      unitShift
      WR4         REGSYM    ---      WORD      mdmTxDelayTime
      WR8         REGSYM    ---      WORD      pllLockTime
      ---         BLOCKEND  CODE     ---       LVL=1
      00FFCC6DH   LINE      ---      ---       #158
      00FFCC6DH   LINE      CODE     ---       #158

      00FFB09CH   BLOCK     CODE     ---       LVL=0
      00FFB09CH   LINE      ---      ---       #160
      00FFB09CH   LINE      ---      ---       #163
      WR6         REGSYM    ---      INT       dataBw
      00FFB09CH   BLOCK     CODE     NEAR LAB  LVL=1
      00FFB09CH   LINE      ---      ---       #167
      00FFB0B4H   LINE      ---      ---       #184
      00FFB0C5H   LINE      ---      ---       #187
      R11         REGSYM    ---      BYTE      delayTime
      ---         BLOCKEND  CODE     ---       LVL=1
      00FFB0C5H   LINE      ---      ---       #188
      00FFB0C5H   LINE      CODE     ---       #188

      00FFB15DH   BLOCK     CODE     ---       LVL=0
      00FFB161H   LINE      ---      ---       #190
      00FFB161H   LINE      ---      ---       #193
      00FFB15DH   SYMBOL    CODE     NEAR LAB  ?L?COM0045
      WR6         REGSYM    ---      INT       dataBw
      00FFB161H   BLOCK     CODE     NEAR LAB  LVL=1
      00FFB161H   LINE      ---      ---       #196
      00FFB16AH   LINE      ---      ---       #198
      00FFB16AH   LINE      ---      ---       #200
      00FFB16AH   LINE      ---      ---       #201
      00FFB182H   LINE      ---      ---       #205
      00FFB184H   LINE      ---      ---       #208
      00FFB184H   LINE      ---      ---       #209
      00FFB19CH   LINE      ---      ---       #210
      00FFB19CH   LINE      ---      ---       #218
      00FFB19CH   LINE      ---      ---       #221
      00FFB1A7H   LINE      ---      ---       #224
      R9          REGSYM    ---      BYTE      delayTime
L251 LINKER/LOCATER V4.66.93.0                                                        12/18/2023  14:21:09  PAGE 210


      ---         BLOCKEND  CODE     ---       LVL=1
      00FFB1A9H   LINE      ---      ---       #225
      00FFB1A9H   LINE      CODE     ---       #225

      ---         MODULE    ---      ---       hal_rt569mp_para
      00FF01E2H   PUBLIC    HCONST   ---       rfConfig
      00FF02B2H   PUBLIC    HCONST   ---       pmuConfig
      00FF039AH   PUBLIC    HCONST   ---       rfTabSideBnadK
      00FF074BH   PUBLIC    HCONST   ---       phyConfig

      ---         MODULE    ---      ---       hal_rt569mp_pmu
      00FFCC6EH   PUBLIC    CODE     ---       HALPMU_PwrModeSet
      00FFCC9BH   PUBLIC    CODE     ---       HALPMU_PwrModeGet

      00FFCC6EH   BLOCK     CODE     ---       LVL=0
      00FFCC6EH   LINE      ---      ---       #23
      00FFCC70H   LINE      ---      ---       #27
      00FFCC7CH   LINE      ---      ---       #28
      00FFCC81H   LINE      ---      ---       #29
      00FFCC87H   LINE      ---      ---       #30
      00FFCC8EH   LINE      ---      ---       #31
      00FFCC92H   LINE      ---      ---       #32
      00FFCC9AH   LINE      ---      ---       #35
      WR4         REGSYM    ---      INT       pwrMode
      ---         BLOCKEND  ---      ---       LVL=0

      00FFCC9BH   BLOCK     CODE     ---       LVL=0
      00FFCC9BH   LINE      ---      ---       #37
      00FFCC9BH   LINE      ---      ---       #39
      00FFCCA8H   LINE      ---      ---       #40
      00FFCCADH   LINE      ---      ---       #41
      00FFCCB0H   LINE      ---      ---       #42
      00FFCCB3H   LINE      ---      ---       #44
      00FFCCB7H   LINE      ---      ---       #45
      ---         BLOCKEND  ---      ---       LVL=0

      ---         MODULE    ---      ---       Ruci
      00FF47BEH   PUBLIC    CODE     ---       RUCI_endianConvert
      0000B3F1H   PUBLIC    EDATA    BYTE      ?RUCI_endianConvert?BYTE

      00FF47B4H   BLOCK     CODE     ---       LVL=0
      00FF47BEH   LINE      ---      ---       #23
      00FF47C2H   LINE      ---      ---       #29
      00FF47B4H   SYMBOL    CODE     NEAR LAB  ?L?COM0031
      REG=3       REGSYM    ---      ---       pDataIn
      R15         REGSYM    ---      BYTE      paraNum
      REG=0       REGSYM    ---      ---       pTypeMapIn
      0000B3F8H   SYMBOL    EDATA    ---       pElemNumMapIn
      00FF47C2H   BLOCK     CODE     NEAR LAB  LVL=1
      00FF47C2H   LINE      ---      ---       #37
      00FF47C4H   LINE      ---      ---       #38
      00FF47C8H   LINE      ---      ---       #39
      00FF47D0H   LINE      ---      ---       #41
      00FF47D5H   LINE      ---      ---       #43
      00FF47ECH   LINE      ---      ---       #45
      00FF47ECH   LINE      ---      ---       #48
      00FF47EFH   LINE      ---      ---       #57
      00FF47F6H   LINE      ---      ---       #58
      00FF47FEH   LINE      ---      ---       #59
      00FF4806H   LINE      ---      ---       #60
      00FF480EH   LINE      ---      ---       #61
      00FF4811H   LINE      ---      ---       #62
      00FF4819H   LINE      ---      ---       #63
      00FF4821H   LINE      ---      ---       #64
      00FF4829H   LINE      ---      ---       #66
L251 LINKER/LOCATER V4.66.93.0                                                        12/18/2023  14:21:09  PAGE 211


      00FF482BH   LINE      ---      ---       #67
      00FF4841H   LINE      ---      ---       #68
      00FF4843H   LINE      ---      ---       #70
      00FF4843H   LINE      ---      ---       #72
      00FF484AH   LINE      ---      ---       #74
      00FF484CH   LINE      ---      ---       #75
      00FF485AH   LINE      ---      ---       #76
      00FF485CH   LINE      ---      ---       #77
      00FF4872H   LINE      ---      ---       #78
      00FF4874H   LINE      ---      ---       #80
      00FF4874H   LINE      ---      ---       #82
      00FF487FH   LINE      ---      ---       #83
      00FF4881H   LINE      ---      ---       #85
      00FF4881H   LINE      ---      ---       #86
      00FF4884H   LINE      ---      ---       #87
      00FF4884H   LINE      ---      ---       #88
      00FF4884H   LINE      ---      ---       #90
      00FF488EH   LINE      ---      ---       #91
      00FF4898H   LINE      ---      ---       #92
      R14         REGSYM    ---      BYTE      paraIdx
      0000B3FCH   SYMBOL    EDATA    BYTE      elemIdx
      0000B3FDH   SYMBOL    EDATA    ---       pDwTemp
      REG=3       REGSYM    ---      ---       pWTemp
      REG=6       REGSYM    ---      ---       pData
      0000B401H   SYMBOL    EDATA    ---       pTypeMap
      0000B405H   SYMBOL    EDATA    ---       pElemNumMap
      ---         BLOCKEND  CODE     ---       LVL=1
      00FF48A1H   LINE      ---      ---       #93
      00FF48A1H   LINE      CODE     ---       #93

      ---         MODULE    ---      ---       Ruci_Pci15p4MacCmd
      00FF123CH   PUBLIC    HCONST   ---       Ruci_ElmtType_Set15p4AddressFilter
      00FF1244H   PUBLIC    HCONST   ---       Ruci_ElmtNum_Set15p4AddressFilter
      00FF124CH   PUBLIC    HCONST   ---       Ruci_ElmtType_Set15p4MacPib
      00FF1256H   PUBLIC    HCONST   ---       Ruci_ElmtNum_Set15p4MacPib
      00FF1260H   PUBLIC    HCONST   ---       Ruci_ElmtType_Set15p4PhyPib
      00FF1267H   PUBLIC    HCONST   ---       Ruci_ElmtNum_Set15p4PhyPib
      00FF126EH   PUBLIC    HCONST   ---       Ruci_ElmtType_SetCslReceiverCtrl
      00FF1273H   PUBLIC    HCONST   ---       Ruci_ElmtNum_SetCslReceiverCtrl
      00FF1278H   PUBLIC    HCONST   ---       Ruci_ElmtType_UpdateCslSampleTime
      00FF127CH   PUBLIC    HCONST   ---       Ruci_ElmtNum_UpdateCslSampleTime

      ---         MODULE    ---      ---       Ruci_PciBleCmd
      00FF1280H   PUBLIC    HCONST   ---       Ruci_ElmtType_SetBleMac
      00FF1287H   PUBLIC    HCONST   ---       Ruci_ElmtNum_SetBleMac
      00FF128EH   PUBLIC    HCONST   ---       Ruci_ElmtType_SetHtrpPara
      00FF129CH   PUBLIC    HCONST   ---       Ruci_ElmtNum_SetHtrpPara

      ---         MODULE    ---      ---       Ruci_PciCommonCmd
      00FF114BH   PUBLIC    HCONST   ---       Ruci_ElmtType_SetRfFrequency
      00FF114FH   PUBLIC    HCONST   ---       Ruci_ElmtNum_SetRfFrequency
      00FF1153H   PUBLIC    HCONST   ---       Ruci_ElmtType_SetWakeOnRadio
      00FF1159H   PUBLIC    HCONST   ---       Ruci_ElmtNum_SetWakeOnRadio
      00FF115FH   PUBLIC    HCONST   ---       Ruci_ElmtType_SetRxEnable
      00FF1163H   PUBLIC    HCONST   ---       Ruci_ElmtNum_SetRxEnable
      00FF1167H   PUBLIC    HCONST   ---       Ruci_ElmtType_SetDutyCycle
      00FF116CH   PUBLIC    HCONST   ---       Ruci_ElmtNum_SetDutyCycle
      00FF1171H   PUBLIC    HCONST   ---       Ruci_ElmtType_SetRfeTxEnable
      00FF117FH   PUBLIC    HCONST   ---       Ruci_ElmtNum_SetRfeTxEnable
      00FF118DH   PUBLIC    HCONST   ---       Ruci_ElmtType_SetRfeRxEnable
      00FF119AH   PUBLIC    HCONST   ---       Ruci_ElmtNum_SetRfeRxEnable

      ---         MODULE    ---      ---       Ruci_PciData
      00FF1327H   PUBLIC    HCONST   ---       Ruci_ElmtType_SetTxControlField
      00FF132CH   PUBLIC    HCONST   ---       Ruci_ElmtNum_SetTxControlField
L251 LINKER/LOCATER V4.66.93.0                                                        12/18/2023  14:21:09  PAGE 212


      00FF1331H   PUBLIC    HCONST   ---       Ruci_ElmtType_RxControlField
      00FF1337H   PUBLIC    HCONST   ---       Ruci_ElmtNum_RxControlField

      ---         MODULE    ---      ---       Ruci_PciEvent
      00FF133DH   PUBLIC    HCONST   ---       Ruci_ElmtType_GetRegEvent
      00FF1341H   PUBLIC    HCONST   ---       Ruci_ElmtNum_GetRegEvent
      00FF1345H   PUBLIC    HCONST   ---       Ruci_ElmtType_GetCrcReportEvent
      00FF134AH   PUBLIC    HCONST   ---       Ruci_ElmtNum_GetCrcReportEvent

      ---         MODULE    ---      ---       Ruci_PciFskCmd
      00FF135FH   PUBLIC    HCONST   ---       Ruci_ElmtType_SetFskSfd
      00FF1363H   PUBLIC    HCONST   ---       Ruci_ElmtNum_SetFskSfd

      ---         MODULE    ---      ---       Ruci_PciOqpskCmd

      ---         MODULE    ---      ---       Ruci_PciSlinkCmd

      ---         MODULE    ---      ---       Ruci_CmnEvent
      00FF12D1H   PUBLIC    HCONST   ---       Ruci_ElmtType_GetFwVerEvent
      00FF12D9H   PUBLIC    HCONST   ---       Ruci_ElmtNum_GetFwVerEvent
      00FF12E1H   PUBLIC    HCONST   ---       Ruci_ElmtType_GetTemperatureRptEvent
      00FF12E6H   PUBLIC    HCONST   ---       Ruci_ElmtNum_GetTemperatureRptEvent
      00FF12EBH   PUBLIC    HCONST   ---       Ruci_ElmtType_GetVoltageRptEvent
      00FF12F0H   PUBLIC    HCONST   ---       Ruci_ElmtNum_GetVoltageRptEvent

      ---         MODULE    ---      ---       Ruci_CmnHalCmd
      00FF12F5H   PUBLIC    HCONST   ---       Ruci_ElmtType_SetPmuMpkSetting
      00FF1302H   PUBLIC    HCONST   ---       Ruci_ElmtNum_SetPmuMpkSetting

      ---         MODULE    ---      ---       Ruci_CmnSysCmd

      ---         MODULE    ---      ---       ?C?INITEDATA
      00FF0123H   PUBLIC    CODE     ---       ?C?INITEDATA

      ---         MODULE    ---      ---       ?C?SIDIV
      00FF000EH   PUBLIC    CODE     ---       ?C?SIDIV

      ---         MODULE    ---      ---       ?C?LMUL
      00FF0040H   PUBLIC    CODE     ---       ?C?LMUL

      ---         MODULE    ---      ---       ?C?LIMUL
      00FF0051H   PUBLIC    CODE     ---       ?C?LIMUL

      ---         MODULE    ---      ---       ?C?ULDIV
      00FF005CH   PUBLIC    CODE     NEAR LAB  ?C?ULDIV
      00FF005AH   PUBLIC    CODE     NEAR LAB  ?C?ULIDIV

      ---         MODULE    ---      ---       memcpy
      00FF0190H   PUBLIC    CODE     ---       memcpy?_

      ---         MODULE    ---      ---       memset
      00FF01CEH   PUBLIC    CODE     ---       memset?_

      ---         MODULE    ---      ---       hmemcpy
      00FF01AFH   PUBLIC    CODE     ---       hmemcpy?_

      ---         MODULE    ---      ---       ?C?INITEDATA_END
      00FF0F93H   PUBLIC    HCONST   WORD      ?C?INITEDATA_END

      ---         MODULE    ---      ---       ?L?COMMON
      00FF949FH   LINE      ---      ---       #39
      00FF94A3H   LINE      ---      ---       #40
      00FF94A3H   LINE      ---      ---       #43
      00FF94AAH   LINE      ---      ---       #44
      00FF94B0H   LINE      ---      ---       #45
L251 LINKER/LOCATER V4.66.93.0                                                        12/18/2023  14:21:09  PAGE 213


      00FF94B4H   LINE      ---      ---       #46
      00FF94B4H   LINE      ---      ---       #47
      00FF94BEH   LINE      ---      ---       #48
      00FF94C0H   LINE      ---      ---       #50
      00FF94C3H   LINE      ---      ---       #51
      00FF94C5H   LINE      ---      ---       #53
      00FF94CFH   LINE      ---      ---       #54
      00FF94D7H   LINE      ---      ---       #55
      00FF94DEH   LINE      ---      ---       #59
      00FF94EAH   LINE      ---      ---       #60
      00FF94ECH   LINE      ---      ---       #61
      00FF94ECH   LINE      ---      ---       #62
      00FF94F5H   LINE      ---      ---       #65
      00FF94F7H   LINE      ---      ---       #66
      00FF9501H   LINE      ---      ---       #67
      00FF9508H   LINE      ---      ---       #68
      00FF9513H   LINE      ---      ---       #69
      00FF9533H   LINE      ---      ---       #70
      00FF953EH   LINE      ---      ---       #71
      00FF953EH   LINE      ---      ---       #73
      00FF953FH   LINE      ---      ---       #75
      00FF57B7H   SYMBOL    CODE     NEAR LAB  ?L?COM0006
      00FF5590H   SYMBOL    CODE     NEAR LAB  ?L?COM0008
      00FF33C5H   SYMBOL    CODE     NEAR LAB  ?L?COM000D
      00FFC3D1H   SYMBOL    CODE     NEAR LAB  ?L?COM0014
      00FF3EB1H   SYMBOL    CODE     NEAR LAB  ?L?COM0018
      00FFCCB8H   SYMBOL    CODE     NEAR LAB  ?L?COM001A
      00FF31D3H   SYMBOL    CODE     NEAR LAB  ?L?COM001B
      00FF33E5H   SYMBOL    CODE     NEAR LAB  ?L?COM001D
      00FF6FE7H   SYMBOL    CODE     NEAR LAB  ?L?COM001E
      00FFA7DBH   SYMBOL    CODE     NEAR LAB  ?L?COM0023
      00FFBD77H   SYMBOL    CODE     NEAR LAB  ?L?COM002B
      00FF57E5H   SYMBOL    CODE     NEAR LAB  ?L?COM0036
      00FF57F1H   SYMBOL    CODE     NEAR LAB  ?L?COM0037
      00FF8F86H   SYMBOL    CODE     NEAR LAB  ?L?COM0038
      00FF7569H   SYMBOL    CODE     NEAR LAB  ?L?COM0039
      00FF93D4H   SYMBOL    CODE     NEAR LAB  ?L?COM003D
      00FF9B63H   SYMBOL    CODE     NEAR LAB  ?L?COM003F
      00FFADBCH   SYMBOL    CODE     NEAR LAB  ?L?COM0040
      00FF37E4H   SYMBOL    CODE     NEAR LAB  ?L?COM0046
      00FF752EH   SYMBOL    CODE     NEAR LAB  ?L?COM0048
      00FF4258H   SYMBOL    CODE     NEAR LAB  ?L?COM004F

Program Size: data=16.0 edata+hdata=6387 xdata=0 const=4497 code=47944
L251 RUN COMPLETE.  0 WARNING(S),  0 ERROR(S)
