L251 LINKER/LOCATER V4.66.93.0                                                          12/18/2023  14:26:43  PAGE 1


L251 LINKER/LOCATER V4.66.93.0, INVOKED BY:
C:\KEIL_V5_C251\C251\BIN\L251.EXE .\obj\STARTUP251_RT569MP.obj, .\obj\main.obj, .\obj\rf_task_ctrl.obj, .\obj\intr_rf.ob
>> j, .\obj\sys_init.obj, .\obj\sys_task.obj, .\obj\isr_hdlr.obj, .\obj\sys_ctrl.obj, .\obj\sys_mem.obj, .\obj\sys_mem2.
>> obj, .\obj\sys_qctrl.obj, .\obj\sys_rtc.obj, .\obj\common_isr.obj, .\obj\common_cmd_hdlr.obj, .\obj\common_event_gen.
>> obj, .\obj\common_feature.obj, .\obj\bmu.obj, .\obj\bmu_cmd.obj, .\obj\bmu_common.obj, .\obj\bmu_rx.obj, .\obj\bmu_tx
>> .obj, .\obj\bmu_ble.obj, .\obj\mac.obj, .\obj\mac_frame_parse.obj, .\obj\mac_isr.obj, .\obj\mac_cmd_hdlr.obj, .\obj\m
>> ac_task_ctrl.obj, .\obj\ruci_data_parse.obj, .\obj\mac_event_gen.obj, .\obj\mac_RaaSchedule.obj, .\obj\mac_TarSchedul
>> e.obj, .\obj\mac_cad.obj, .\obj\mac_scheduler.obj, .\obj\mac_RfeRx.obj, .\obj\mac_RfeTx.obj, .\obj\mac_DtmRx.obj, .\o
>> bj\mac_DtmTx.obj, .\obj\mac_htrp_control.obj, .\obj\mac_htrp_rx.obj, .\obj\mac_htrp_tx.obj, .\obj\mac_srcmatch.obj, .
>> \obj\msg_ctrl.obj, .\obj\hal.obj, .\obj\hal_cfg.obj, .\obj\hal_mac.obj, .\obj\hal_para.obj, .\obj\hal_phy.obj, .\obj\
>> hal_pkt.obj, .\obj\hal_rf.obj, .\obj\hal_rfdb.obj, .\obj\hal_sec.obj, .\obj\hal_rfk.obj, .\obj\hal_io.obj, .\obj\hal_
>> init.obj, .\obj\hal_patch.obj, .\obj\hal_prtcl.obj, .\obj\hal_rt569mp_init.obj, .\obj\rt569mp_mem.obj, .\obj\rt569mp_
>> reg.obj, .\obj\hal_rt569mp_rfk.obj, .\obj\hal_rt569mp_rf.obj, .\obj\hal_rt569mp_tcon.obj, .\obj\hal_rt569mp_para.obj,
>>  .\obj\hal_rt569mp_pmu.obj, .\obj\Ruci.obj, .\obj\Ruci_Pci15p4MacCmd.obj, .\obj\Ruci_PciBleCmd.obj, .\obj\Ruci_PciCom
>> monCmd.obj, .\obj\Ruci_PciData.obj, .\obj\Ruci_PciEvent.obj, .\obj\Ruci_PciFskCmd.obj, .\obj\Ruci_PciOqpskCmd.obj, .\
>> obj\Ruci_PciSlinkCmd.obj, .\obj\Ruci_CmnEvent.obj, .\obj\Ruci_CmnHalCmd.obj, .\obj\Ruci_CmnSysCmd.obj TO .\obj\RT569 
>> NOOVERLAY REMOVEUNUSED CLASSES (DATA (0X0000-0X007F), IDATA (0X0080-0X0090), EDATA (0XA000-0XBFFF), CODE (0XFF0000-0X
>> FFA3FF), ECODE (0XFF0000-0XFFA3FF), HCONST (0XFF0000-0XFFA3FF))


CPU MODE:     251 SOURCE MODE
INTR FRAME:   4 BYTES SAVED ON INTERRUPT
MEMORY MODEL: XTINY [HUGE PTR]


INPUT MODULES INCLUDED:
  .\obj\STARTUP251_RT569MP.obj (?C_START)
         COMMENT TYPE 0: A251 V4.69.13.0
  .\obj\main.obj (main)
         COMMENT TYPE 0: C251 V5.60.0
  .\obj\rf_task_ctrl.obj (rf_task_ctrl)
         COMMENT TYPE 0: C251 V5.60.0
  .\obj\intr_rf.obj (intr_rf)
         COMMENT TYPE 0: C251 V5.60.0
  .\obj\sys_init.obj (sys_init)
         COMMENT TYPE 0: C251 V5.60.0
  .\obj\sys_task.obj (sys_task)
         COMMENT TYPE 0: C251 V5.60.0
  .\obj\isr_hdlr.obj (isr_hdlr)
         COMMENT TYPE 0: C251 V5.60.0
  .\obj\sys_ctrl.obj (sys_ctrl)
         COMMENT TYPE 0: C251 V5.60.0
  .\obj\sys_mem.obj (SYS_MEM)
         COMMENT TYPE 0: A251 V4.69.13.0
  .\obj\sys_mem2.obj (SYS_MEM2)
         COMMENT TYPE 0: A251 V4.69.13.0
  .\obj\sys_qctrl.obj (sys_qctrl)
         COMMENT TYPE 0: C251 V5.60.0
  .\obj\sys_rtc.obj (sys_rtc)
         COMMENT TYPE 0: C251 V5.60.0
  .\obj\common_isr.obj (common_isr)
         COMMENT TYPE 0: C251 V5.60.0
  .\obj\common_cmd_hdlr.obj (common_cmd_hdlr)
         COMMENT TYPE 0: C251 V5.60.0
  .\obj\common_event_gen.obj (common_event_gen)
         COMMENT TYPE 0: C251 V5.60.0
  .\obj\common_feature.obj (common_feature)
         COMMENT TYPE 0: C251 V5.60.0
  .\obj\bmu.obj (bmu)
         COMMENT TYPE 0: C251 V5.60.0
  .\obj\bmu_cmd.obj (bmu_cmd)
         COMMENT TYPE 0: C251 V5.60.0
  .\obj\bmu_common.obj (bmu_common)
         COMMENT TYPE 0: C251 V5.60.0
  .\obj\bmu_rx.obj (bmu_rx)
         COMMENT TYPE 0: C251 V5.60.0
L251 LINKER/LOCATER V4.66.93.0                                                        12/18/2023  14:26:43  PAGE 2


  .\obj\bmu_tx.obj (bmu_tx)
         COMMENT TYPE 0: C251 V5.60.0
  .\obj\bmu_ble.obj (bmu_ble)
         COMMENT TYPE 0: C251 V5.60.0
  .\obj\mac.obj (mac)
         COMMENT TYPE 0: C251 V5.60.0
  .\obj\mac_frame_parse.obj (mac_frame_parse)
         COMMENT TYPE 0: C251 V5.60.0
  .\obj\mac_isr.obj (mac_isr)
         COMMENT TYPE 0: C251 V5.60.0
  .\obj\mac_cmd_hdlr.obj (mac_cmd_hdlr)
         COMMENT TYPE 0: C251 V5.60.0
  .\obj\mac_task_ctrl.obj (mac_task_ctrl)
         COMMENT TYPE 0: C251 V5.60.0
  .\obj\ruci_data_parse.obj (ruci_data_parse)
         COMMENT TYPE 0: C251 V5.60.0
  .\obj\mac_event_gen.obj (mac_event_gen)
         COMMENT TYPE 0: C251 V5.60.0
  .\obj\mac_RaaSchedule.obj (mac_RaaSchedule)
         COMMENT TYPE 0: C251 V5.60.0
  .\obj\mac_TarSchedule.obj (mac_TarSchedule)
         COMMENT TYPE 0: C251 V5.60.0
  .\obj\mac_cad.obj (mac_cad)
         COMMENT TYPE 0: C251 V5.60.0
  .\obj\mac_scheduler.obj (mac_scheduler)
         COMMENT TYPE 0: C251 V5.60.0
  .\obj\mac_RfeRx.obj (mac_RfeRx)
         COMMENT TYPE 0: C251 V5.60.0
  .\obj\mac_RfeTx.obj (mac_RfeTx)
         COMMENT TYPE 0: C251 V5.60.0
  .\obj\mac_DtmRx.obj (mac_DtmRx)
         COMMENT TYPE 0: C251 V5.60.0
  .\obj\mac_DtmTx.obj (mac_DtmTx)
         COMMENT TYPE 0: C251 V5.60.0
  .\obj\mac_htrp_control.obj (mac_htrp_control)
         COMMENT TYPE 0: C251 V5.60.0
  .\obj\mac_htrp_rx.obj (mac_htrp_rx)
         COMMENT TYPE 0: C251 V5.60.0
  .\obj\mac_htrp_tx.obj (mac_htrp_tx)
         COMMENT TYPE 0: C251 V5.60.0
  .\obj\mac_srcmatch.obj (mac_srcmatch)
         COMMENT TYPE 0: C251 V5.60.0
  .\obj\msg_ctrl.obj (msg_ctrl)
         COMMENT TYPE 0: C251 V5.60.0
  .\obj\hal.obj (hal)
         COMMENT TYPE 0: C251 V5.60.0
  .\obj\hal_cfg.obj (hal_cfg)
         COMMENT TYPE 0: C251 V5.60.0
  .\obj\hal_mac.obj (hal_mac)
         COMMENT TYPE 0: C251 V5.60.0
  .\obj\hal_para.obj (hal_para)
         COMMENT TYPE 0: C251 V5.60.0
  .\obj\hal_phy.obj (hal_phy)
         COMMENT TYPE 0: C251 V5.60.0
  .\obj\hal_pkt.obj (hal_pkt)
         COMMENT TYPE 0: C251 V5.60.0
  .\obj\hal_rf.obj (hal_rf)
         COMMENT TYPE 0: C251 V5.60.0
  .\obj\hal_rfdb.obj (hal_rfdb)
         COMMENT TYPE 0: C251 V5.60.0
  .\obj\hal_sec.obj (hal_sec)
         COMMENT TYPE 0: C251 V5.60.0
  .\obj\hal_rfk.obj (hal_rfk)
         COMMENT TYPE 0: C251 V5.60.0
  .\obj\hal_io.obj (hal_io)
L251 LINKER/LOCATER V4.66.93.0                                                        12/18/2023  14:26:43  PAGE 3


         COMMENT TYPE 0: C251 V5.60.0
  .\obj\hal_init.obj (hal_init)
         COMMENT TYPE 0: C251 V5.60.0
  .\obj\hal_patch.obj (hal_patch)
         COMMENT TYPE 0: C251 V5.60.0
  .\obj\hal_prtcl.obj (hal_prtcl)
         COMMENT TYPE 0: C251 V5.60.0
  .\obj\hal_rt569mp_init.obj (hal_rt569mp_init)
         COMMENT TYPE 0: C251 V5.60.0
  .\obj\rt569mp_mem.obj (rt569mp_mem)
         COMMENT TYPE 0: C251 V5.60.0
  .\obj\rt569mp_reg.obj (rt569mp_reg)
         COMMENT TYPE 0: C251 V5.60.0
  .\obj\hal_rt569mp_rfk.obj (hal_rt569mp_rfk)
         COMMENT TYPE 0: C251 V5.60.0
  .\obj\hal_rt569mp_rf.obj (hal_rt569mp_rf)
         COMMENT TYPE 0: C251 V5.60.0
  .\obj\hal_rt569mp_tcon.obj (hal_rt569mp_tcon)
         COMMENT TYPE 0: C251 V5.60.0
  .\obj\hal_rt569mp_para.obj (hal_rt569mp_para)
         COMMENT TYPE 0: C251 V5.60.0
  .\obj\hal_rt569mp_pmu.obj (hal_rt569mp_pmu)
         COMMENT TYPE 0: C251 V5.60.0
  .\obj\Ruci.obj (Ruci)
         COMMENT TYPE 0: C251 V5.60.0
  .\obj\Ruci_Pci15p4MacCmd.obj (Ruci_Pci15p4MacCmd)
         COMMENT TYPE 0: C251 V5.60.0
  .\obj\Ruci_PciBleCmd.obj (Ruci_PciBleCmd)
         COMMENT TYPE 0: C251 V5.60.0
  .\obj\Ruci_PciCommonCmd.obj (Ruci_PciCommonCmd)
         COMMENT TYPE 0: C251 V5.60.0
  .\obj\Ruci_PciData.obj (Ruci_PciData)
         COMMENT TYPE 0: C251 V5.60.0
  .\obj\Ruci_PciEvent.obj (Ruci_PciEvent)
         COMMENT TYPE 0: C251 V5.60.0
  .\obj\Ruci_PciFskCmd.obj (Ruci_PciFskCmd)
         COMMENT TYPE 0: C251 V5.60.0
  .\obj\Ruci_PciOqpskCmd.obj (Ruci_PciOqpskCmd)
         COMMENT TYPE 0: C251 V5.60.0
  .\obj\Ruci_PciSlinkCmd.obj (Ruci_PciSlinkCmd)
         COMMENT TYPE 0: C251 V5.60.0
  .\obj\Ruci_CmnEvent.obj (Ruci_CmnEvent)
         COMMENT TYPE 0: C251 V5.60.0
  .\obj\Ruci_CmnHalCmd.obj (Ruci_CmnHalCmd)
         COMMENT TYPE 0: C251 V5.60.0
  .\obj\Ruci_CmnSysCmd.obj (Ruci_CmnSysCmd)
         COMMENT TYPE 0: C251 V5.60.0
  C:\KEIL_V5_C251\C251\LIB\C2SXT.LIB (?C?INITEDATA)
         COMMENT TYPE 0: A251 V4.69.6.0
  C:\KEIL_V5_C251\C251\LIB\C2SXT.LIB (?C?SIDIV)
         COMMENT TYPE 0: A251 V4.69.6.0
  C:\KEIL_V5_C251\C251\LIB\C2SXT.LIB (?C?LMUL)
         COMMENT TYPE 0: A251 V4.69.6.0
  C:\KEIL_V5_C251\C251\LIB\C2SXT.LIB (?C?LIMUL)
         COMMENT TYPE 0: A251 V4.69.6.0
  C:\KEIL_V5_C251\C251\LIB\C2SXT.LIB (?C?ULDIV)
         COMMENT TYPE 0: A251 V4.69.6.0
  C:\KEIL_V5_C251\C251\LIB\C2SXT.LIB (memset)
         COMMENT TYPE 0: C251 V5.58.7
  C:\KEIL_V5_C251\C251\LIB\C2SXT.LIB (hmemcpy)
         COMMENT TYPE 0: C251 V5.58.7
  C:\KEIL_V5_C251\C251\LIB\C2SXT.LIB (?C?INITEDATA_END)
         COMMENT TYPE 0: A251 V4.69.6.0


L251 LINKER/LOCATER V4.66.93.0                                                        12/18/2023  14:26:43  PAGE 4


ACTIVE MEMORY CLASSES OF MODULE:  .\obj\RT569 (?C_START)

BASE        START       END         USED      MEMORY CLASS
==========================================================
000000H     000000H     00007FH     000010H   DATA
000000H     000080H     000090H               IDATA
000000H     00A000H     00BFFFH     00129AH   EDATA
FF0000H     FF0000H     FFA3FFH     00877EH   CODE
000000H     FF0000H     FFA3FFH               ECODE
000000H     FF0000H     FFA3FFH     00108BH   HCONST
000000H     008000H     00FFFFH     000002H   NCONST


MEMORY MAP OF MODULE:  .\obj\RT569 (?C_START)


START     STOP      LENGTH    ALIGN  RELOC    MEMORY CLASS   SEGMENT NAME
=========================================================================
000000H   000007H   000008H   ---    AT..     DATA           "REG BANK 0"
000008H   00000FH   000008H   ---    AT..     DATA           "REG BANK 1"
000010H   0000FFH   0000F0H   ---    ---      **GAP**
000100H   0003FFH   000300H   BYTE   AT..     EDATA          ?STACK
000400H   007FFFH   007C00H   ---    ---      **GAP**
008000H   008001H   000002H   BYTE   UNIT     NCONST         ?NC?MAC_RAASCHEDULE
008002H   009FFFH   001FFEH   ---    ---      **GAP**
00A000H   00A8BCH   0008BDH   BYTE   UNIT     EDATA          ?ED?MAC_TARSCHEDULE
00A8BDH   00AB52H   000296H   BYTE   UNIT     EDATA          ?ED?SYS_QCTRL
00AB53H   00AC93H   000141H   BYTE   UNIT     EDATA          ?ED?HAL_INIT
00AC94H   00AD21H   00008EH   BYTE   UNIT     EDATA          ?ED?COMMON_ISR
00AD22H   00AD56H   000035H   BYTE   UNIT     EDATA          ?ED?MAC
00AD57H   00AD87H   000031H   BYTE   UNIT     EDATA          ?ED?MAC_RAASCHEDULE
00AD88H   00ADACH   000025H   BYTE   UNIT     EDATA          ?ED?MAC_TAR_CHECK_DATA_REQUST?MAC_TARSCHEDULE
00ADADH   00ADCEH   000022H   BYTE   UNIT     EDATA          ?ED?HALRFK_CALIBRATION?HAL_RFK
00ADCFH   00ADEBH   00001DH   BYTE   UNIT     EDATA          ?ED?MAC_CMD_HDLR
00ADECH   00AE04H   000019H   BYTE   UNIT     EDATA          ?ED?MAC_RFERX
00AE05H   00AE1BH   000017H   BYTE   UNIT     EDATA          ?ED?T2RTASK_SET?MAC_TASK_CTRL
00AE1CH   00AE2EH   000013H   BYTE   UNIT     EDATA          ?ED?HALRF_FREQSUBGCFG?HAL_RT569MP_RF
00AE2FH   00AE40H   000012H   BYTE   UNIT     EDATA          ?ED?TXCONTTASK_SET?MAC_TASK_CTRL
00AE41H   00AE51H   000011H   BYTE   UNIT     EDATA          ?ED?MAC_RFETX
00AE52H   00AE62H   000011H   BYTE   UNIT     EDATA          ?ED?RUCI_ENDIANCONVERT?RUCI
00AE63H   00AE72H   000010H   BYTE   UNIT     EDATA          ?ED?INTR_RF
00AE73H   00AE80H   00000EH   BYTE   UNIT     EDATA          ?ED?RXTASK_ALWAYSON_SET?MAC_TASK_CTRL
00AE81H   00AE8EH   00000EH   BYTE   UNIT     EDATA          ?ED?RXTASK_TIMEOUT_SET?MAC_TASK_CTRL
00AE8FH   00AE9CH   00000EH   BYTE   UNIT     EDATA          ?ED?TXTASK_SET?MAC_TASK_CTRL
00AE9DH   00AEAAH   00000EH   BYTE   UNIT     EDATA          ?ED?TXRTCTASK_SET?MAC_TASK_CTRL
00AEABH   00AEB6H   00000CH   BYTE   UNIT     EDATA          ?ED?COMMON_ISRBMUCHECKTX?COMMON_ISR
00AEB7H   00AEC2H   00000CH   BYTE   UNIT     EDATA          ?ED?BMU_TRXQUEUEGET?BMU_COMMON
00AEC3H   00AECEH   00000CH   BYTE   UNIT     EDATA          ?ED?BMU_TRXQUEUESET?BMU_COMMON
00AECFH   00AEDAH   00000CH   BYTE   UNIT     EDATA          ?ED?MAC_RFETXSCHEDULE?MAC_RFETX
00AEDBH   00AEE4H   00000AH   BYTE   UNIT     EDATA          ?ED?HALRF_FREQ2GCFG?HAL_RT569MP_RF
00AEE5H   00AEEDH   000009H   BYTE   UNIT     EDATA          ?ED?HALRFK_TXSBK?HAL_RT569MP_RFK
00AEEEH   00AEF5H   000008H   BYTE   UNIT     EDATA          ?ED?Q_QPUSHBACK?SYS_QCTRL
00AEF6H   00AEFDH   000008H   BYTE   UNIT     EDATA          ?ED?MAC_ISR
00AEFEH   00AF05H   000008H   BYTE   UNIT     EDATA          ?ED?MAC_RAA_SCHCONFIGHDLR?MAC_RAASCHEDULE
00AF06H   00AF0DH   000008H   BYTE   UNIT     EDATA          ?ED?MAC_TAR_SCHCONFIGHDLR?MAC_TARSCHEDULE
00AF0EH   00AF15H   000008H   BYTE   UNIT     EDATA          ?ED?MAC_RFERXSCHEDULE?MAC_RFERX
00AF16H   00AF1CH   000007H   BYTE   UNIT     EDATA          ?ED?HALPHY_RXBWSET?HAL_PHY
00AF1DH   00AF22H   000006H   BYTE   UNIT     EDATA          ?ED?SYS_CTRL
00AF23H   00AF28H   000006H   BYTE   UNIT     EDATA          ?ED?SYS_RAND?SYS_CTRL
00AF29H   00AF2EH   000006H   BYTE   UNIT     EDATA          ?ED?Q_QPUSHFRONT?SYS_QCTRL
00AF2FH   00AF34H   000006H   BYTE   UNIT     EDATA          ?ED?SYS_RTC
00AF35H   00AF3AH   000006H   BYTE   UNIT     EDATA          ?ED?HALRFK_RXFILTK?HAL_RT569MP_RFK
00AF3BH   00AF3FH   000005H   BYTE   UNIT     EDATA          ?ED?SYS_TASK
00AF40H   00AF44H   000005H   BYTE   UNIT     EDATA          ?ED?MSG_CTRL
00AF45H   00AF48H   000004H   BYTE   UNIT     EDATA          ?ED?RTC_UDELAY?SYS_RTC
L251 LINKER/LOCATER V4.66.93.0                                                        12/18/2023  14:26:43  PAGE 5


00AF49H   00AF4CH   000004H   BYTE   UNIT     EDATA          ?ED?BMU_MEMALLOCATE?BMU
00AF4DH   00AF50H   000004H   BYTE   UNIT     EDATA          ?ED?BMU_PRIVACYIRKSINGLESEARCH?BMU_BLE
00AF51H   00AF54H   000004H   BYTE   UNIT     EDATA          ?ED?PCI_SETRFFREQ?MAC_CMD_HDLR
00AF55H   00AF58H   000004H   BYTE   UNIT     EDATA          ?ED?MAC_TASK_CTRL
00AF59H   00AF5CH   000004H   BYTE   UNIT     EDATA          ?ED?MAC_SECLBHWSET?MAC_TARSCHEDULE
00AF5DH   00AF60H   000004H   BYTE   UNIT     EDATA          ?ED?MAC_CCASTART?MAC_TARSCHEDULE
00AF61H   00AF64H   000004H   BYTE   UNIT     EDATA          ?ED?HALSEC_AESSET?HAL_SEC
00AF65H   00AF68H   000004H   BYTE   UNIT     EDATA          ?ED?HAL_HWINIT?HAL_RT569MP_INIT
00AF69H   00AF6CH   000004H   BYTE   UNIT     EDATA          ?ED?HAL_RT569MP_RFK
00AF6DH   00AF70H   000004H   BYTE   UNIT     EDATA          ?ED?HALRFK_TXLOK?HAL_RT569MP_RFK
00AF71H   00AF74H   000004H   BYTE   UNIT     EDATA          ?ED?HALRF_IFCHECK?HAL_RT569MP_RF
00AF75H   00AF77H   000003H   BYTE   UNIT     EDATA          ?ED?Q_QCHAGETYPE?SYS_QCTRL
00AF78H   00AF7AH   000003H   BYTE   UNIT     EDATA          ?ED?PCI_SETWAKEONRADIO?MAC_CMD_HDLR
00AF7BH   00AF7DH   000003H   BYTE   UNIT     EDATA          ?ED?MAC_TXHWSET?MAC_TARSCHEDULE
00AF7EH   00AF80H   000003H   BYTE   UNIT     EDATA          ?ED?HALRFK_RINGPLLSET?HAL_RT569MP_RFK
00AF81H   00AF82H   000002H   BYTE   UNIT     EDATA          ?ED?BMU_HWINIT?BMU
00AF83H   00AF84H   000002H   BYTE   UNIT     EDATA          ?ED?BMU_COMMON
00AF85H   00AF86H   000002H   BYTE   UNIT     EDATA          ?ED?PCI_SETPHR?MAC_CMD_HDLR
00AF87H   00AF88H   000002H   BYTE   UNIT     EDATA          ?ED?MAC_GENACK?MAC_RAASCHEDULE
00AF89H   00AF8AH   000002H   BYTE   UNIT     EDATA          ?ED?MAC_RFEDATAGEN?MAC_RFETX
00AF8BH   00AF8CH   000002H   BYTE   UNIT     EDATA          ?ED?MSG_INMSGPROC?MSG_CTRL
00AF8DH   00AF8EH   000002H   BYTE   UNIT     EDATA          ?ED?HAL_RF
00AF8FH   00AF8FH   000001H   BYTE   UNIT     EDATA          ?ED?COMMON_ISRBMUTXQPCIGET?COMMON_ISR
00AF90H   00AF90H   000001H   BYTE   UNIT     EDATA          ?ED?BMU_H2MCMDGET?BMU_CMD
00AF91H   00AF91H   000001H   BYTE   UNIT     EDATA          ?ED?BMU_PRIVACYLOCALRPAGEN?BMU_BLE
00AF92H   00AF92H   000001H   BYTE   UNIT     EDATA          ?ED?MAC_TRXPAR_INIT?MAC
00AF93H   00AF93H   000001H   BYTE   UNIT     EDATA          ?ED?GET_PAN_NUMBER?MAC_CMD_HDLR
00AF94H   00AF94H   000001H   BYTE   UNIT     EDATA          ?ED?PCI_SETCLOCKMODE?MAC_CMD_HDLR
00AF95H   00AF95H   000001H   BYTE   UNIT     EDATA          ?ED?MAC_CMDQUEUEPARSE?MAC_CMD_HDLR
00AF96H   00AF96H   000001H   BYTE   UNIT     EDATA          ?ED?MAC_BACKOFFTIMECAL?MAC_TARSCHEDULE
00AF97H   00AF97H   000001H   BYTE   UNIT     EDATA          ?ED?MAC_TAR_SCHWAITCCADONEHDLR?MAC_TARSCHEDULE
00AF98H   00AF98H   000001H   BYTE   UNIT     EDATA          ?ED?MAC_RFERXDATACONFIRM?MAC_RFERX
00AF99H   00AF99H   000001H   BYTE   UNIT     EDATA          ?ED?HALRFK_RSSIGET?HAL_RT569MP_RFK
00AF9AH   FEFFFFH   FE5066H   ---    ---      **GAP**
FF0000H   FF0002H   000003H   ---    OFFS..   CODE           ?CO?STARTUP251_RT569MP?4
FF0003H   FF0005H   000003H   ---    OFFS..   CODE           ?PR?IV?0
FF0006H   FF0007H   000002H   BYTE   UNIT     HCONST         ?HC?RT569MP_REG
FF0008H   FF000AH   000003H   BYTE   INSEG    CODE           ?PR?ALLTASK_STOP?MAC_TASK_CTRL
FF000BH   FF000DH   000003H   ---    OFFS..   CODE           ?PR?IV?1
FF000EH   FF00ACH   00009FH   BYTE   UNIT     CODE           ?C?LIB_CODE
FF00ADH   FF010BH   00005FH   BYTE   UNIT     CODE           ?PR?ASM_MEMCPY??SYS_MEM2
FF010CH   FF0122H   000017H   BYTE   UNIT     CODE           ?C_C51STARTUP
FF0123H   FF014BH   000029H   BYTE   UNIT     CODE           ?C_C51STARTUP?2
FF014CH   FF014EH   000003H   BYTE   UNIT     CODE           ?C_C51STARTUP?3
FF014FH   FF018FH   000041H   BYTE   UNIT     CODE           ?PR?ASM_MEMSET??SYS_MEM
FF0190H   FF01AEH   00001FH   BYTE   INSEG    CODE           ?PR?HMEMCPY?_?HMEMCPY
FF01AFH   FF01C2H   000014H   BYTE   INSEG    CODE           ?PR?MEMSET?_?MEMSET
FF01C3H   FF080BH   000649H   BYTE   UNIT     HCONST         ?HC?HAL_RT569MP_PARA
FF080CH   FF0CBEH   0004B3H   BYTE   UNIT     HCONST         ?HC?HAL_PARA
FF0CBFH   FF0E73H   0001B5H   BYTE   UNIT     HCONST         ?C_INITEDATA
FF0E74H   FF0F79H   000106H   BYTE   UNIT     HCONST         ?HC?MAC_RFETX
FF0F7AH   FF1029H   0000B0H   BYTE   UNIT     HCONST         ?HC?HAL_CFG
FF102AH   FF1085H   00005CH   BYTE   UNIT     HCONST         ?HC?RUCI_PCICOMMONCMD
FF1086H   FF10D6H   000051H   BYTE   UNIT     HCONST         ?HC?MAC_CMD_HDLR
FF10D7H   FF111AH   000044H   BYTE   UNIT     HCONST         ?HC?HAL_INIT
FF111BH   FF115EH   000044H   BYTE   UNIT     HCONST         ?HC?RUCI_PCI15P4MACCMD
FF115FH   FF1188H   00002AH   BYTE   UNIT     HCONST         ?HC?RUCI_PCIBLECMD
FF1189H   FF11AFH   000027H   BYTE   UNIT     HCONST         ?HC?HAL_PRTCL
FF11B0H   FF11D3H   000024H   BYTE   UNIT     HCONST         ?HC?RUCI_CMNEVENT
FF11D4H   FF11EDH   00001AH   BYTE   UNIT     HCONST         ?HC?RUCI_CMNHALCMD
FF11EEH   FF1205H   000018H   BYTE   UNIT     HCONST         ?HC?HAL_RT569MP_RF
FF1206H   FF121BH   000016H   BYTE   UNIT     HCONST         ?HC?RUCI_PCIDATA
FF121CH   FF122DH   000012H   BYTE   UNIT     HCONST         ?HC?RUCI_PCIEVENT
FF122EH   FF123DH   000010H   BYTE   UNIT     HCONST         ?HC?BMU_COMMON
FF123EH   FF1245H   000008H   BYTE   UNIT     HCONST         ?HC?RUCI_PCIFSKCMD
L251 LINKER/LOCATER V4.66.93.0                                                        12/18/2023  14:26:43  PAGE 6


FF1246H   FF124BH   000006H   BYTE   UNIT     HCONST         ?HC?RT569MP_MEM
FF124CH   FF1252H   000007H   BYTE   INSEG    CODE           ?PR?MAIN?MAIN
FF1253H   FF128BH   000039H   BYTE   INSEG    CODE           ?PR?SYS_INIT?SYS_INIT
FF128CH   FF1298H   00000DH   BYTE   INSEG    CODE           ?PR?SYS_IDLETASKINIT?SYS_CTRL
FF1299H   FF12ABH   000013H   BYTE   INSEG    CODE           ?PR?MSG_HDLRINIT?MSG_CTRL
FF12ACH   FF12B7H   00000CH   BYTE   INSEG    CODE           ?PR?SYS_IDLETASKINTINIT?SYS_CTRL
FF12B8H   FF1304H   00004DH   BYTE   INSEG    CODE           ?PR?INTR_RF_REGISTER?INTR_RF
FF1305H   FF1313H   00000FH   BYTE   INSEG    CODE           ?PR?COMMON_ISR_INIT?COMMON_ISR
FF1314H   FF1333H   000020H   BYTE   INSEG    CODE           ?PR?MAC_INIT?MAC
FF1334H   FF1375H   000042H   BYTE   INSEG    CODE           ?PR?RF_TASK_ALLSTOP?RF_TASK_CTRL
FF1376H   FF159EH   000229H   BYTE   INSEG    CODE           ?PR?MAC_RFETXSCHEDULE?MAC_RFETX
FF159FH   FF15E5H   000047H   BYTE   INSEG    CODE           ?PR?SYS_TRAP?SYS_CTRL
FF15E6H   FF1612H   00002DH   BYTE   INSEG    CODE           ?PR?MAC_FUNEVENTQGET?_?MAC
FF1613H   FF1669H   000057H   BYTE   INSEG    CODE           ?PR?MSG_INMSGPROC?MSG_CTRL
FF166AH   FF173BH   0000D2H   BYTE   INSEG    CODE           ?PR?SETRFIDLE?MAC_CMD_HDLR
FF173CH   FF1766H   00002BH   BYTE   INSEG    CODE           ?PR?SYS_TASK_UNBLOCK?SYS_TASK
FF1767H   FF1775H   00000FH   BYTE   INSEG    CODE           ?PR?MAC_FUNEVENTQUEUEEXIST?MAC
FF1776H   FF1791H   00001CH   BYTE   INSEG    CODE           ?PR?Q_MEMGET?SYS_QCTRL
FF1792H   FF17E0H   00004FH   BYTE   INSEG    CODE           ?PR?MAC_RAA_SCHWAITRXDONEHDLR?MAC_RAASCHEDULE
FF17E1H   FF17ECH   00000CH   BYTE   INSEG    CODE           ?PR?MAC_ISRINIT?MAC_ISR
FF17EDH   FF17F1H   000005H   BYTE   INSEG    CODE           ?PR?INTR_ENABLE?INTR_RF
FF17F2H   FF17FBH   00000AH   BYTE   INSEG    CODE           ?PR?MAC_FATALCLEAR?MAC
FF17FCH   FF180CH   000011H   BYTE   INSEG    CODE           ?PR?ISR_CLEAR_MAC_STATUS?ISR_HDLR
FF180DH   FF1847H   00003BH   BYTE   INSEG    CODE           ?PR?RF_TASK_EN?RF_TASK_CTRL
FF1848H   FF196BH   000124H   BYTE   INSEG    CODE           ?PR?T2RTASK_SET?MAC_TASK_CTRL
FF196CH   FF1A19H   0000AEH   BYTE   INSEG    CODE           ?PR?RF_TASK_SET?RF_TASK_CTRL
FF1A1AH   FF1A8CH   000073H   BYTE   INSEG    CODE           ?PR?TXCONTTASK_SET?MAC_TASK_CTRL
FF1A8DH   FF1A98H   00000CH   BYTE   UNIT     CODE           ?L?COM0026
FF1A99H   FF1ACCH   000034H   BYTE   INSEG    CODE           ?PR?RXTASK_ALWAYSON_SET?MAC_TASK_CTRL
FF1ACDH   FF1DCAH   0002FEH   BYTE   INSEG    CODE           ?PR?MAC_RFERXSCHEDULE?MAC_RFERX
FF1DCBH   FF1DEDH   000023H   BYTE   INSEG    CODE           ?PR?RTC_CLKGET?_?SYS_RTC
FF1DEEH   FF1F03H   000116H   BYTE   INSEG    CODE           ?PR?MAC_TAR_SCHWAITNORMALRXMSGHDLR?MAC_TARSCHEDULE
FF1F04H   FF1F0DH   00000AH   BYTE   INSEG    CODE           ?PR?MAC_TAR_CCA_SETUP?MAC_TARSCHEDULE
FF1F0EH   FF1F60H   000053H   BYTE   INSEG    CODE           ?PR?MAC_CCASTART?MAC_TARSCHEDULE
FF1F61H   FF1FABH   00004BH   BYTE   INSEG    CODE           ?PR?RXTASK_TIMEOUT_SET?MAC_TASK_CTRL
FF1FACH   FF1FB2H   000007H   BYTE   INSEG    CODE           ?PR?RTC_TICKGAPCOUNT?SYS_RTC
FF1FB3H   FF1FC7H   000015H   BYTE   INSEG    CODE           ?PR?SYS_ISCLKAPASSOVERCLKB?SYS_CTRL
FF1FC8H   FF1FFCH   000035H   BYTE   INSEG    CODE           ?PR?MAC_TAR_SCHWAITNORMALACKDONEHDLR?MAC_TARSCHEDULE
FF1FFDH   FF2025H   000029H   BYTE   INSEG    CODE           ?PR?INTR_CLEAR?INTR_RF
FF2026H   FF2036H   000011H   BYTE   INSEG    CODE           ?PR?INTR_CLEARRTCGRP?INTR_RF
FF2037H   FF2045H   00000FH   BYTE   INSEG    CODE           ?PR?INTR_RF_HDLR?INTR_RF
FF2046H   FF20CCH   000087H   BYTE   INSEG    CODE           ?PR?ISR_0_HDLR?ISR_HDLR
FF20CDH   FF20CDH   000001H   BYTE   INSEG    CODE           ?PR?INTR_RF_NULLHDLR?INTR_RF
FF20CEH   FF2109H   00003CH   BYTE   INSEG    CODE           ?PR?SYS_INFOREGINIT?SYS_INIT
FF210AH   FF2138H   00002FH   BYTE   INSEG    CODE           ?PR?SYS_TASK_BLOCK?SYS_TASK
FF2139H   FF22C0H   000188H   BYTE   INSEG    CODE           ?PR?MAC_RAARXDONEHANDLE?_?MAC_RAASCHEDULE
FF22C1H   FF22F8H   000038H   BYTE   INSEG    CODE           ?PR?MAC_FUNEVENTQADD?_?MAC
FF22F9H   FF234FH   000057H   BYTE   INSEG    CODE           ?PR?HALPKT_RXQDONESET?HAL_PKT
FF2350H   FF240AH   0000BBH   BYTE   INSEG    CODE           ?PR?MAC_RXDONEEVENTGEN?_?MAC_RAASCHEDULE
FF240BH   FF244BH   000041H   BYTE   INSEG    CODE           ?PR?MAC_RFERXDISABLE?MAC_RFERX
FF244CH   FF2497H   00004CH   BYTE   INSEG    CODE           ?PR?HALPKT_TXQDONESET?HAL_PKT
FF2498H   FF24A3H   00000CH   BYTE   INSEG    CODE           ?PR?MAC_RAACLEARACKQANDGENRXDATA?MAC_RAASCHEDULE
FF24A4H   FF24B1H   00000EH   BYTE   INSEG    CODE           ?PR?MAC_RFERXAONTASKDISABLE?MAC_RFERX
FF24B2H   FF24CCH   00001BH   BYTE   INSEG    CODE           ?PR?MAC_ORG_MHR_DONE_HANDLER?MAC_RAASCHEDULE
FF24CDH   FF2503H   000037H   BYTE   INSEG    CODE           ?PR?HALPKT_PHYSTATUSGET?HAL_PKT
FF2504H   FF2551H   00004EH   BYTE   INSEG    CODE           ?PR?BMU_RXQUEUESET?BMU_RX
FF2552H   FF25AFH   00005EH   BYTE   INSEG    CODE           ?PR?MAC_ACKSET?MAC_RAASCHEDULE
FF25B0H   FF2612H   000063H   BYTE   INSEG    CODE           ?PR?BMU_RXQUEUEGET?BMU_RX
FF2613H   FF2693H   000081H   BYTE   INSEG    CODE           ?PR?MAC_TXDONEEVENTGEN?MAC_TARSCHEDULE
FF2694H   FF278DH   0000FAH   BYTE   INSEG    CODE           ?PR?MAC_TAR_SCHWAITACKRXDONEHDLR?MAC_TARSCHEDULE
FF278EH   FF27A5H   000018H   BYTE   INSEG    CODE           ?PR?MACTXFREEBMUDATA?MAC_TARSCHEDULE
FF27A6H   FF27ABH   000006H   BYTE   INSEG    CODE           ?PR?MAC_ORG_TX_DONE_HANDLER?MAC_TARSCHEDULE
FF27ACH   FF27B9H   00000EH   BYTE   UNIT     CODE           ?L?COM0015
FF27BAH   FF27D0H   000017H   BYTE   INSEG    CODE           ?PR?MAC_ACKFRAMECHECK?MAC_TARSCHEDULE
FF27D1H   FF27E8H   000018H   BYTE   INSEG    CODE           ?PR?MAC_ORG_CCA_DONE_HANDLER?MAC_TARSCHEDULE
L251 LINKER/LOCATER V4.66.93.0                                                        12/18/2023  14:26:43  PAGE 7


FF27E9H   FF2817H   00002FH   BYTE   INSEG    CODE           ?PR?SYS_TASK_REGISTER?SYS_TASK
FF2818H   FF2845H   00002EH   BYTE   INSEG    CODE           ?PR?SYS_TASK_RUN?SYS_TASK
FF2846H   FF2846H   000001H   BYTE   INSEG    CODE           ?PR?SYS_NULL_TASK?SYS_TASK
FF2847H   FF2855H   00000FH   BYTE   INSEG    CODE           ?PR?ISR_GET_MAC_STATUS?ISR_HDLR
FF2856H   FF2866H   000011H   BYTE   INSEG    CODE           ?PR?MAC_CHECKISRRXRECEIVED?MAC
FF2867H   FF28E2H   00007CH   BYTE   INSEG    CODE           ?PR?MAC_CCASTATUSGET?MAC_TARSCHEDULE
FF28E3H   FF2986H   0000A4H   BYTE   INSEG    CODE           ?PR?MAC_TXGETBMUDATA?MAC_TARSCHEDULE
FF2987H   FF2998H   000012H   BYTE   INSEG    CODE           ?PR?MAC_TARPARINIT?MAC_TARSCHEDULE
FF2999H   FF29D4H   00003CH   BYTE   INSEG    CODE           ?PR?MAC_INTEVENTQADD?_?MAC
FF29D5H   FF29E4H   000010H   BYTE   INSEG    CODE           ?PR?PCIQUEUEGETANDMACINTQUEUEADD?MAC
FF29E5H   FF29F9H   000015H   BYTE   INSEG    CODE           ?PR?MAC_INTEVENTQUEUEHANDLER?MAC
FF29FAH   FF2A73H   00007AH   BYTE   INSEG    CODE           ?PR?COMMON_ISRBMUCHECKTX?COMMON_ISR
FF2A74H   FF2A98H   000025H   BYTE   INSEG    CODE           ?PR?MAC_CHECKRXBUSY?MAC
FF2A99H   FF2B6DH   0000D5H   BYTE   INSEG    CODE           ?PR?MAC_TAR_SCHWAITCCADONEHDLR?MAC_TARSCHEDULE
FF2B6EH   FF2B7EH   000011H   BYTE   INSEG    CODE           ?PR?MAC_TXSTART?MAC_TARSCHEDULE
FF2B7FH   FF2BB0H   000032H   BYTE   INSEG    CODE           ?PR?MAC_TXTASKSET?MAC_TARSCHEDULE
FF2BB1H   FF2C0CH   00005CH   BYTE   INSEG    CODE           ?PR?BMU_TXQUEUEGET?BMU_TX
FF2C0DH   FF2C1AH   00000EH   BYTE   UNIT     CODE           ?L?COM000E
FF2C1BH   FF2C7FH   000065H   BYTE   INSEG    CODE           ?PR?MAC_TXHWSET?MAC_TARSCHEDULE
FF2C80H   FF2D19H   00009AH   BYTE   INSEG    CODE           ?PR?BMU_TXCONFIG?BMU_TX
FF2D1AH   FF2DA9H   000090H   BYTE   INSEG    CODE           ?PR?PCI_SETPHR?MAC_CMD_HDLR
FF2DAAH   FF2E28H   00007FH   BYTE   INSEG    CODE           ?PR?MAC_TAR_SCHCONFIGHDLR?MAC_TARSCHEDULE
FF2E29H   FF2E41H   000019H   BYTE   INSEG    CODE           ?PR?HALMAC_CRCLENCFGGET?HAL_MAC
FF2E42H   FF2EA1H   000060H   BYTE   INSEG    CODE           ?PR?MAC_SECLBHWSET?MAC_TARSCHEDULE
FF2EA2H   FF2F2BH   00008AH   BYTE   INSEG    CODE           ?PR?BMU_RXCONFIG?BMU_RX
FF2F2CH   FF2F34H   000009H   BYTE   INSEG    CODE           ?PR?HALMAC_MAXPAYLOADDFTGET?HAL_MAC
FF2F35H   FF2F55H   000021H   BYTE   INSEG    CODE           ?PR?HALMAC_PHRSET?HAL_MAC
FF2F56H   FF2FACH   000057H   BYTE   INSEG    CODE           ?PR?HALMAC_RXPAYLOADLENGET?HAL_MAC
FF2FADH   FF2FB4H   000008H   BYTE   INSEG    CODE           ?PR?HAL_HWMODEGET?HAL
FF2FB5H   FF2FC1H   00000DH   BYTE   INSEG    CODE           ?PR?MAC_ISR_REG_CB?MAC_ISR
FF2FC2H   FF2FD2H   000011H   BYTE   INSEG    CODE           ?PR?Q_QNUMGET?SYS_QCTRL
FF2FD3H   FF2FE2H   000010H   BYTE   INSEG    CODE           ?PR?SYS_IDLE_TASK?SYS_CTRL
FF2FE3H   FF2FFAH   000018H   BYTE   INSEG    CODE           ?PR?MSG_HDLR?MSG_CTRL
FF2FFBH   FF3072H   000078H   BYTE   INSEG    CODE           ?PR?HALSEC_AESSET?HAL_SEC
FF3073H   FF3073H   000001H   BYTE   INSEG    CODE           ?PR?ISR_1_HDLR?ISR_HDLR
FF3074H   FF310AH   000097H   BYTE   INSEG    CODE           ?PR?SYS_RAND?SYS_CTRL
FF310BH   FF3142H   000038H   BYTE   INSEG    CODE           ?PR?MAC_BACKOFFTIMECAL?MAC_TARSCHEDULE
FF3143H   FF3153H   000011H   BYTE   INSEG    CODE           ?PR?SYS_TIMERINIT?SYS_CTRL
FF3154H   FF31C8H   000075H   BYTE   INSEG    CODE           ?PR?SYS_SLEEP?SYS_CTRL
FF31C9H   FF31F9H   000031H   BYTE   INSEG    CODE           ?PR?SYS_ENTERSLEEPCHECK?SYS_CTRL
FF31FAH   FF324FH   000056H   BYTE   INSEG    CODE           ?PR?MAC_SLEEPCHECK?MAC
FF3250H   FF3254H   000005H   BYTE   INSEG    CODE           ?PR?SYS_SLEEPMINTIMEGET?SYS_CTRL
FF3255H   FF325CH   000008H   BYTE   UNIT     CODE           ?L?COM0034
FF325DH   FF3342H   0000E6H   BYTE   INSEG    CODE           ?PR?PCI_SETWAKEONRADIO?MAC_CMD_HDLR
FF3343H   FF3369H   000027H   BYTE   INSEG    CODE           ?PR?PCICNFEVENTSENDTOMSGQUEUE?MAC_EVENT_GEN
FF336AH   FF3374H   00000BH   BYTE   INSEG    CODE           ?PR?PCI_GETCRCCOUNT?MAC_CMD_HDLR
FF3375H   FF33D2H   00005EH   BYTE   INSEG    CODE           ?PR?PCIGETCRCEVENTSENDTOMSGQUEUE?MAC_EVENT_GEN
FF33D3H   FF349CH   0000CAH   BYTE   INSEG    CODE           ?PR?PCI_PARSECOMMONCMD?MAC_CMD_HDLR
FF349DH   FF34A7H   00000BH   BYTE   INSEG    CODE           ?PR?PCI_GETRSSI?MAC_CMD_HDLR
FF34A8H   FF350EH   000067H   BYTE   INSEG    CODE           ?PR?PCIGETRSSIEVENTSENDTOMSGQUEUE?MAC_EVENT_GEN
FF350FH   FF3519H   00000BH   BYTE   INSEG    CODE           ?PR?PCI_GETPHYSTATUS?MAC_CMD_HDLR
FF351AH   FF359FH   000086H   BYTE   INSEG    CODE           ?PR?PCIGETPHYSTATUSEVENTSENDTOMSGQUEUE?MAC_EVENT_GEN
FF35A0H   FF35BEH   00001FH   BYTE   INSEG    CODE           ?PR?Q_MEMALLOC?SYS_QCTRL
FF35BFH   FF36AAH   0000ECH   BYTE   INSEG    CODE           ?PR?Q_QPUSHBACK?SYS_QCTRL
FF36ABH   FF36BBH   000011H   BYTE   INSEG    CODE           ?PR?PCI_SETGAUSSIANFILTERTYPE?MAC_CMD_HDLR
FF36BCH   FF36D5H   00001AH   BYTE   INSEG    CODE           ?PR?PCI_SETRFERXDISABLECMD?MAC_CMD_HDLR
FF36D6H   FF3712H   00003DH   BYTE   INSEG    CODE           ?PR?PCI_ENABLESINGLETONE?MAC_CMD_HDLR
FF3713H   FF375AH   000048H   BYTE   INSEG    CODE           ?PR?PCI_SETRXTASKPARA?MAC_CMD_HDLR
FF375BH   FF37B4H   00005AH   BYTE   INSEG    CODE           ?PR?CMN_GETVOLTAGERPTEVENTSEND?COMMON_EVENT_GEN
FF37B5H   FF37BDH   000009H   BYTE   INSEG    CODE           ?PR?PCI_SETRFEMODE?MAC_CMD_HDLR
FF37BEH   FF37C8H   00000BH   BYTE   INSEG    CODE           ?PR?HALPHY_GAUSSIANFILTSET?HAL_PHY
FF37C9H   FF37D4H   00000CH   BYTE   UNIT     CODE           ?L?COM0007
FF37D5H   FF37E0H   00000CH   BYTE   INSEG    CODE           ?PR?PCI_SETRFESECURITYCMD?MAC_CMD_HDLR
FF37E1H   FF37F1H   000011H   BYTE   INSEG    CODE           ?PR?PCI_SETFSKTYPE?MAC_CMD_HDLR
FF37F2H   FF38D3H   0000E2H   BYTE   INSEG    CODE           ?PR?RUCI_ENDIANCONVERT?RUCI
L251 LINKER/LOCATER V4.66.93.0                                                        12/18/2023  14:26:43  PAGE 8


FF38D4H   FF38E9H   000016H   BYTE   INSEG    CODE           ?PR?SYS_ENTERSLEEPGUARD?SYS_CTRL
FF38EAH   FF3921H   000038H   BYTE   INSEG    CODE           ?PR?Q_INIT?SYS_QCTRL
FF3922H   FF393BH   00001AH   BYTE   INSEG    CODE           ?PR?Q_MEMFREECOUNT?SYS_QCTRL
FF393CH   FF3948H   00000DH   BYTE   INSEG    CODE           ?PR?Q_MEMFREE?SYS_QCTRL
FF3949H   FF395EH   000016H   BYTE   INSEG    CODE           ?PR?Q_QGET?SYS_QCTRL
FF395FH   FF3987H   000029H   BYTE   INSEG    CODE           ?PR?MSG_OUTMSGTOBMU?MSG_CTRL
FF3988H   FF39A4H   00001DH   BYTE   INSEG    CODE           ?PR?Q_QFREE?SYS_QCTRL
FF39A5H   FF3B2EH   00018AH   BYTE   INSEG    CODE           ?PR?MAC_CMDQUEUEPARSE?MAC_CMD_HDLR
FF3B2FH   FF3B3CH   00000EH   BYTE   INSEG    CODE           ?PR?PCI_PARSECMNSYSCMD?MAC_CMD_HDLR
FF3B3DH   FF3B47H   00000BH   BYTE   INSEG    CODE           ?PR?CMN_CMDSYS_GETRFBFWVER?COMMON_CMD_HDLR
FF3B48H   FF3BBAH   000073H   BYTE   INSEG    CODE           ?PR?CMN_GETFWVEREVENTSEND?COMMON_EVENT_GEN
FF3BBBH   FF3BD6H   00001CH   BYTE   INSEG    CODE           ?PR?PCI_PARSEBLECMD?MAC_CMD_HDLR
FF3BD7H   FF3BF3H   00001DH   BYTE   INSEG    CODE           ?PR?PCI_PARSEOQPSKCMD?MAC_CMD_HDLR
FF3BF4H   FF3C15H   000022H   BYTE   INSEG    CODE           ?PR?CMD_CNFEVENTSEND?COMMON_EVENT_GEN
FF3C16H   FF3C20H   00000BH   BYTE   INSEG    CODE           ?PR?CMN_CMDHAL_GETTEMPERATURERPT?COMMON_CMD_HDLR
FF3C21H   FF3C7EH   00005EH   BYTE   INSEG    CODE           ?PR?CMN_GETTEMPERATURERPTEVENTSEND?COMMON_EVENT_GEN
FF3C7FH   FF3CF6H   000078H   BYTE   INSEG    CODE           ?PR?PCI_PARSECMNHALCMD?MAC_CMD_HDLR
FF3CF7H   FF3D07H   000011H   BYTE   INSEG    CODE           ?PR?CMN_CMDHAL_SETCALIBRATIONENABLE?COMMON_CMD_HDLR
FF3D08H   FF3D5BH   000054H   BYTE   INSEG    CODE           ?PR?CMN_SETCALIBRATIONENABLEEVENTSEND?COMMON_EVENT_GEN
FF3D5CH   FF3D64H   000009H   BYTE   INSEG    CODE           ?PR?CMN_CMDHAL_SETTXPWRCOMP?COMMON_CMD_HDLR
FF3D65H   FF3D6DH   000009H   BYTE   INSEG    CODE           ?PR?CMN_CMDHAL_SETTXPWRCHCOMP?COMMON_CMD_HDLR
FF3D6EH   FF3D76H   000009H   BYTE   INSEG    CODE           ?PR?CMN_CMDHAL_SETTXPWRCHSEGMENT?COMMON_CMD_HDLR
FF3D77H   FF3D7FH   000009H   BYTE   INSEG    CODE           ?PR?CMN_CMDHAL_SETPMUMPKSETTING?COMMON_CMD_HDLR
FF3D80H   FF3D8BH   00000CH   BYTE   INSEG    CODE           ?PR?CMN_CMDHAL_GETVOLTAGERPT?COMMON_CMD_HDLR
FF3D8CH   FF3DA4H   000019H   BYTE   INSEG    CODE           ?PR?CMN_CMDHAL_SETPMUOPMODE?COMMON_CMD_HDLR
FF3DA5H   FF3DBFH   00001BH   BYTE   INSEG    CODE           ?PR?CMN_CMDHAL_SETRSSIOFFSET?COMMON_CMD_HDLR
FF3DC0H   FF3DE2H   000023H   BYTE   INSEG    CODE           ?PR?CMN_CMDHAL_SETAGC?COMMON_CMD_HDLR
FF3DE3H   FF3E07H   000025H   BYTE   INSEG    CODE           ?PR?CMN_CMDHAL_SETTXPOWERBY?COMMON_CMD_HDLR
FF3E08H   FF3E2FH   000028H   BYTE   INSEG    CODE           ?PR?PCI_BLECMDINITBLE?MAC_CMD_HDLR
FF3E30H   FF3E5AH   00002BH   BYTE   INSEG    CODE           ?PR?MSG_OUTMSGPROC?MSG_CTRL
FF3E5BH   FF3E63H   000009H   BYTE   INSEG    CODE           ?PR?MSG_OUTSTATESET?MSG_CTRL
FF3E64H   FF3E94H   000031H   BYTE   INSEG    CODE           ?PR?PCI_PARSE15P4SWMACCMD?MAC_CMD_HDLR
FF3E95H   FF3EB2H   00001EH   BYTE   INSEG    CODE           ?PR?PCI_PARSE15P4PENDINGBIT?MAC_CMD_HDLR
FF3EB3H   FF3EE4H   000032H   BYTE   INSEG    CODE           ?PR?PCI_PARSEFSKCMD?MAC_CMD_HDLR
FF3EE5H   FF3F01H   00001DH   BYTE   INSEG    CODE           ?PR?PCI_SETFSKPREAMBLE?MAC_CMD_HDLR
FF3F02H   FF3F0CH   00000BH   BYTE   INSEG    CODE           ?PR?HALPHY_PREAMNUMSET?HAL_PHY
FF3F0DH   FF3F18H   00000CH   BYTE   UNIT     CODE           ?L?COM001B
FF3F19H   FF3F4BH   000033H   BYTE   INSEG    CODE           ?PR?CMN_CMDHAL_SETCALIBRATIONSETTING?COMMON_CMD_HDLR
FF3F4CH   FF3F7FH   000034H   BYTE   INSEG    CODE           ?PR?CMN_CMDHAL_SETTXPOWER?COMMON_CMD_HDLR
FF3F80H   FF3FB5H   000036H   BYTE   INSEG    CODE           ?PR?CMN_CMDHAL_SETTXPOWEROQPSK?COMMON_CMD_HDLR
FF3FB6H   FF3FC0H   00000BH   BYTE   INSEG    CODE           ?PR?HALMAC_RXMHRRPTLENSET?HAL_MAC
FF3FC1H   FF3FD0H   000010H   BYTE   INSEG    CODE           ?PR?MSG_OUTMSGFORCEHANDLE?MSG_CTRL
FF3FD1H   FF3FE2H   000012H   BYTE   INSEG    CODE           ?PR?PCI_PARSE15P4AUTOACK?MAC_CMD_HDLR
FF3FE3H   FF3FF8H   000016H   BYTE   INSEG    CODE           ?PR?Q_QLENGET?SYS_QCTRL
FF3FF9H   FF40B6H   0000BEH   BYTE   INSEG    CODE           ?PR?Q_QPUSHFRONT?SYS_QCTRL
FF40B7H   FF4136H   000080H   BYTE   INSEG    CODE           ?PR?Q_QMOVEBACK?SYS_QCTRL
FF4137H   FF4171H   00003BH   BYTE   INSEG    CODE           ?PR?Q_QCHAGETYPE?SYS_QCTRL
FF4172H   FF420DH   00009CH   BYTE   INSEG    CODE           ?PR?Q_QREMOVE?SYS_QCTRL
FF420EH   FF4234H   000027H   BYTE   INSEG    CODE           ?PR?RTC_UDELAY?SYS_RTC
FF4235H   FF42A4H   000070H   BYTE   INSEG    CODE           ?PR?HALRFK_LBTRXENABLE?HAL_RT569MP_RFK
FF42A5H   FF4345H   0000A1H   BYTE   INSEG    CODE           ?PR?HALRFK_CALIBRATION?HAL_RFK
FF4346H   FF4352H   00000DH   BYTE   INSEG    CODE           ?PR?HALRFK_SINGLETONEDISABLE?HAL_RT569MP_RFK
FF4353H   FF4370H   00001EH   BYTE   INSEG    CODE           ?PR?HALRFK_LBTRXDISABLE?HAL_RT569MP_RFK
FF4371H   FF4391H   000021H   BYTE   INSEG    CODE           ?PR?HALRFK_SINGLETONEENABLE?HAL_RT569MP_RFK
FF4392H   FF4407H   000076H   BYTE   INSEG    CODE           ?PR?HALRFK_RSSIGET?HAL_RT569MP_RFK
FF4408H   FF44ABH   0000A4H   BYTE   INSEG    CODE           ?PR?HALRFK_RXFILTK?HAL_RT569MP_RFK
FF44ACH   FF44CAH   00001FH   BYTE   INSEG    CODE           ?PR?HALRFK_PLLFORLOKSET?HAL_RT569MP_RFK
FF44CBH   FF44E9H   00001FH   BYTE   INSEG    CODE           ?PR?HALRFK_PLLFORSIDEBANDKSET?HAL_RT569MP_RFK
FF44EAH   FF4533H   00004AH   BYTE   INSEG    CODE           ?PR?HALRFK_RFGAINCFG?HAL_RT569MP_RFK
FF4534H   FF4546H   000013H   BYTE   UNIT     CODE           ?L?COM0005
FF4547H   FF4599H   000053H   BYTE   INSEG    CODE           ?PR?HALRFK_PLLFORFILTKSET?HAL_RT569MP_RFK
FF459AH   FF465DH   0000C4H   BYTE   INSEG    CODE           ?PR?HALRFK_RFTXCFG?HAL_RT569MP_RFK
FF465EH   FF46C8H   00006BH   BYTE   INSEG    CODE           ?PR?HALRFK_RFPLLCFG?HAL_RT569MP_RFK
FF46C9H   FF475CH   000094H   BYTE   INSEG    CODE           ?PR?HALRFK_PARARECOVER?HAL_RT569MP_RFK
FF475DH   FF47EFH   000093H   BYTE   INSEG    CODE           ?PR?HALRF_AGCSET2HW?HAL_RT569MP_RF
L251 LINKER/LOCATER V4.66.93.0                                                        12/18/2023  14:26:43  PAGE 9


FF47F0H   FF47FBH   00000CH   BYTE   UNIT     CODE           ?L?COM0022
FF47FCH   FF4829H   00002EH   BYTE   UNIT     CODE           ?L?COM0003
FF482AH   FF4BF1H   0003C8H   BYTE   INSEG    CODE           ?PR?HALPHY_RXBWSET?HAL_PHY
FF4BF2H   FF4C45H   000054H   BYTE   INSEG    CODE           ?PR?HALPHY_BLERXPARASET?HAL_PHY
FF4C46H   FF4C7FH   00003AH   BYTE   INSEG    CODE           ?PR?HALPHY_FSKRXPARASET?HAL_PHY
FF4C80H   FF4C8BH   00000CH   BYTE   UNIT     CODE           ?L?COM0025
FF4C8CH   FF4C9CH   000011H   BYTE   UNIT     CODE           ?L?COM001E
FF4C9DH   FF4CBDH   000021H   BYTE   INSEG    CODE           ?PR?HALPHY_MODIDXSET?HAL_PHY
FF4CBEH   FF4E66H   0001A9H   BYTE   INSEG    CODE           ?PR?HALPHY_PARASET?HAL_PHY
FF4E67H   FF4ED6H   000070H   BYTE   INSEG    CODE           ?PR?RTC_TIMERCONFIG?SYS_RTC
FF4ED7H   FF4F92H   0000BCH   BYTE   INSEG    CODE           ?PR?PCI_SETRFERXENABLECMD?MAC_CMD_HDLR
FF4F93H   FF4FDDH   00004BH   BYTE   INSEG    CODE           ?PR?PCI_RFERXPARACHECK?MAC_CMD_HDLR
FF4FDEH   FF4FF0H   000013H   BYTE   INSEG    CODE           ?PR?HAL_ISBLEHW?HAL
FF4FF1H   FF5003H   000013H   BYTE   INSEG    CODE           ?PR?RTC_TIMERWAKEUPDISABLE?SYS_RTC
FF5004H   FF500DH   00000AH   BYTE   INSEG    CODE           ?PR?RTC_WAITFORTRIGGERED?SYS_RTC
FF500EH   FF5033H   000026H   BYTE   INSEG    CODE           ?PR?RTC_TRIGGERWITHINUS?SYS_RTC
FF5034H   FF504FH   00001CH   BYTE   INSEG    CODE           ?PR?RTC_ISRHDLRINIT?SYS_RTC
FF5050H   FF50A1H   000052H   BYTE   INSEG    CODE           ?PR?RTC_INIT?SYS_RTC
FF50A2H   FF50A9H   000008H   BYTE   UNIT     CODE           ?L?COM001F
FF50AAH   FF50BCH   000013H   BYTE   INSEG    CODE           ?PR?HALMAC_TXSFDSET?HAL_MAC
FF50BDH   FF5108H   00004CH   BYTE   INSEG    CODE           ?PR?PCI_SETFSKSFD?MAC_CMD_HDLR
FF5109H   FF5178H   000070H   BYTE   INSEG    CODE           ?PR?MAC_RFERXPARINIT?MAC_RFERX
FF5179H   FF51FBH   000083H   BYTE   INSEG    CODE           ?PR?PCI_BLECMDSETBLEMAC?MAC_CMD_HDLR
FF51FCH   FF52B2H   0000B7H   BYTE   INSEG    CODE           ?PR?HALMAC_RXSFDSET?HAL_MAC
FF52B3H   FF5464H   0001B2H   BYTE   INSEG    CODE           ?PR?HAL_HWMODEINIT?_?HAL
FF5465H   FF5474H   000010H   BYTE   INSEG    CODE           ?PR?HALMAC_TXPREAMBLESET?HAL_MAC
FF5475H   FF5484H   000010H   BYTE   INSEG    CODE           ?PR?HALMAC_RXPREAMBLESET?HAL_MAC
FF5485H   FF54A7H   000023H   BYTE   INSEG    CODE           ?PR?HALMAC_WHITENSET?HAL_MAC
FF54A8H   FF54E6H   00003FH   BYTE   INSEG    CODE           ?PR?HALMAC_CRCSET?HAL_MAC
FF54E7H   FF5536H   000050H   BYTE   INSEG    CODE           ?PR?PCI_SETFSKMAC?MAC_CMD_HDLR
FF5537H   FF553FH   000009H   BYTE   INSEG    CODE           ?PR?HALMAC_WHITENINITDFTGET?HAL_MAC
FF5540H   FF558FH   000050H   BYTE   INSEG    CODE           ?PR?PCI_OQPSKCMDSETOQPSKMAC?MAC_CMD_HDLR
FF5590H   FF55AAH   00001BH   BYTE   INSEG    CODE           ?PR?HALMAC_CRCINITDFTGET?HAL_MAC
FF55ABH   FF55B6H   00000CH   BYTE   UNIT     CODE           ?L?COM0023
FF55B7H   FF55C2H   00000CH   BYTE   UNIT     CODE           ?L?COM0024
FF55C3H   FF55D4H   000012H   BYTE   INSEG    CODE           ?PR?MAC_RFERXRPTGET?MAC_RFERX
FF55D5H   FF55F3H   00001FH   BYTE   INSEG    CODE           ?PR?HALMAC_RXMAXPKTLENSET?HAL_MAC
FF55F4H   FF5614H   000021H   BYTE   INSEG    CODE           ?PR?HAL_DFTPARAGET?HAL_INIT
FF5615H   FF5643H   00002FH   BYTE   INSEG    CODE           ?PR?HALMAC_PKTBITENDIANSET?HAL_MAC
FF5644H   FF568BH   000048H   BYTE   INSEG    CODE           ?PR?HAL_CLKMODESET?HAL
FF568CH   FF56F0H   000065H   BYTE   INSEG    CODE           ?PR?HAL_PKTTYPESET?HAL
FF56F1H   FF577BH   00008BH   BYTE   INSEG    CODE           ?PR?BMU_LOCALTXQUEUESET?BMU_TX
FF577CH   FF577CH   000001H   BYTE   INSEG    CODE           ?PR?RTC_NULLHDLR?SYS_RTC
FF577DH   FF5789H   00000DH   BYTE   INSEG    CODE           ?PR?RTC_ISRHDLR?SYS_RTC
FF578AH   FF5849H   0000C0H   BYTE   INSEG    CODE           ?PR?COMMON_ISRBMUTXQADD?_?COMMON_ISR
FF584AH   FF58F5H   0000ACH   BYTE   INSEG    CODE           ?PR?COMMON_ISRBMUTXQGETBYHANDLE?_?COMMON_ISR
FF58F6H   FF5957H   000062H   BYTE   INSEG    CODE           ?PR?COMMON_ISRBMUTXQPCIGET?COMMON_ISR
FF5958H   FF5AC6H   00016FH   BYTE   INSEG    CODE           ?PR?COMMON_ISRBMUTXQDELETEALLBYCONDITION?_?COMMON_ISR
FF5AC7H   FF5B50H   00008AH   BYTE   INSEG    CODE           ?PR?COMMON_ISRBMUTXQDELETEBYPTR?_?COMMON_ISR
FF5B51H   FF5BC0H   000070H   BYTE   INSEG    CODE           ?PR?COMMON_ISRBMUTXQINIT?COMMON_ISR
FF5BC1H   FF5BCAH   00000AH   BYTE   INSEG    CODE           ?PR?COMMON_ISRBMUHANDLER?COMMON_ISR
FF5BCBH   FF5C82H   0000B8H   BYTE   INSEG    CODE           ?PR?BMU_MEMALLOCATE?BMU
FF5C83H   FF5D0FH   00008DH   BYTE   INSEG    CODE           ?PR?BMU_HWRESET?BMU
FF5D10H   FF5DB1H   0000A2H   BYTE   INSEG    CODE           ?PR?BMU_HWINIT?BMU
FF5DB2H   FF5DC8H   000017H   BYTE   INSEG    CODE           ?PR?BMU_TXQSTATUSUPD?BMU_TX
FF5DC9H   FF5DEEH   000026H   BYTE   INSEG    CODE           ?PR?BMU_FREQFLOWCTRLSET?BMU
FF5DEFH   FF5E66H   000078H   BYTE   INSEG    CODE           ?PR?BMU_H2MCMDGET?BMU_CMD
FF5E67H   FF5EEAH   000084H   BYTE   INSEG    CODE           ?PR?BMU_M2HCMDSET?BMU_CMD
FF5EEBH   FF5FF8H   00010EH   BYTE   INSEG    CODE           ?PR?BMU_TRXQUEUEGET?BMU_COMMON
FF5FF9H   FF6106H   00010EH   BYTE   INSEG    CODE           ?PR?BMU_TRXQUEUESET?BMU_COMMON
FF6107H   FF6128H   000022H   BYTE   INSEG    CODE           ?PR?BMU_LOCALRXQSTARTADDGET?BMU_RX
FF6129H   FF614AH   000022H   BYTE   INSEG    CODE           ?PR?BMU_RXQSTARTADDGET?BMU_RX
FF614BH   FF61C2H   000078H   BYTE   INSEG    CODE           ?PR?BMU_LOCALRXQUEUEGET?BMU_RX
FF61C3H   FF628BH   0000C9H   BYTE   INSEG    CODE           ?PR?MAC_RFERXDATACONFIRM?MAC_RFERX
FF628CH   FF62ADH   000022H   BYTE   INSEG    CODE           ?PR?HALMAC_PHRLENCFGGET?HAL_MAC
L251 LINKER/LOCATER V4.66.93.0                                                        12/18/2023  14:26:43  PAGE 10


FF62AEH   FF6322H   000075H   BYTE   INSEG    CODE           ?PR?MAC_RXHWSET?MAC_TARSCHEDULE
FF6323H   FF6393H   000071H   BYTE   INSEG    CODE           ?PR?MAC_TAR_SCHWAITTXDONEHDLR?MAC_TARSCHEDULE
FF6394H   FF642CH   000099H   BYTE   INSEG    CODE           ?PR?MAC_RAA_SCHCONFIGHDLR?MAC_RAASCHEDULE
FF642DH   FF644EH   000022H   BYTE   INSEG    CODE           ?PR?BMU_LOCALTXQSTARTADDGET?BMU_TX
FF644FH   FF6471H   000023H   BYTE   INSEG    CODE           ?PR?BMU_TXQSTARTADDGET?BMU_TX
FF6472H   FF6495H   000024H   BYTE   INSEG    CODE           ?PR?BMU_TXQSTATUSRECOVERY?BMU_TX
FF6496H   FF64CDH   000038H   BYTE   INSEG    CODE           ?PR?BMU_TXQPKTSEARCH?BMU_TX
FF64CEH   FF6566H   000099H   BYTE   INSEG    CODE           ?PR?BMU_TXPKTLENGTHGET?BMU_TX
FF6567H   FF65A0H   00003AH   BYTE   INSEG    CODE           ?PR?BMU_LOCALTXQUEUEGET?BMU_TX
FF65A1H   FF6625H   000085H   BYTE   INSEG    CODE           ?PR?BMU_TXQUEUECLEAR?BMU_TX
FF6626H   FF6696H   000071H   BYTE   INSEG    CODE           ?PR?BMU_PRIVACYIRKCLR?BMU_BLE
FF6697H   FF66CFH   000039H   BYTE   INSEG    CODE           ?PR?BMU_PRIVACYIRKSET?BMU_BLE
FF66D0H   FF675DH   00008EH   BYTE   INSEG    CODE           ?PR?BMU_PRIVACYLOCALRPAGEN?BMU_BLE
FF675EH   FF6796H   000039H   BYTE   INSEG    CODE           ?PR?BMU_PRIVACYIRKSINGLESEARCH?BMU_BLE
FF6797H   FF67CBH   000035H   BYTE   INSEG    CODE           ?PR?BMU_PRIVACYIRKGET?BMU_BLE
FF67CCH   FF684DH   000082H   BYTE   INSEG    CODE           ?PR?BMU_PRIVACYIRKFULLSEARCH?BMU_BLE
FF684EH   FF687AH   00002DH   BYTE   INSEG    CODE           ?PR?MAC_INTEVENTQGET?_?MAC
FF687BH   FF6885H   00000BH   BYTE   INSEG    CODE           ?PR?MAC_TIMEOUTHDLR?MAC
FF6886H   FF68AAH   000025H   BYTE   INSEG    CODE           ?PR?MAC?MAC
FF68ABH   FF68BEH   000014H   BYTE   INSEG    CODE           ?PR?MAC_RAASCHEDULE?MAC_RAASCHEDULE
FF68BFH   FF68D2H   000014H   BYTE   INSEG    CODE           ?PR?MAC_TARSCHEDULE?MAC_TARSCHEDULE
FF68D3H   FF68DEH   00000CH   BYTE   INSEG    CODE           ?PR?MAC_FUNEVENTQINIT?MAC
FF68DFH   FF68EAH   00000CH   BYTE   INSEG    CODE           ?PR?MAC_INTEVENTQINIT?MAC
FF68EBH   FF6AE5H   0001FBH   BYTE   INSEG    CODE           ?PR?MAC_TRXPAR_INIT?MAC
FF6AE6H   FF6AF4H   00000FH   BYTE   INSEG    CODE           ?PR?MAC_INTEVENTQUEUEEXIST?MAC
FF6AF5H   FF6C27H   000133H   BYTE   INSEG    CODE           ?PR?MAC_PARSEHDR?MAC_FRAME_PARSE
FF6C28H   FF6C31H   00000AH   BYTE   INSEG    CODE           ?PR?MAC_MHRPARSE?MAC_RAASCHEDULE
FF6C32H   FF6C97H   000066H   BYTE   INSEG    CODE           ?PR?MAC_ORG_RX_DONE_HANDLER?MAC_RAASCHEDULE
FF6C98H   FF6CCBH   000034H   BYTE   INSEG    CODE           ?PR?TXRTCTASK_SET?MAC_TASK_CTRL
FF6CCCH   FF6D14H   000049H   BYTE   INSEG    CODE           ?PR?TXTASK_SET?MAC_TASK_CTRL
FF6D15H   FF6D8FH   00007BH   BYTE   INSEG    CODE           ?PR?MAC_ISRHANDLER?MAC_ISR
FF6D90H   FF6D9BH   00000CH   BYTE   INSEG    CODE           ?PR?MAC_BMUISRINIT?MAC_ISR
FF6D9CH   FF6E8AH   0000EFH   BYTE   INSEG    CODE           ?PR?PCI_SETRFFREQ?MAC_CMD_HDLR
FF6E8BH   FF6F2AH   0000A0H   BYTE   INSEG    CODE           ?PR?PCI_SETRFETXENABLECMD?MAC_CMD_HDLR
FF6F2BH   FF6FC4H   00009AH   BYTE   INSEG    CODE           ?PR?MAC_RFETXPARINIT?MAC_RFETX
FF6FC5H   FF6FEFH   00002BH   BYTE   INSEG    CODE           ?PR?HALMAC_MAXPAYLOADLENGET?HAL_MAC
FF6FF0H   FF7005H   000016H   BYTE   INSEG    CODE           ?PR?PCI_SETRFETXDISABLECMD?MAC_CMD_HDLR
FF7006H   FF7024H   00001FH   BYTE   INSEG    CODE           ?PR?PCI_SETRFSLEEP?MAC_CMD_HDLR
FF7025H   FF703AH   000016H   BYTE   INSEG    CODE           ?PR?PCI_SETRFIDLE?MAC_CMD_HDLR
FF703BH   FF7085H   00004BH   BYTE   INSEG    CODE           ?PR?PCI_SETCLOCKMODE?MAC_CMD_HDLR
FF7086H   FF70B3H   00002EH   BYTE   INSEG    CODE           ?PR?PCI_PARARESET?MAC_CMD_HDLR
FF70B4H   FF70EDH   00003AH   BYTE   INSEG    CODE           ?PR?PCI_INITFSK?MAC_CMD_HDLR
FF70EEH   FF7129H   00003CH   BYTE   INSEG    CODE           ?PR?PCI_OQPSKCMDINITOQPSK?MAC_CMD_HDLR
FF712AH   FF719EH   000075H   BYTE   INSEG    CODE           ?PR?PCI_INITZIGBEE?MAC_CMD_HDLR
FF719FH   FF71F9H   00005BH   BYTE   INSEG    CODE           ?PR?PCI_SETRFBAUTOSTATE?MAC_CMD_HDLR
FF71FAH   FF723BH   000042H   BYTE   INSEG    CODE           ?PR?PCI_SETFSKMODEM?MAC_CMD_HDLR
FF723CH   FF72E9H   0000AEH   BYTE   INSEG    CODE           ?PR?PCI_BLECMDSETBLEMODEM?MAC_CMD_HDLR
FF72EAH   FF7368H   00007FH   BYTE   INSEG    CODE           ?PR?PCI_PARSE15P4ADDRESSFILTER?MAC_CMD_HDLR
FF7369H   FF739FH   000037H   BYTE   INSEG    CODE           ?PR?GET_PAN_NUMBER?MAC_CMD_HDLR
FF73A0H   FF73E0H   000041H   BYTE   INSEG    CODE           ?PR?PCI_PARSE15P4MACPIB?MAC_CMD_HDLR
FF73E1H   FF7419H   000039H   BYTE   INSEG    CODE           ?PR?PCI_PARSE15P4PHYPIB?MAC_CMD_HDLR
FF741AH   FF7457H   00003EH   BYTE   INSEG    CODE           ?PR?PCI_OQPSKCMDSETOQPSKMODEM?MAC_CMD_HDLR
FF7458H   FF7512H   0000BBH   BYTE   INSEG    CODE           ?PR?PCI_RFETXPARACHECK?MAC_CMD_HDLR
FF7513H   FF7535H   000023H   BYTE   INSEG    CODE           ?PR?REVERSE_UINT32CPY?MAC_CMD_HDLR
FF7536H   FF7543H   00000EH   BYTE   INSEG    CODE           ?PR?RXTASK_RXTIMER_SET?MAC_TASK_CTRL
FF7544H   FF7581H   00003EH   BYTE   INSEG    CODE           ?PR?PCIDATACONTROLFIELDPARSE?RUCI_DATA_PARSE
FF7582H   FF75B2H   000031H   BYTE   INSEG    CODE           ?PR?PCIBURSTTXDONEEVENTSENDTOMSGQUEUE?MAC_EVENT_GEN
FF75B3H   FF75B3H   000001H   BYTE   INSEG    CODE           ?PR?MAC_RAA_SCHINITHDLR?MAC_RAASCHEDULE
FF75B4H   FF7636H   000083H   BYTE   INSEG    CODE           ?PR?MAC_RAA_SCHWAITMHRHDLR?MAC_RAASCHEDULE
FF7637H   FF7667H   000031H   BYTE   INSEG    CODE           ?PR?MAC_RAA_SCHWAITTXDONEHDLR?MAC_RAASCHEDULE
FF7668H   FF7668H   000001H   BYTE   INSEG    CODE           ?PR?MAC_RAA_SCHWAITRESUMEHDLR?MAC_RAASCHEDULE
FF7669H   FF768CH   000024H   BYTE   INSEG    CODE           ?PR?MAC_RAA_SCHENDHDLR?MAC_RAASCHEDULE
FF768DH   FF768DH   000001H   BYTE   INSEG    CODE           ?PR?MAC_RAA_SCHRESERVEDHDLR?MAC_RAASCHEDULE
FF768EH   FF76D2H   000045H   BYTE   INSEG    CODE           ?PR?MAC_GENACK?MAC_RAASCHEDULE
FF76D3H   FF78ADH   0001DBH   BYTE   INSEG    CODE           ?PR?MAC_FILTER?_?MAC_RAASCHEDULE
L251 LINKER/LOCATER V4.66.93.0                                                        12/18/2023  14:26:43  PAGE 11


FF78AEH   FF78AEH   000001H   BYTE   INSEG    CODE           ?PR?MAC_TAR_SCHINITHDLR?MAC_TARSCHEDULE
FF78AFH   FF7901H   000053H   BYTE   INSEG    CODE           ?PR?MAC_TAR_SCHWAITACKRXMHRHDLR?MAC_TARSCHEDULE
FF7902H   FF7931H   000030H   BYTE   INSEG    CODE           ?PR?MAC_TAR_SCHENDHDLR?MAC_TARSCHEDULE
FF7932H   FF7932H   000001H   BYTE   INSEG    CODE           ?PR?MAC_TAR_SCHRESERVEDHDLR?MAC_TARSCHEDULE
FF7933H   FF79C6H   000094H   BYTE   INSEG    CODE           ?PR?MAC_TAR_CHECK_DATA_REQUST?MAC_TARSCHEDULE
FF79C7H   FF79D6H   000010H   BYTE   INSEG    CODE           ?PR?MAC_WAITFORRXTASKREADY?MAC_TARSCHEDULE
FF79D7H   FF7A3AH   000064H   BYTE   INSEG    CODE           ?PR?MAC_RFESECLBHWSET?MAC_RFERX
FF7A3BH   FF7A81H   000047H   BYTE   INSEG    CODE           ?PR?MAC_RFETXTASKSET?MAC_RFETX
FF7A82H   FF7AF4H   000073H   BYTE   INSEG    CODE           ?PR?MAC_RFETXPKTLENUPDATE?MAC_RFETX
FF7AF5H   FF7B44H   000050H   BYTE   INSEG    CODE           ?PR?MAC_RFETXHWSECSET?MAC_RFETX
FF7B45H   FF7BDDH   000099H   BYTE   INSEG    CODE           ?PR?MAC_RFEDATAGEN?MAC_RFETX
FF7BDEH   FF7C28H   00004BH   BYTE   INSEG    CODE           ?PR?MSG_ISR?_?MSG_CTRL
FF7C29H   FF7C56H   00002EH   BYTE   INSEG    CODE           ?PR?MSG_IDLE?MSG_CTRL
FF7C57H   FF7C67H   000011H   BYTE   INSEG    CODE           ?PR?MSG_EVENTCLR?MSG_CTRL
FF7C68H   FF7C7CH   000015H   BYTE   INSEG    CODE           ?PR?HAL_ISWISUNHW?HAL
FF7C7DH   FF7C91H   000015H   BYTE   INSEG    CODE           ?PR?HAL_ISZIGBEEHW?HAL
FF7C92H   FF7EFEH   00026DH   BYTE   INSEG    CODE           ?PR?HAL_HWINIT?HAL_RT569MP_INIT
FF7EFFH   FF7F40H   000042H   BYTE   INSEG    CODE           ?PR?HALRF_TXPWRSET2HW?HAL_RT569MP_RF
FF7F41H   FF7FAAH   00006AH   BYTE   INSEG    CODE           ?PR?HALRF_TXGAINTABLECFG?HAL_RT569MP_RF
FF7FABH   FF7FDCH   000032H   BYTE   INSEG    CODE           ?PR?HALRF_ALLPATHDISABLE?HAL_RF
FF7FDDH   FF800BH   00002FH   BYTE   INSEG    CODE           ?PR?HAL_ISSUBGRF?HAL
FF800CH   FF801AH   00000FH   BYTE   INSEG    CODE           ?PR?HAL_IS2GRF?HAL
FF801BH   FF801BH   000001H   BYTE   INSEG    CODE           ?PR?HAL_WATCHDOG?HAL
FF801CH   FF8024H   000009H   BYTE   INSEG    CODE           ?PR?HALMAC_WHITENDFTGET?HAL_MAC
FF8025H   FF803BH   000017H   BYTE   INSEG    CODE           ?PR?HALMAC_SFDDFTGET?HAL_MAC
FF803CH   FF80B8H   00007DH   BYTE   INSEG    CODE           ?PR?HALMAC_TXTYPESET?HAL_MAC
FF80B9H   FF811AH   000062H   BYTE   INSEG    CODE           ?PR?HALMAC_IFST2T?HAL_MAC
FF811BH   FF8144H   00002AH   BYTE   INSEG    CODE           ?PR?HALTCON_TXTAILDELAYGET?HAL_RT569MP_TCON
FF8145H   FF81A6H   000062H   BYTE   INSEG    CODE           ?PR?HALMAC_IFST2R?HAL_MAC
FF81A7H   FF81DBH   000035H   BYTE   INSEG    CODE           ?PR?HALMAC_IFSR2R?HAL_MAC
FF81DCH   FF8228H   00004DH   BYTE   INSEG    CODE           ?PR?HALTCON_RXTAILDELAYGET?HAL_RT569MP_TCON
FF8229H   FF825DH   000035H   BYTE   INSEG    CODE           ?PR?HALMAC_IFSR2T?HAL_MAC
FF825EH   FF82D6H   000079H   BYTE   INSEG    CODE           ?PR?HALPHY_DFESET?HAL_PHY
FF82D7H   FF82F0H   00001AH   BYTE   INSEG    CODE           ?PR?HALPHY_RXDISABLE?HAL_PHY
FF82F1H   FF832EH   00003EH   BYTE   INSEG    CODE           ?PR?HALPHY_RXENABLE?HAL_PHY
FF832FH   FF839DH   00006FH   BYTE   INSEG    CODE           ?PR?HALRF_PLLCFG?HAL_RT569MP_RF
FF839EH   FF8570H   0001D3H   BYTE   INSEG    CODE           ?PR?HALPHY_TXENABLE?HAL_PHY
FF8571H   FF8571H   000001H   BYTE   INSEG    CODE           ?PR?HALRF_TXPWRCOMPSET2HW?HAL_RT569MP_RF
FF8572H   FF882EH   0002BDH   BYTE   INSEG    CODE           ?PR?HALPHY_TXBWSET?HAL_PHY
FF882FH   FF88B9H   00008BH   BYTE   INSEG    CODE           ?PR?HALPHY_INPUTPWRGET?HAL_PHY
FF88BAH   FF88CCH   000013H   BYTE   INSEG    CODE           ?PR?HALRF_AGCSET?HAL_RF
FF88CDH   FF8914H   000048H   BYTE   INSEG    CODE           ?PR?HALRF_TXPWRSET?HAL_RF
FF8915H   FF892BH   000017H   BYTE   INSEG    CODE           ?PR?HALRF_TEMPERATURERPTGET?HAL_RF
FF892CH   FF8942H   000017H   BYTE   INSEG    CODE           ?PR?HALRF_VOLTAGERPTGET?HAL_RF
FF8943H   FF8959H   000017H   BYTE   INSEG    CODE           ?PR?HALRF_RSSIOFFSETSET?HAL_RF
FF895AH   FF8982H   000029H   BYTE   INSEG    CODE           ?PR?HALSEC_AESKEYSET?HAL_SEC
FF8983H   FF899FH   00001DH   BYTE   UNIT     CODE           ?L?COM0010
FF89A0H   FF89B4H   000015H   BYTE   INSEG    CODE           ?PR?HALSEC_AESKEYONLYSET?HAL_SEC
FF89B5H   FF89C1H   00000DH   BYTE   INSEG    CODE           ?PR?HALSEC_NONCEONLYSET?HAL_SEC
FF89C2H   FF89EBH   00002AH   BYTE   INSEG    CODE           ?PR?HALSEC_AESLEVELONLYSET?HAL_SEC
FF89ECH   FF8A06H   00001BH   BYTE   INSEG    CODE           ?PR?HALSEC_AESTXSET?HAL_SEC
FF8A07H   FF8A5EH   000058H   BYTE   INSEG    CODE           ?PR?HALRFK_KVALUESET?_?HAL_RFK
FF8A5FH   FF8AEBH   00008DH   BYTE   INSEG    CODE           ?PR?HALRFK_KVALUESET2HW?HAL_RFK
FF8AECH   FF8B3FH   000054H   BYTE   INSEG    CODE           ?PR?HALRFK_KVALUEGET?_?HAL_RFK
FF8B40H   FF8B6CH   00002DH   BYTE   INSEG    CODE           ?PR?HALIO_DIOSET?HAL_IO
FF8B6DH   FF8C55H   0000E9H   BYTE   INSEG    CODE           ?PR?HAL_PARAINIT?HAL_INIT
FF8C56H   FF8C76H   000021H   BYTE   INSEG    CODE           ?PR?HAL_COLDINIT?HAL_INIT
FF8C77H   FF8D72H   0000FCH   BYTE   INSEG    CODE           ?PR?HALRFK_PARABACKUP?HAL_RT569MP_RFK
FF8D73H   FF8DE7H   000075H   BYTE   INSEG    CODE           ?PR?HALRFK_RXBWCFG?HAL_RT569MP_RFK
FF8DE8H   FF8E6BH   000084H   BYTE   INSEG    CODE           ?PR?HALRFK_TXLOK?HAL_RT569MP_RFK
FF8E6CH   FF8F39H   0000CEH   BYTE   INSEG    CODE           ?PR?HALRFK_TXSBK?HAL_RT569MP_RFK
FF8F3AH   FF8FF1H   0000B8H   BYTE   INSEG    CODE           ?PR?HALRFK_LBPATHENABLE?HAL_RT569MP_RFK
FF8FF2H   FF9018H   000027H   BYTE   INSEG    CODE           ?PR?HALRFK_LBPATHDISABLE?HAL_RT569MP_RFK
FF9019H   FF9088H   000070H   BYTE   INSEG    CODE           ?PR?HALRFK_RXPATHENABLE?HAL_RT569MP_RFK
FF9089H   FF90B3H   00002BH   BYTE   INSEG    CODE           ?PR?HALRFK_RXPATHDISABLE?HAL_RT569MP_RFK
L251 LINKER/LOCATER V4.66.93.0                                                        12/18/2023  14:26:43  PAGE 12


FF90B4H   FF9132H   00007FH   BYTE   INSEG    CODE           ?PR?HALRFK_RXENABLE?HAL_RT569MP_RFK
FF9133H   FF9150H   00001EH   BYTE   INSEG    CODE           ?PR?HALRFK_RXDISABLE?HAL_RT569MP_RFK
FF9151H   FF9240H   0000F0H   BYTE   INSEG    CODE           ?PR?HALRFK_RINGPLLSET?HAL_RT569MP_RFK
FF9241H   FF92FCH   0000BCH   BYTE   INSEG    CODE           ?PR?HALRF_FREQ2GCFG?HAL_RT569MP_RF
FF92FDH   FF9366H   00006AH   BYTE   INSEG    CODE           ?PR?HALRF_FREQ2GCAL?HAL_RT569MP_RF
FF9367H   FF9405H   00009FH   BYTE   INSEG    CODE           ?PR?HALRF_IFCHECK?HAL_RT569MP_RF
FF9406H   FF95B9H   0001B4H   BYTE   INSEG    CODE           ?PR?HALRF_FREQSUBGCFG?HAL_RT569MP_RF
FF95BAH   FF9624H   00006BH   BYTE   INSEG    CODE           ?PR?HALRF_AGCINIT?HAL_RT569MP_RF
FF9625H   FF9625H   000001H   BYTE   INSEG    CODE           ?PR?HALRF_TEMPERATUREMEASURE?HAL_RT569MP_RF
FF9626H   FF9626H   000001H   BYTE   INSEG    CODE           ?PR?HALRF_VOLTAGEMEASURE?HAL_RT569MP_RF
FF9627H   FF9627H   000001H   BYTE   INSEG    CODE           ?PR?HALRF_EXTFEMINIT?HAL_RT569MP_RF
FF9628H   FF9751H   00012AH   BYTE   INSEG    CODE           ?PR?HALTCON_INIT?HAL_RT569MP_TCON
FF9752H   FF97A6H   000055H   BYTE   INSEG    CODE           ?PR?HALTCON_PRETXTIMESET?HAL_RT569MP_TCON
FF97A7H   FF97D3H   00002DH   BYTE   INSEG    CODE           ?PR?HALPMU_PWRMODESET?HAL_RT569MP_PMU
FF97D4H   FF97F0H   00001DH   BYTE   INSEG    CODE           ?PR?HALPMU_PWRMODEGET?HAL_RT569MP_PMU
FF97F1H   FF9808H   000018H   BYTE   UNIT     CODE           ?L?COM000C



PUBLIC SYMBOLS OF MODULE:  .\obj\RT569 (?C_START)


      VALUE       CLASS    TYPE      PUBLIC SYMBOL NAME
      =================================================
      000000FFH   NUMBER   ---       ?C?CODESEG
      00FF0123H   CODE     ---       ?C?INITEDATA
      00FF0E72H   HCONST   WORD      ?C?INITEDATA_END
      00FF0051H   CODE     ---       ?C?LIMUL
      00FF0040H   CODE     ---       ?C?LMUL
      00FF000EH   CODE     ---       ?C?SIDIV
      00FF0000H   CODE     ---       ?C?STARTUP
      00FF005CH   CODE     NEAR LAB  ?C?ULDIV
      00FF005AH   CODE     NEAR LAB  ?C?ULIDIV
      00000001H   NUMBER   ---       ?C?XDATASEG
      00FF0000H   CODE     ---       ?C_STARTUP
      0000AF69H   EDATA    BYTE      ?HALRF_IfCheck?BYTE
      0000AF75H   EDATA    BYTE      ?HALRFK_RingPllSet?BYTE
      0000AF58H   EDATA    BYTE      ?HALSEC_AesSet?BYTE
      0000AE4BH   EDATA    BYTE      ?RUCI_endianConvert?BYTE
      0000AE02H   EDATA    BYTE      ?T2RTask_Set?BYTE
*SFR* 000000D0H.6 DATA     BIT       AC
*SFR* 000000E0H   DATA     BYTE      ACC
*SFR* 0000009DH   DATA     BYTE      ACON
      00FF0008H   CODE     ---       AllTask_Stop
      00FF00ADH   CODE     ---       ASM_MEMCPY
      00FF014FH   CODE     ---       ASM_MEMSET
*SFR* 000000F0H   DATA     BYTE      B
      00FF5DC9H   CODE     ---       BMU_FreqFlowCtrlSet
      00FF5DEFH   CODE     ---       BMU_H2MCmdGet
      00FF5D10H   CODE     ---       BMU_HwInit
      00FF5C83H   CODE     ---       BMU_HwReset
      00FF6107H   CODE     ---       BMU_LocalRxqStartAddGet
      00FF614BH   CODE     ---       BMU_LocalRxQueueGet
      00FF642DH   CODE     ---       BMU_LocalTxqStartAddGet
      00FF6567H   CODE     ---       BMU_LocalTxQueueGet
      00FF56F1H   CODE     ---       BMU_LocalTxQueueSet
      00FF5E67H   CODE     ---       BMU_M2HCmdSet
      00FF5BCBH   CODE     ---       BMU_MemAllocate
      00FF6626H   CODE     ---       BMU_PrivacyIrkClr
      00FF67CCH   CODE     ---       BMU_PrivacyIrkFullSearch
      00FF6797H   CODE     ---       BMU_PrivacyIrkGet
      00FF6697H   CODE     ---       BMU_PrivacyIrkSet
      00FF675EH   CODE     ---       BMU_PrivacyIrkSingleSearch
      00FF66D0H   CODE     ---       BMU_PrivacyLocalRpaGen
      00FF2EA2H   CODE     ---       BMU_RxConfig
L251 LINKER/LOCATER V4.66.93.0                                                        12/18/2023  14:26:43  PAGE 13


      00FF6129H   CODE     ---       BMU_RxqStartAddGet
      00FF25B0H   CODE     ---       BMU_RxQueueGet
      00FF2504H   CODE     ---       BMU_RxQueueSet
      00FF5EEBH   CODE     ---       BMU_TrxQueueGet
      00FF5FF9H   CODE     ---       BMU_TrxQueueSet
      00FF2C87H   CODE     ---       BMU_TxConfig
      00FF64CEH   CODE     ---       BMU_TxPktLengthGet
      00FF6496H   CODE     ---       BMU_TxqPktSearch
      00FF644FH   CODE     ---       BMU_TxqStartAddGet
      00FF6472H   CODE     ---       BMU_TxqStatusRecovery
      00FF5DB2H   CODE     ---       BMU_TxqStatusUpd
      00FF65A1H   CODE     ---       BMU_TxQueueClear
      00FF2BB1H   CODE     ---       BMU_TxQueueGet
      00FF122EH   HCONST   ---       bmuMemSizeHwRxq
      00FF1236H   HCONST   ---       bmuMemSizeHwSwRxq
*SFR* 000000C8H.1 DATA     BIT       C_T2
*SFR* 000000CEH   DATA     BYTE      CCEN
*SFR* 000000D8H.0 DATA     BIT       CCF0
*SFR* 000000D8H.1 DATA     BIT       CCF1
*SFR* 000000D8H.2 DATA     BIT       CCF2
*SFR* 000000D8H.3 DATA     BIT       CCF3
*SFR* 000000D8H.4 DATA     BIT       CCF4
*SFR* 000000C3H   DATA     BYTE      CCH1
*SFR* 000000C5H   DATA     BYTE      CCH2
*SFR* 000000C7H   DATA     BYTE      CCH3
*SFR* 000000C2H   DATA     BYTE      CCL1
*SFR* 000000C4H   DATA     BYTE      CCL2
*SFR* 000000C6H   DATA     BYTE      CCL3
*SFR* 00000090H.3 DATA     BIT       CEX0
*SFR* 00000090H.4 DATA     BIT       CEX1
*SFR* 00000090H.5 DATA     BIT       CEX2
*SFR* 00000090H.6 DATA     BIT       CEX3
*SFR* 00000090H.7 DATA     BIT       CEX4
*SFR* 000000D8H.7 DATA     BIT       CF
*SFR* 0000008EH   DATA     BYTE      CKCON
      00FF3BF4H   CODE     ---       CMD_CnfEventSend
      00FF3C16H   CODE     ---       CMN_CmdHal_GetTemperatureRpt
      00FF3D80H   CODE     ---       CMN_CmdHal_GetVoltageRpt
      00FF3DC0H   CODE     ---       CMN_CmdHal_SetAgc
      00FF3CF7H   CODE     ---       CMN_CmdHal_SetCalibrationEnable
      00FF3F19H   CODE     ---       CMN_CmdHal_SetCalibrationSetting
      00FF3D77H   CODE     ---       CMN_CmdHal_SetPmuMpkSetting
      00FF3D8CH   CODE     ---       CMN_CmdHal_SetPmuOpMode
      00FF3DA5H   CODE     ---       CMN_CmdHal_SetRssiOffset
      00FF3F4CH   CODE     ---       CMN_CmdHal_SetTxPower
      00FF3DE3H   CODE     ---       CMN_CmdHal_SetTxPowerBy
      00FF3F80H   CODE     ---       CMN_CmdHal_SetTxPowerOqpsk
      00FF3D65H   CODE     ---       CMN_CmdHal_SetTxPwrChComp
      00FF3D6EH   CODE     ---       CMN_CmdHal_SetTxPwrChSegment
      00FF3D5CH   CODE     ---       CMN_CmdHal_SetTxPwrComp
      00FF3B3DH   CODE     ---       CMN_CmdSys_GetRfbFwVer
      00FF3B48H   CODE     ---       CMN_GetFwVerEventSend
      00FF3C21H   CODE     ---       CMN_GetTemperatureRptEventSend
      00FF375BH   CODE     ---       CMN_GetVoltageRptEventSend
      00FF3D08H   CODE     ---       CMN_SetCalibrationEnableEventSend
      00FF1305H   CODE     ---       common_isr_init
      00FF29FAH   CODE     ---       common_isrBmuCheckTx
      00FF5BC1H   CODE     ---       common_isrBmuHandler
      00FF578AH   CODE     ---       Common_IsrBmuTxQAdd?_
      00FF5958H   CODE     ---       Common_IsrBmuTxQDeleteAllByCondition?_
      00FF5AC7H   CODE     ---       Common_IsrBmuTxQDeleteByPtr?_
      00FF584AH   CODE     ---       Common_IsrBmuTxQGetByHandle?_
      00FF5B51H   CODE     ---       Common_IsrBmuTxQInit
      00FF58F6H   CODE     ---       Common_IsrBmuTxQPciGet
*SFR* 000000C8H.0 DATA     BIT       CP_RL2
L251 LINKER/LOCATER V4.66.93.0                                                        12/18/2023  14:26:43  PAGE 14


*SFR* 000000D8H.7 DATA     BIT       CPUSRF
*SFR* 000000D8H.6 DATA     BIT       CR
*SFR* 000000CBH   DATA     BYTE      CRCH
*SFR* 000000CAH   DATA     BYTE      CRCL
*SFR* 000000D0H.7 DATA     BIT       CY
*SFR* 000000CFH   DATA     BYTE      DEVICR
*SFR* 0000008FH   DATA     BYTE      DMAIR
*SFR* 00000083H   DATA     BYTE      DPH
*SFR* 00000083H   DATA     BYTE      DPH1
*SFR* 00000082H   DATA     BYTE      DPL
*SFR* 00000082H   DATA     BYTE      DPL1
*SFR* 00000086H   DATA     BYTE      DPS
*SFR* 00000084H   DATA     BYTE      DPX1
*SFR* 00000084H   DATA     BYTE      DPXL
*SFR* 000000A8H.7 DATA     BIT       EA
*SFR* 000000A8H.6 DATA     BIT       EC
*SFR* 00000090H.2 DATA     BIT       ECI
*SFR* 000000E8H   DATA     BYTE      EIE
*SFR* 00000091H   DATA     BYTE      EIF
*SFR* 000000F8H   DATA     BYTE      EIP
*SFR* 000000B6H   DATA     BYTE      EIPH
*SFR* 000000B6H   DATA     BYTE      EIPH0
*SFR* 000000F8H   DATA     BYTE      EIPL
*SFR* 000000A8H.4 DATA     BIT       ES
*SFR* 000000A8H.4 DATA     BIT       ES0
*SFR* 000000A8H.6 DATA     BIT       ES1
*SFR* 000000A8H.1 DATA     BIT       ET0
*SFR* 000000A8H.3 DATA     BIT       ET1
*SFR* 000000A8H.5 DATA     BIT       ET2
*SFR* 000000D8H.1 DATA     BIT       EWT
*SFR* 000000A8H.0 DATA     BIT       EX0
*SFR* 000000A8H.2 DATA     BIT       EX1
*SFR* 000000C8H.3 DATA     BIT       EXEN2
*SFR* 000000C8H.6 DATA     BIT       EXF2
*SFR* 000000D0H.5 DATA     BIT       F0
*SFR* 00000098H.7 DATA     BIT       FE
      0000ADD0H   EDATA    ---       g15p4Mac
      0000ADE3H   EDATA    ---       g15p4Phy
      0000AEF6H   EDATA    ---       g_mac_isr_cb_handle
      0000A8A8H   EDATA    BYTE      gBackoffExpIdx
      0000ACAAH   EDATA    ---       gBmuDataList
      0000ACA6H   EDATA    ---       gBmuDataListHead
      0000ACA8H   EDATA    ---       gBmuDataListTail
      0000AC9BH   EDATA    ---       gBmuDataTxCtrlField
      0000AC94H   EDATA    ---       gBmuDataTxQList
      00FF10C9H   HCONST   ---       gCmnHalCmdLen
      00FF10C7H   HCONST   ---       gCmnSysCmdLen
      0000A8A7H   EDATA    BYTE      gCsmacaRetry
      00FF7369H   CODE     ---       get_pan_number
      0000AE63H   EDATA    ---       gIntrRegMask
      0000AE6BH   EDATA    ---       gIntrRfHdlrTable
      0000AF1DH   EDATA    DWORD     gLastWakeTick
      0000AF55H   EDATA    DWORD     gMac_Frame_Pending_Rx_Time
      0000A069H   EDATA    ---       gMacBuf
      0000AD22H   EDATA    ---       gMacFunCtrl
      0000AD23H   EDATA    ---       gMacFunEventQ
      0000A044H   EDATA    ---       gMacHdr
      0000AD3DH   EDATA    ---       gMacIntEventQ
      0000AD59H   EDATA    ---       gMacPib
      0000AD57H   EDATA    INT       gMacRaaState
      0000ADFDH   EDATA    ---       gMacRfeRpt
      0000ADEEH   EDATA    ---       gMacRfeRxCtrl
      0000ADECH   EDATA    INT       gMacRfeRxState
      0000AE43H   EDATA    ---       gMacRfeTxCtrl
      0000AE41H   EDATA    INT       gMacRfeTxState
L251 LINKER/LOCATER V4.66.93.0                                                        12/18/2023  14:26:43  PAGE 15


      0000A028H   EDATA    ---       gMacRxPar
      0000A000H   EDATA    INT       gMacTarState
      0000A002H   EDATA    ---       gMacTxPar
      00FF10B6H   HCONST   ---       gPci15p4MacCmdLen
      00FF10ABH   HCONST   ---       gPciBleCmdLen
      00FF1086H   HCONST   ---       gPciCommonCmdLen
      00FF10A5H   HCONST   ---       gPciFskCmdLen
      00FF10C3H   HCONST   ---       gPciOqpskCmdLen
      0000A8A1H   EDATA    ---       gPhyStatus
      0000AD78H   EDATA    ---       gRaa_Sch_Handler_Entry
      0000A8A6H   EDATA    BYTE      gRetransmissionCount
      0000ADCFH   EDATA    BYTE      gSleepEnable
      0000AF21H   EDATA    ---       gSysEntry_Sleep
      0000AF2FH   EDATA    ---       gSysRtcHdlrTable
      0000A8A9H   EDATA    ---       gTar_ScheHandler_Entry
      0000AF3BH   EDATA    BYTE      gTaskMask
      0000AF3CH   EDATA    ---       gTaskTable
      00FF5644H   CODE     ---       HAL_ClkModeSet
      00FF8C56H   CODE     ---       HAL_ColdInit
      00FF55F4H   CODE     ---       HAL_DftParaGet
      00FF7C92H   CODE     ---       HAL_HwInit
      00FF2FADH   CODE     ---       HAL_HwModeGet
      00FF52B3H   CODE     ---       HAL_HwModeInit?_
      00FF800CH   CODE     ---       HAL_Is2gRf
      00FF4FDEH   CODE     ---       HAL_IsBleHw
      00FF7FFEH   CODE     ---       HAL_IsSubgRf
      00FF7C68H   CODE     ---       HAL_IsWisunHw
      00FF7C7DH   CODE     ---       HAL_IsZigbeeHw
      00FF8B6DH   CODE     ---       HAL_ParaInit
      00FF568CH   CODE     ---       HAL_PktTypeSet
      00FF801BH   CODE     ---       HAL_Watchdog
      00FF8B40H   CODE     ---       HALIO_dioSet
      00FF5594H   CODE     ---       HALMAC_CrcInitDftGet
      00FF2E29H   CODE     ---       HALMAC_CrcLenCfgGet
      00FF54A8H   CODE     ---       HALMAC_CrcSet
      00FF81A7H   CODE     ---       HALMAC_IfsR2R
      00FF8229H   CODE     ---       HALMAC_IfsR2T
      00FF8145H   CODE     ---       HALMAC_IfsT2R
      00FF80B9H   CODE     ---       HALMAC_IfsT2T
      00FF2F2CH   CODE     ---       HALMAC_MaxPayloadDftGet
      00FF6FC5H   CODE     ---       HALMAC_MaxPayloadLenGet
      00FF628CH   CODE     ---       HALMAC_PhrLenCfgGet
      00FF2F35H   CODE     ---       HALMAC_PhrSet
      00FF5615H   CODE     ---       HALMAC_PktBitEndianSet
      00FF55D5H   CODE     ---       HALMAC_RxMaxPktLenSet
      00FF3FB6H   CODE     ---       HALMAC_RxMhrRptLenSet
      00FF2F56H   CODE     ---       HALMAC_RxPayloadLenGet
      00FF5475H   CODE     ---       HALMAC_RxPreambleSet
      00FF51FCH   CODE     ---       HALMAC_RxSfdSet
      00FF8025H   CODE     ---       HALMAC_SfdDftGet
      00FF5465H   CODE     ---       HALMAC_TxPreambleSet
      00FF50AAH   CODE     ---       HALMAC_TxSfdSet
      00FF8040H   CODE     ---       HALMAC_TxTypeSet
      00FF801CH   CODE     ---       HALMAC_WhitenDftGet
      00FF5537H   CODE     ---       HALMAC_WhitenInitDftGet
      00FF5485H   CODE     ---       HALMAC_WhitenSet
      00FF4BF2H   CODE     ---       HALPHY_BleRxParaSet
      00FF825EH   CODE     ---       HALPHY_DfeSet
      00FF4C46H   CODE     ---       HALPHY_FskRxParaSet
      00FF37BEH   CODE     ---       HALPHY_GaussianFiltSet
      00FF882FH   CODE     ---       HALPHY_InputPwrGet
      00FF4C9DH   CODE     ---       HALPHY_ModIdxSet
      00FF4CBEH   CODE     ---       HALPHY_ParaSet
      00FF3F02H   CODE     ---       HALPHY_PreamNumSet
      00FF482AH   CODE     ---       HALPHY_RxBwSet
L251 LINKER/LOCATER V4.66.93.0                                                        12/18/2023  14:26:43  PAGE 16


      00FF82D7H   CODE     ---       HALPHY_RxDisable
      00FF82F1H   CODE     ---       HALPHY_RxEnable
      00FF8572H   CODE     ---       HALPHY_TxBwSet
      00FF839EH   CODE     ---       HALPHY_TxEnable
      00FF24D1H   CODE     ---       HALPKT_PhyStatusGet
      00FF22FFH   CODE     ---       HALPKT_RxqDoneSet
      00FF2454H   CODE     ---       HALPKT_TxqDoneSet
      00FF97D4H   CODE     ---       HALPMU_PwrModeGet
      00FF97A7H   CODE     ---       HALPMU_PwrModeSet
      00FF95BAH   CODE     ---       HALRF_AgcInit
      00FF88BAH   CODE     ---       HALRF_AgcSet
      00FF475DH   CODE     ---       HALRF_AgcSet2Hw
      00FF7FABH   CODE     ---       HALRF_AllPathDisable
      00FF9627H   CODE     ---       HALRF_ExtFemInit
      00FF92FDH   CODE     ---       HALRF_Freq2gCal
      00FF9241H   CODE     ---       HALRF_Freq2gCfg
      00FF9406H   CODE     ---       HALRF_FreqSubgCfg
      00FF9367H   CODE     ---       HALRF_IfCheck
      00FF832FH   CODE     ---       HALRF_PllCfg
      00FF8943H   CODE     ---       HALRF_RssiOffsetSet
      00FF9625H   CODE     ---       HALRF_TemperatureMeasure
      00FF8915H   CODE     ---       HALRF_TemperatureRptGet
      00FF7F41H   CODE     ---       HALRF_TxGainTableCfg
      00FF8571H   CODE     ---       HALRF_TxPwrCompSet2Hw
      00FF88CDH   CODE     ---       HALRF_TxPwrSet
      00FF7EFFH   CODE     ---       HALRF_TxPwrSet2Hw
      00FF9626H   CODE     ---       HALRF_VoltageMeasure
      00FF892CH   CODE     ---       HALRF_VoltageRptGet
      00FF42A5H   CODE     ---       HALRFK_Calibration
      00FF8AECH   CODE     ---       HALRFK_kValueGet?_
      00FF8A5FH   CODE     ---       HALRFK_kValueSet2Hw
      00FF8A07H   CODE     ---       HALRFK_kValueSet?_
      00FF8FF2H   CODE     ---       HALRFK_LbPathDisable
      00FF8F3AH   CODE     ---       HALRFK_LbPathEnable
      00FF4353H   CODE     ---       HALRFK_LbTrxDisable
      00FF4235H   CODE     ---       HALRFK_LbTrxEnable
      00FF8C77H   CODE     ---       HALRFK_ParaBackUp
      00FF46C9H   CODE     ---       HALRFK_ParaRecover
      00FF4547H   CODE     ---       HALRFK_PllForFiltKSet
      00FF44ACH   CODE     ---       HALRFK_PllForLokSet
      00FF44CBH   CODE     ---       HALRFK_PllForSideBandKSet
      00FF44F1H   CODE     ---       HALRFK_RfGainCfg
      00FF465EH   CODE     ---       HALRFK_RfPllCfg
      00FF45AEH   CODE     ---       HALRFK_RfTxCfg
      00FF9151H   CODE     ---       HALRFK_RingPllSet
      00FF439EH   CODE     ---       HALRFK_RssiGet
      00FF8D73H   CODE     ---       HALRFK_RxBwCfg
      00FF9133H   CODE     ---       HALRFK_RxDisable
      00FF90B4H   CODE     ---       HALRFK_RxEnable
      00FF4408H   CODE     ---       HALRFK_RxFiltK
      00FF9089H   CODE     ---       HALRFK_RxPathDisable
      00FF9019H   CODE     ---       HALRFK_RxPathEnable
      00FF4346H   CODE     ---       HALRFK_SingleToneDisable
      00FF4375H   CODE     ---       HALRFK_SingleToneEnable
      00FF8DE8H   CODE     ---       HALRFK_TxLok
      00FF8E6CH   CODE     ---       HALRFK_TxSbk
      00FF89A0H   CODE     ---       HALSEC_AesKeyOnlySet
      00FF895AH   CODE     ---       HALSEC_AesKeySet
      00FF89C2H   CODE     ---       HALSEC_AesLevelOnlySet
      00FF2FFBH   CODE     ---       HALSEC_AesSet
      00FF89ECH   CODE     ---       HALSEC_AesTxSet
      00FF89B5H   CODE     ---       HALSEC_NonceOnlySet
      00FF9628H   CODE     ---       HALTCON_Init
      00FF9752H   CODE     ---       HALTCON_PreTxTimeSet
      00FF81E0H   CODE     ---       HALTCON_RxTailDelayGet
L251 LINKER/LOCATER V4.66.93.0                                                        12/18/2023  14:26:43  PAGE 17


      00FF811BH   CODE     ---       HALTCON_TxTailDelayGet
      00FF0190H   CODE     ---       hmemcpy?_
*SFR* 000000F6H   DATA     BYTE      I2CM_BUF
*SFR* 000000F5H   DATA     BYTE      I2CM_CR
*SFR* 000000F4H   DATA     BYTE      I2CM_SA
*SFR* 000000F7H   DATA     BYTE      I2CM_TP
*SFR* 000000F1H   DATA     BYTE      I2CS_ADDR
*SFR* 000000F3H   DATA     BYTE      I2CS_BUF
*SFR* 000000F2H   DATA     BYTE      I2CS_CR
*SFR* 000000C8H.5 DATA     BIT       I2FR
*SFR* 000000C8H.6 DATA     BIT       I3FR
*SFR* 000000A8H   DATA     BYTE      IE
*SFR* 00000088H.1 DATA     BIT       IE0
*SFR* 00000088H.1 DATA     BIT       IE0_
*SFR* 00000088H.3 DATA     BIT       IE1
*SFR* 00000088H.3 DATA     BIT       IE1_
*SFR* 000000B1H   DATA     BYTE      IEH
*SFR* 000000A8H   DATA     BYTE      IEL
*SFR* 000000B0H.2 DATA     BIT       INT0
*SFR* 000000B0H.3 DATA     BIT       INT1
      00FF1FFDH   CODE     ---       INTR_Clear
      00FF2026H   CODE     ---       INTR_ClearRtcGrp
      00FF17EDH   CODE     ---       INTR_Enable
      00FF2037H   CODE     ---       INTR_Rf_Hdlr
      00FF12B8H   CODE     ---       INTR_Rf_Register
*SFR* 000000B8H   DATA     BYTE      IP
*SFR* 000000B7H   DATA     BYTE      IPH
*SFR* 000000B7H   DATA     BYTE      IPH0
*SFR* 000000B8H   DATA     BYTE      IPL
*SFR* 000000B8H   DATA     BYTE      IPL0
      00FF2046H   CODE     ---       ISR_0_Hdlr
      00FF3073H   CODE     ---       ISR_1_Hdlr
      00FF17FCH   CODE     ---       ISR_CLEAR_MAC_STATUS
      00FF2847H   CODE     ---       ISR_GET_MAC_STATUS
*SFR* 00000088H.0 DATA     BIT       IT0
*SFR* 00000088H.2 DATA     BIT       IT1
      00FF6886H   CODE     ---       mac
      00FF27BAH   CODE     ---       MAC_AckFrameCheck
      00FF2552H   CODE     ---       MAC_AckSet
      00FF310BH   CODE     ---       MAC_BackoffTimeCal
      00FF6D90H   CODE     ---       mac_BmuIsrInit
      00FF1F0EH   CODE     ---       MAC_CcaStart
      00FF2867H   CODE     ---       MAC_CcaStatusGet
      00FF2856H   CODE     ---       mac_CheckIsrRxReceived
      00FF2A74H   CODE     ---       mac_CheckRxBusy
      00FF39A5H   CODE     ---       MAC_CmdQueueParse
      00FF17F2H   CODE     ---       mac_FatalClear
      00FF76D3H   CODE     ---       mac_Filter?_
      00FF22C1H   CODE     ---       mac_FunEventQAdd?_
      00FF15E6H   CODE     ---       mac_FunEventQGet?_
      00FF68D3H   CODE     ---       mac_FunEventQInit
      00FF1767H   CODE     ---       mac_FunEventQueueExist
      00FF768EH   CODE     ---       mac_genAck
      00FF1314H   CODE     ---       mac_Init
      00FF299DH   CODE     ---       mac_IntEventQAdd?_
      00FF684EH   CODE     ---       mac_IntEventQGet?_
      00FF68DFH   CODE     ---       mac_IntEventQInit
      00FF6AE6H   CODE     ---       mac_IntEventQueueExist
      00FF29E5H   CODE     ---       mac_IntEventQueueHandler
      00FF2FB5H   CODE     ---       mac_isr_reg_cb
      00FF6D15H   CODE     ---       mac_IsrHandler
      00FF17E1H   CODE     ---       mac_IsrInit
      00FF6C28H   CODE     ---       MAC_MhrParse
      00FF27D1H   CODE     ---       mac_org_cca_done_handler
      00FF24B2H   CODE     ---       mac_org_mhr_done_handler
L251 LINKER/LOCATER V4.66.93.0                                                        12/18/2023  14:26:43  PAGE 18


      00FF6C32H   CODE     ---       mac_org_rx_done_handler
      00FF27A6H   CODE     ---       mac_org_tx_done_handler
      00FF6AF5H   CODE     ---       mac_parseHdr
      00FF6394H   CODE     ---       mac_Raa_SchConfigHdlr
      00FF7669H   CODE     ---       mac_Raa_SchEndHdlr
      00FF75B3H   CODE     ---       mac_Raa_SchInitHdlr
      00FF768DH   CODE     ---       mac_Raa_SchReservedHdlr
      00FF75B4H   CODE     ---       mac_Raa_SchWaitMHRHdlr
      00FF7668H   CODE     ---       mac_Raa_SchWaitResumeHdlr
      00FF1792H   CODE     ---       mac_Raa_SchWaitRxDoneHdlr
      00FF7637H   CODE     ---       mac_Raa_SchWaitTxDoneHdlr
      00FF2498H   CODE     ---       Mac_RaaClearAckQandGenRxData
      00FF2139H   CODE     ---       Mac_RaaRxDoneHandle?_
      00FF68ABH   CODE     ---       MAC_RaaSchedule
      00FF7B45H   CODE     ---       MAC_RfeDataGen
      00FF24A4H   CODE     ---       MAC_RfeRxAonTaskDisable
      00FF61C3H   CODE     ---       MAC_RfeRxDataConfirm
      00FF240BH   CODE     ---       MAC_RfeRxDisable
      00FF5109H   CODE     ---       MAC_RfeRxParInit
      00FF55C3H   CODE     ---       MAC_RfeRxRptGet
      00FF1ACDH   CODE     ---       MAC_RfeRxSchedule
      00FF79D7H   CODE     ---       MAC_RfeSecLbHwSet
      00FF7AF5H   CODE     ---       MAC_RfeTxHwSecSet
      00FF6F2BH   CODE     ---       MAC_RfeTxParInit
      00FF7A82H   CODE     ---       MAC_RfeTxPktLenUpdate
      00FF1376H   CODE     ---       MAC_RfeTxSchedule
      00FF7A3BH   CODE     ---       MAC_RfeTxTaskSet
      00FF2350H   CODE     ---       MAC_RxDoneEventGen?_
      00FF62B1H   CODE     ---       MAC_RxHwSet
      00FF2E42H   CODE     ---       MAC_SecLbHwSet
      00FF31FAH   CODE     ---       MAC_SleepCheck
      00FF1F04H   CODE     ---       mac_tar_cca_setup
      00FF7933H   CODE     ---       mac_tar_check_data_requst
      00FF2DAAH   CODE     ---       mac_Tar_SchConfigHdlr
      00FF7902H   CODE     ---       mac_Tar_SchEndHdlr
      00FF78AEH   CODE     ---       mac_Tar_SchInitHdlr
      00FF7932H   CODE     ---       mac_Tar_SchReservedHdlr
      00FF2694H   CODE     ---       mac_Tar_SchWaitAckRxDoneHdlr
      00FF78AFH   CODE     ---       mac_Tar_SchWaitAckRxMHRHdlr
      00FF2A99H   CODE     ---       mac_Tar_SchWaitCCADoneHdlr
      00FF1FC8H   CODE     ---       mac_Tar_SchWaitNormalAckDoneHdlr
      00FF1DEEH   CODE     ---       mac_Tar_SchWaitNormalRxMsgHdlr
      00FF6323H   CODE     ---       mac_Tar_SchWaitTxDoneHdlr
      00FF2987H   CODE     ---       MAC_TarParInit
      00FF68BFH   CODE     ---       MAC_TarSchedule
      00FF687BH   CODE     ---       Mac_TimeoutHdlr
      00FF68EBH   CODE     ---       mac_TrxPar_Init
      00FF261BH   CODE     ---       MAC_TxDoneEventGen
      00FF28E3H   CODE     ---       Mac_TxGetBmuData
      00FF2C2FH   CODE     ---       MAC_TxHwSet
      00FF2B6EH   CODE     ---       MAC_TxStart
      00FF2B7FH   CODE     ---       MAC_TxTaskSet
      00FF79C7H   CODE     ---       MAC_WaitforRxTaskReady
      00FF0E74H   HCONST   ---       MACRfeDataType
      00FF0E7AH   HCONST   ---       MACRfePrbs9
      00FF278EH   CODE     ---       MacTxFreeBmuData
      00FF124CH   CODE     ---       MAIN
      00FF01AFH   CODE     ---       memset?_
      00FF7C57H   CODE     ---       MSG_EventClr
      00FF2FE3H   CODE     ---       MSG_Hdlr
      00FF1299H   CODE     ---       MSG_HdlrInit
      00FF7C29H   CODE     ---       MSG_Idle
      00FF1613H   CODE     ---       MSG_InMsgProc
      00FF7BDEH   CODE     ---       MSG_Isr?_
      00FF3FC1H   CODE     ---       MSG_OutMsgForceHandle
L251 LINKER/LOCATER V4.66.93.0                                                        12/18/2023  14:26:43  PAGE 19


      00FF3E30H   CODE     ---       MSG_OutMsgProc
      00FF395FH   CODE     ---       MSG_OutMsgToBmu
      00FF3E5BH   CODE     ---       MSG_OutStateSet
*SFR* 000000EAH   DATA     BYTE      MXAX
*SFR* 000000D1H.5 DATA     BIT       N_B
*SFR* 000000D0H.2 DATA     BIT       OV
*SFR* 000000D0H.0 DATA     BIT       P
*SFR* 00000080H   DATA     BYTE      P0
*SFR* 00000090H   DATA     BYTE      P1
*SFR* 000000A0H   DATA     BYTE      P2
*SFR* 000000B0H   DATA     BYTE      P3
      00FF0006H   HCONST   ---       pBmuMacIntrSts
      00FF3E08H   CODE     ---       Pci_BleCmdInitBle
      00FF5179H   CODE     ---       Pci_BleCmdSetBleMac
      00FF723CH   CODE     ---       Pci_BleCmdSetBleModem
      00FF36D6H   CODE     ---       Pci_EnableSingleTone
      00FF336AH   CODE     ---       Pci_GetCrcCount
      00FF350FH   CODE     ---       Pci_GetPhyStatus
      00FF349DH   CODE     ---       Pci_GetRssi
      00FF70B4H   CODE     ---       Pci_InitFsk
      00FF712AH   CODE     ---       Pci_InitZigbee
      00FF70EEH   CODE     ---       Pci_OqpskCmdInitOqpsk
      00FF5540H   CODE     ---       Pci_OqpskCmdSetOqpskMac
      00FF741AH   CODE     ---       Pci_OqpskCmdSetOqpskModem
      00FF7086H   CODE     ---       Pci_ParaReset
      00FF72EAH   CODE     ---       Pci_Parse15p4AddressFilter
      00FF3FD1H   CODE     ---       Pci_Parse15p4AutoAck
      00FF73A0H   CODE     ---       Pci_Parse15p4MacPib
      00FF3E95H   CODE     ---       Pci_Parse15p4PendingBit
      00FF73E1H   CODE     ---       Pci_Parse15p4PhyPib
      00FF3E64H   CODE     ---       Pci_Parse15p4SwMacCmd
      00FF3BBBH   CODE     ---       Pci_ParseBleCmd
      00FF3C7FH   CODE     ---       Pci_ParseCmnHalCmd
      00FF3B2FH   CODE     ---       Pci_ParseCmnSysCmd
      00FF33D3H   CODE     ---       Pci_ParseCommonCmd
      00FF3EB3H   CODE     ---       Pci_ParseFskCmd
      00FF3BD7H   CODE     ---       Pci_ParseOqpskCmd
      00FF4F93H   CODE     ---       Pci_RfeRxParaCheck
      00FF7458H   CODE     ---       Pci_RfeTxParaCheck
      00FF703BH   CODE     ---       Pci_SetClockMode
      00FF54E7H   CODE     ---       Pci_SetFskMac
      00FF71FAH   CODE     ---       Pci_SetFskModem
      00FF3EE5H   CODE     ---       Pci_SetFskPreamble
      00FF50BDH   CODE     ---       Pci_SetFskSfd
      00FF37E1H   CODE     ---       Pci_SetFskType
      00FF36ABH   CODE     ---       Pci_SetGaussianFilterType
      00FF2D1FH   CODE     ---       Pci_SetPhr
      00FF719FH   CODE     ---       Pci_SetRfbAutoState
      00FF37B5H   CODE     ---       Pci_SetRfeMode
      00FF36BCH   CODE     ---       Pci_SetRfeRxDisableCmd
      00FF4ED7H   CODE     ---       Pci_SetRfeRxEnableCmd
      00FF37D5H   CODE     ---       Pci_SetRfeSecurityCmd
      00FF6FF0H   CODE     ---       Pci_SetRfeTxDisableCmd
      00FF6E8BH   CODE     ---       Pci_SetRfeTxEnableCmd
      00FF6D9CH   CODE     ---       Pci_SetRfFreq
      00FF7025H   CODE     ---       Pci_SetRfIdle
      00FF7006H   CODE     ---       Pci_SetRfSleep
      00FF3713H   CODE     ---       Pci_SetRxTaskPara
      00FF325DH   CODE     ---       Pci_SetWakeOnRadio
      00FF7582H   CODE     ---       PciBurstTxdoneEventSendtoMsgQueue
      00FF3348H   CODE     ---       PciCnfEventSendtoMsgQueue
      00FF7544H   CODE     ---       PciDataControlFieldParse
      00FF3375H   CODE     ---       PciGetCrcEventSendtoMsgQueue
      00FF351AH   CODE     ---       PciGetPhyStatusEventSendtoMsgQueue
      00FF34A8H   CODE     ---       PciGetRssiEventSendtoMsgQueue
L251 LINKER/LOCATER V4.66.93.0                                                        12/18/2023  14:26:43  PAGE 20


      00FF29D5H   CODE     ---       pciQueueGetandMacIntQueueAdd
*SFR* 00000087H   DATA     BYTE      PCON
      0000AB73H   EDATA    ---       pHalBmuMemSizeHwRxq
      0000AB77H   EDATA    ---       pHalBmuMemSizeHwSwRxq
      0000AB53H   EDATA    ---       pHalFwCfg
      0000AB5BH   EDATA    ---       pHalHwCfg
      0000AB7BH   EDATA    ---       pHalHwPara
      0000AB7FH   EDATA    ---       pHalHwTab
      0000AB5FH   EDATA    ---       pHalMdmDefaultCfg
      0000AC4AH   EDATA    ---       pHalPktCfg
      0000AB6BH   EDATA    ---       pHalPmuDefaultCfg2G
      0000AB6FH   EDATA    ---       pHalPmuDefaultCfgSubG
      0000AC90H   EDATA    ---       pHalPrtclCfg
      0000AB57H   EDATA    ---       pHalRegPatch
      0000AB63H   EDATA    ---       pHalRfDefaultCfg2G
      0000AB67H   EDATA    ---       pHalRfDefaultCfgSubG
      00FF072CH   HCONST   ---       phyConfig
      00FF080CH   HCONST   ---       phyTabBpFir15Tap
      00FF0814H   HCONST   ---       phyTabBpFir31Tap
      00FF0824H   HCONST   ---       phyTabIfMap
      00FF082CH   HCONST   ---       phyTabIfMapDclk
      00FF11EEH   HCONST   ---       pllFreqBandTab
      00FF124AH   HCONST   ---       pMemMapBmuLinkTable
      00FF1248H   HCONST   ---       pMemMapExtData
      00FF1246H   HCONST   ---       pMemMapSharedBuffer
      00FF0293H   HCONST   ---       pmuConfig
*SFR* 000000D8H.6 DATA     BIT       PORF
*SFR* 000000B8H.6 DATA     BIT       PPC
*SFR* 000000B8H.4 DATA     BIT       PS
*SFR* 000000B8H.4 DATA     BIT       PS0
*SFR* 000000B8H.6 DATA     BIT       PS1
*SFR* 000000D0H   DATA     BYTE      PSW
*SFR* 000000D1H   DATA     BYTE      PSW1
*SFR* 000000B8H.1 DATA     BIT       PT0
*SFR* 000000B8H.3 DATA     BIT       PT1
*SFR* 000000B8H.5 DATA     BIT       PT2
*SFR* 000000B8H.0 DATA     BIT       PX0
*SFR* 000000B8H.2 DATA     BIT       PX1
      00FF38EAH   CODE     ---       Q_Init
      00FF35A0H   CODE     ---       Q_MemAlloc
      00FF393CH   CODE     ---       Q_MemFree
      00FF3922H   CODE     ---       Q_MemFreeCount
      00FF177BH   CODE     ---       Q_MemGet
      00FF4137H   CODE     ---       Q_QChageType
      00FF3988H   CODE     ---       Q_QFree
      00FF3949H   CODE     ---       Q_QGet
      00FF3FE3H   CODE     ---       Q_QLenGet
      00FF40B7H   CODE     ---       Q_QMoveBack
      00FF2FC6H   CODE     ---       Q_QNumGet
      00FF35E4H   CODE     ---       Q_QPushBack
      00FF3FF9H   CODE     ---       Q_QPushFront
      00FF4172H   CODE     ---       Q_QRemove
*SFR* 00000098H.2 DATA     BIT       RB8
*SFR* 000000C0H.2 DATA     BIT       RB81
*SFR* 000000CBH   DATA     BYTE      RCAP2H
*SFR* 000000CAH   DATA     BYTE      RCAP2L
*SFR* 000000C8H.5 DATA     BIT       RCLK
*SFR* 000000B0H.7 DATA     BIT       RD
*SFR* 00000098H.4 DATA     BIT       REN
*SFR* 000000C0H.4 DATA     BIT       REN1
      00FF7513H   CODE     ---       Reverse_Uint32cpy
      00FF1334H   CODE     ---       RF_Task_AllStop
      00FF180DH   CODE     ---       RF_Task_En
      00FF196CH   CODE     ---       RF_Task_Set
      00FF01C3H   HCONST   ---       rfConfig
L251 LINKER/LOCATER V4.66.93.0                                                        12/18/2023  14:26:43  PAGE 21


      00FF037BH   HCONST   ---       rfTabSideBnadK
*SFR* 00000098H.0 DATA     BIT       RI
*SFR* 000000C0H.0 DATA     BIT       RI1
*SFR* 000000CBH   DATA     BYTE      RLDH
*SFR* 000000CAH   DATA     BYTE      RLDL
*SFR* 000000D0H.3 DATA     BIT       RS0
*SFR* 000000D0H.4 DATA     BIT       RS1
      00FF1DCBH   CODE     ---       RTC_ClkGet?_
      00FF5050H   CODE     ---       RTC_Init
      00FF577DH   CODE     ---       RTC_IsrHdlr
      00FF5034H   CODE     ---       RTC_IsrHdlrInit
      00FF1FACH   CODE     ---       RTC_TickGapCount
      00FF4E67H   CODE     ---       RTC_TimerConfig
      00FF4FF1H   CODE     ---       RTC_TimerWakeUpDisable
      00FF500EH   CODE     ---       RTC_TriggerWithinUs
      00FF4216H   CODE     ---       RTC_uDelay
      00FF5004H   CODE     ---       RTC_WaitForTriggered
*SFR* 000000D4H   DATA     BYTE      RTCCON
*SFR* 000000D7H   DATA     BYTE      RTCICR
*SFR* 000000D6H   DATA     BYTE      RTCREG
*SFR* 000000D5H   DATA     BYTE      RTCSEC
      00FF1229H   HCONST   ---       Ruci_ElmtNum_GetCrcReportEvent
      00FF11B8H   HCONST   ---       Ruci_ElmtNum_GetFwVerEvent
      00FF1220H   HCONST   ---       Ruci_ElmtNum_GetRegEvent
      00FF11C5H   HCONST   ---       Ruci_ElmtNum_GetTemperatureRptEvent
      00FF11CFH   HCONST   ---       Ruci_ElmtNum_GetVoltageRptEvent
      00FF1216H   HCONST   ---       Ruci_ElmtNum_RxControlField
      00FF1123H   HCONST   ---       Ruci_ElmtNum_Set15p4AddressFilter
      00FF1135H   HCONST   ---       Ruci_ElmtNum_Set15p4MacPib
      00FF1146H   HCONST   ---       Ruci_ElmtNum_Set15p4PhyPib
      00FF1166H   HCONST   ---       Ruci_ElmtNum_SetBleMac
      00FF1152H   HCONST   ---       Ruci_ElmtNum_SetCslReceiverCtrl
      00FF104BH   HCONST   ---       Ruci_ElmtNum_SetDutyCycle
      00FF1242H   HCONST   ---       Ruci_ElmtNum_SetFskSfd
      00FF117BH   HCONST   ---       Ruci_ElmtNum_SetHtrpPara
      00FF11E1H   HCONST   ---       Ruci_ElmtNum_SetPmuMpkSetting
      00FF1079H   HCONST   ---       Ruci_ElmtNum_SetRfeRxEnable
      00FF105EH   HCONST   ---       Ruci_ElmtNum_SetRfeTxEnable
      00FF102EH   HCONST   ---       Ruci_ElmtNum_SetRfFrequency
      00FF1042H   HCONST   ---       Ruci_ElmtNum_SetRxEnable
      00FF120BH   HCONST   ---       Ruci_ElmtNum_SetTxControlField
      00FF1038H   HCONST   ---       Ruci_ElmtNum_SetWakeOnRadio
      00FF115BH   HCONST   ---       Ruci_ElmtNum_UpdateCslSampleTime
      00FF1224H   HCONST   ---       Ruci_ElmtType_GetCrcReportEvent
      00FF11B0H   HCONST   ---       Ruci_ElmtType_GetFwVerEvent
      00FF121CH   HCONST   ---       Ruci_ElmtType_GetRegEvent
      00FF11C0H   HCONST   ---       Ruci_ElmtType_GetTemperatureRptEvent
      00FF11CAH   HCONST   ---       Ruci_ElmtType_GetVoltageRptEvent
      00FF1210H   HCONST   ---       Ruci_ElmtType_RxControlField
      00FF111BH   HCONST   ---       Ruci_ElmtType_Set15p4AddressFilter
      00FF112BH   HCONST   ---       Ruci_ElmtType_Set15p4MacPib
      00FF113FH   HCONST   ---       Ruci_ElmtType_Set15p4PhyPib
      00FF115FH   HCONST   ---       Ruci_ElmtType_SetBleMac
      00FF114DH   HCONST   ---       Ruci_ElmtType_SetCslReceiverCtrl
      00FF1046H   HCONST   ---       Ruci_ElmtType_SetDutyCycle
      00FF123EH   HCONST   ---       Ruci_ElmtType_SetFskSfd
      00FF116DH   HCONST   ---       Ruci_ElmtType_SetHtrpPara
      00FF11D4H   HCONST   ---       Ruci_ElmtType_SetPmuMpkSetting
      00FF106CH   HCONST   ---       Ruci_ElmtType_SetRfeRxEnable
      00FF1050H   HCONST   ---       Ruci_ElmtType_SetRfeTxEnable
      00FF102AH   HCONST   ---       Ruci_ElmtType_SetRfFrequency
      00FF103EH   HCONST   ---       Ruci_ElmtType_SetRxEnable
      00FF1206H   HCONST   ---       Ruci_ElmtType_SetTxControlField
      00FF1032H   HCONST   ---       Ruci_ElmtType_SetWakeOnRadio
      00FF1157H   HCONST   ---       Ruci_ElmtType_UpdateCslSampleTime
L251 LINKER/LOCATER V4.66.93.0                                                        12/18/2023  14:26:43  PAGE 22


      00FF37F2H   CODE     ---       RUCI_endianConvert
*SFR* 000000D8H.0 DATA     BIT       RWT
*SFR* 000000B0H.0 DATA     BIT       RXD
      00FF1A99H   CODE     ---       RxTask_AlwaysOn_Set
      00FF7536H   CODE     ---       RxTask_RxTimer_Set
      00FF1F61H   CODE     ---       RxTask_Timeout_Set
*SFR* 000000A9H   DATA     BYTE      SADDR
*SFR* 000000B9H   DATA     BYTE      SADEN
      0000AF83H   EDATA    ---       sBmuCtrlPara
*SFR* 00000099H   DATA     BYTE      SBUF
*SFR* 000000C1H   DATA     BYTE      SBUF1
*SFR* 00000098H   DATA     BYTE      SCON
*SFR* 000000C0H   DATA     BYTE      SCON1
      00FF166EH   CODE     ---       SetRfIdle
      0000AB83H   EDATA    ---       sHalCtrl
      0000AC4CH   EDATA    ---       sHalFuncHdlr
      00FF0F7AH   HCONST   ---       sHalFwCfg
      00FF0F88H   HCONST   ---       sHalHwCfgBLE
      00FF0FBEH   HCONST   ---       sHalHwCfgWisun
      00FF0FF4H   HCONST   ---       sHalHwCfgZigbee
      00FF0832H   HCONST   ---       sHalHwPara
      00FF08ABH   HCONST   ---       sHalHwTab
      00FF10D7H   HCONST   ---       sHalParaIndDefault
      0000AC1BH   EDATA    ---       sHalPktCfg
      00FF1189H   HCONST   ---       sHalPrtclCfg
      0000AF69H   EDATA    ---       sHalRfkCtrl
*SFR* 00000098H.7 DATA     BIT       SM0
*SFR* 000000C0H.7 DATA     BIT       SM01
*SFR* 00000098H.6 DATA     BIT       SM1
*SFR* 000000C0H.6 DATA     BIT       SM11
*SFR* 00000098H.5 DATA     BIT       SM2
*SFR* 000000C0H.5 DATA     BIT       SM21
      0000AF40H   EDATA    ---       sMsgCtrl
*SFR* 00000081H   DATA     BYTE      SP
*SFR* 000000ECH   DATA     BYTE      SPCR
*SFR* 000000EEH   DATA     BYTE      SPDR
*SFR* 000000BEH   DATA     BYTE      SPH
*SFR* 000000EDH   DATA     BYTE      SPSR
      0000A8BDH   EDATA    ---       sQCtrl
      0000A8C9H   EDATA    ---       sQHeader
      0000A941H   EDATA    ---       sQPayload
*SFR* 000000EFH   DATA     BYTE      SSCR
      00FF31C9H   CODE     ---       SYS_EnterSleepCheck
      00FF38D4H   CODE     ---       SYS_EnterSleepGuard
      00FF2FD3H   CODE     ---       SYS_Idle_Task
      00FF128CH   CODE     ---       SYS_IdleTaskInit
      00FF12ACH   CODE     ---       SYS_IdleTaskIntInit
      00FF20CEH   CODE     ---       SYS_InfoRegInit
      00FF1253H   CODE     ---       SYS_Init
      00FF1FB9H   CODE     ---       SYS_isClkAPassOverClkB
      00FF3074H   CODE     ---       SYS_Rand
      00FF3154H   CODE     ---       SYS_Sleep
      00FF3250H   CODE     ---       SYS_SleepMinTimeGet
      00FF210EH   CODE     ---       SYS_Task_Block
      00FF27E9H   CODE     ---       SYS_Task_Register
      00FF2818H   CODE     ---       SYS_Task_Run
      00FF1740H   CODE     ---       SYS_Task_UnBlock
      00FF3143H   CODE     ---       SYS_TimerInit
      00FF15A4H   CODE     ---       SYS_TRAP
*SFR* 000000B0H.4 DATA     BIT       T0
*SFR* 000000B0H.5 DATA     BIT       T1
*SFR* 00000090H.0 DATA     BIT       T2
*SFR* 000000C8H.2 DATA     BIT       T2CM
*SFR* 000000C8H   DATA     BYTE      T2CON
*SFR* 00000090H.1 DATA     BIT       T2EX
L251 LINKER/LOCATER V4.66.93.0                                                        12/18/2023  14:26:43  PAGE 23


*SFR* 000000C8H.0 DATA     BIT       T2I0
*SFR* 000000C8H.1 DATA     BIT       T2I1
*SFR* 000000C9H   DATA     BYTE      T2IF
*SFR* 000000C9H   DATA     BYTE      T2MOD
*SFR* 000000C8H.7 DATA     BIT       T2PS
*SFR* 000000C8H.3 DATA     BIT       T2R0
*SFR* 000000C8H.4 DATA     BIT       T2R1
      00FF1848H   CODE     ---       T2RTask_Set
*SFR* 000000EBH   DATA     BYTE      TA
*SFR* 00000098H.3 DATA     BIT       TB8
*SFR* 000000C0H.3 DATA     BIT       TB81
*SFR* 0000009FH   DATA     BYTE      TB_SFR_REG
*SFR* 000000C8H.4 DATA     BIT       TCLK
*SFR* 00000088H   DATA     BYTE      TCON
*SFR* 00000088H.5 DATA     BIT       TF0
*SFR* 00000088H.7 DATA     BIT       TF1
*SFR* 000000C8H.7 DATA     BIT       TF2
*SFR* 0000008CH   DATA     BYTE      TH0
*SFR* 0000008DH   DATA     BYTE      TH1
*SFR* 000000CDH   DATA     BYTE      TH2
*SFR* 00000098H.1 DATA     BIT       TI
*SFR* 000000C0H.1 DATA     BIT       TI1
*SFR* 0000008AH   DATA     BYTE      TL0
*SFR* 0000008BH   DATA     BYTE      TL1
*SFR* 000000CCH   DATA     BYTE      TL2
*SFR* 00000089H   DATA     BYTE      TMOD
*SFR* 00000088H.4 DATA     BIT       TR0
*SFR* 00000088H.6 DATA     BIT       TR1
*SFR* 000000C8H.2 DATA     BIT       TR2
      00FF1A1AH   CODE     ---       TxContTask_Set
*SFR* 000000B0H.1 DATA     BIT       TXD
      0000AF8DH   EDATA    ---       txPwrCtrlArray
      00FF6C98H   CODE     ---       TxRtcTask_Set
      00FF6CD0H   CODE     ---       TxTask_Set
*SFR* 000000D0H.1 DATA     BIT       UD
*SFR* 00000096H   DATA     BYTE      USBADDR
*SFR* 00000097H   DATA     BYTE      USBDATA
*SFR* 000000D8H   DATA     BYTE      WDCON
*SFR* 000000D8H.3 DATA     BIT       WDIF
*SFR* 000000A6H   DATA     BYTE      WDTRST
*SFR* 000000B0H.6 DATA     BIT       WR
*SFR* 000000D8H.2 DATA     BIT       WTRF
*SFR* 00000092H   DATA     BYTE      WTST
*SFR* 000000D1H.1 DATA     BIT       Z_B



LINKER CODE PACKING SYMBOLS OF MODULE:  .\obj\RT569 (?C_START)


      VALUE       CLASS    TYPE      SYMBOL NAME
      ==========================================
      00FF2613H   CODE     BEGIN     ?L?COM0001
      00FF2613H   CODE     END       ?L?COM0002
      00FF47FCH   CODE     PART      ?L?COM0003
      00FF47FCH   CODE     END       ?L?COM0004
      00FF4534H   CODE     PART      ?L?COM0005
      00FF4534H   CODE     END       ?L?COM0006
      00FF37C9H   CODE     PART      ?L?COM0007
      00FF459AH   CODE     BEGIN     ?L?COM0008
      00FF1776H   CODE     BEGIN     ?L?COM0009
      00FF35BFH   CODE     BEGIN     ?L?COM000A
      00FF7FDDH   CODE     BEGIN     ?L?COM000B
      00FF97F1H   CODE     PART      ?L?COM000C
      00FF97F1H   CODE     END       ?L?COM000D
L251 LINKER/LOCATER V4.66.93.0                                                        12/18/2023  14:26:43  PAGE 24


      00FF2C0DH   CODE     PART      ?L?COM000E
      00FF2C0DH   CODE     END       ?L?COM000F
      00FF8983H   CODE     PART      ?L?COM0010
      00FF420EH   CODE     BEGIN     ?L?COM0011
      00FF173CH   CODE     BEGIN     ?L?COM0012
      00FF244CH   CODE     BEGIN     ?L?COM0013
      00FF244CH   CODE     END       ?L?COM0014
      00FF27ACH   CODE     PART      ?L?COM0015
      00FF27ACH   CODE     END       ?L?COM0016
      00FF2C1BH   CODE     BEGIN     ?L?COM0017
      00FF22F9H   CODE     BEGIN     ?L?COM0018
      00FF4392H   CODE     BEGIN     ?L?COM0019
      00FF4392H   CODE     END       ?L?COM001A
      00FF3F0DH   CODE     PART      ?L?COM001B
      00FF3343H   CODE     BEGIN     ?L?COM001C
      00FF1FB3H   CODE     BEGIN     ?L?COM001D
      00FF4C8CH   CODE     PART      ?L?COM001E
      00FF50A2H   CODE     PART      ?L?COM001F
      00FF210AH   CODE     BEGIN     ?L?COM0020
      00FF62AEH   CODE     BEGIN     ?L?COM0021
      00FF47F0H   CODE     PART      ?L?COM0022
      00FF55ABH   CODE     PART      ?L?COM0023
      00FF55B7H   CODE     PART      ?L?COM0024
      00FF4C80H   CODE     PART      ?L?COM0025
      00FF1A8DH   CODE     PART      ?L?COM0026
      00FF44EAH   CODE     BEGIN     ?L?COM0027
      00FF2C80H   CODE     BEGIN     ?L?COM0028
      00FF2D1AH   CODE     BEGIN     ?L?COM0029
      00FF159FH   CODE     BEGIN     ?L?COM002A
      00FF4371H   CODE     BEGIN     ?L?COM002B
      00FF81DCH   CODE     BEGIN     ?L?COM002C
      00FF803CH   CODE     BEGIN     ?L?COM002D
      00FF24CDH   CODE     BEGIN     ?L?COM002E
      00FF6CCCH   CODE     BEGIN     ?L?COM002F
      00FF2999H   CODE     BEGIN     ?L?COM0030
      00FF2FC2H   CODE     BEGIN     ?L?COM0031
      00FF5590H   CODE     BEGIN     ?L?COM0032
      00FF166AH   CODE     BEGIN     ?L?COM0033
      00FF3255H   CODE     PART      ?L?COM0034



SYMBOL TABLE OF MODULE:  .\obj\RT569 (?C_START)

      VALUE       REP       CLASS    TYPE      SYMBOL NAME
      ====================================================
      ---         MODULE    ---      ---       ?C_START
      00FF0000H   PUBLIC    CODE     ---       ?C?STARTUP
      00FF0000H   PUBLIC    CODE     ---       ?C_STARTUP
      000000D0H.6 SFRSYM    DATA     BIT       AC
      000000E0H   SFRSYM    DATA     BYTE      ACC
      0000009DH   SFRSYM    DATA     BYTE      ACON
      000000F0H   SFRSYM    DATA     BYTE      B
      000000CEH   SFRSYM    DATA     BYTE      CCEN
      000000C3H   SFRSYM    DATA     BYTE      CCH1
      000000C5H   SFRSYM    DATA     BYTE      CCH2
      000000C7H   SFRSYM    DATA     BYTE      CCH3
      000000C2H   SFRSYM    DATA     BYTE      CCL1
      000000C4H   SFRSYM    DATA     BYTE      CCL2
      000000C6H   SFRSYM    DATA     BYTE      CCL3
      00000090H.3 SFRSYM    DATA     BIT       CEX0
      00000090H.4 SFRSYM    DATA     BIT       CEX1
      00000090H.5 SFRSYM    DATA     BIT       CEX2
      00000090H.6 SFRSYM    DATA     BIT       CEX3
      00000090H.7 SFRSYM    DATA     BIT       CEX4
L251 LINKER/LOCATER V4.66.93.0                                                        12/18/2023  14:26:43  PAGE 25


      0000008EH   SFRSYM    DATA     BYTE      CKCON
      000000D8H.7 SFRSYM    DATA     BIT       CPUSRF
      000000C8H.0 SFRSYM    DATA     BIT       CP_RL2
      000000CBH   SFRSYM    DATA     BYTE      CRCH
      000000CAH   SFRSYM    DATA     BYTE      CRCL
      000000D0H.7 SFRSYM    DATA     BIT       CY
      000000C8H.1 SFRSYM    DATA     BIT       C_T2
      000000CFH   SFRSYM    DATA     BYTE      DEVICR
      0000008FH   SFRSYM    DATA     BYTE      DMAIR
      00000083H   SFRSYM    DATA     BYTE      DPH
      00000083H   SFRSYM    DATA     BYTE      DPH1
      00000082H   SFRSYM    DATA     BYTE      DPL
      00000082H   SFRSYM    DATA     BYTE      DPL1
      00000086H   SFRSYM    DATA     BYTE      DPS
      00000084H   SFRSYM    DATA     BYTE      DPX1
      00000084H   SFRSYM    DATA     BYTE      DPXL
      000000A8H.7 SFRSYM    DATA     BIT       EA
      00000090H.2 SFRSYM    DATA     BIT       ECI
      000000E8H   SFRSYM    DATA     BYTE      EIE
      00000091H   SFRSYM    DATA     BYTE      EIF
      000000F8H   SFRSYM    DATA     BYTE      EIP
      000000B6H   SFRSYM    DATA     BYTE      EIPH
      000000B6H   SFRSYM    DATA     BYTE      EIPH0
      000000F8H   SFRSYM    DATA     BYTE      EIPL
      000000A8H.4 SFRSYM    DATA     BIT       ES
      000000A8H.4 SFRSYM    DATA     BIT       ES0
      000000A8H.6 SFRSYM    DATA     BIT       ES1
      000000A8H.1 SFRSYM    DATA     BIT       ET0
      000000A8H.3 SFRSYM    DATA     BIT       ET1
      000000A8H.5 SFRSYM    DATA     BIT       ET2
      000000D8H.1 SFRSYM    DATA     BIT       EWT
      000000A8H.0 SFRSYM    DATA     BIT       EX0
      000000A8H.2 SFRSYM    DATA     BIT       EX1
      000000C8H.3 SFRSYM    DATA     BIT       EXEN2
      000000C8H.6 SFRSYM    DATA     BIT       EXF2
      000000D0H.5 SFRSYM    DATA     BIT       F0
      00000098H.7 SFRSYM    DATA     BIT       FE
      000000F6H   SFRSYM    DATA     BYTE      I2CM_BUF
      000000F5H   SFRSYM    DATA     BYTE      I2CM_CR
      000000F4H   SFRSYM    DATA     BYTE      I2CM_SA
      000000F7H   SFRSYM    DATA     BYTE      I2CM_TP
      000000F1H   SFRSYM    DATA     BYTE      I2CS_ADDR
      000000F3H   SFRSYM    DATA     BYTE      I2CS_BUF
      000000F2H   SFRSYM    DATA     BYTE      I2CS_CR
      000000C8H.5 SFRSYM    DATA     BIT       I2FR
      000000C8H.6 SFRSYM    DATA     BIT       I3FR
      000000A8H   SFRSYM    DATA     BYTE      IE
      00000088H.1 SFRSYM    DATA     BIT       IE0
      00000088H.3 SFRSYM    DATA     BIT       IE1
      000000B1H   SFRSYM    DATA     BYTE      IEH
      000000A8H   SFRSYM    DATA     BYTE      IEL
      000000B0H.2 SFRSYM    DATA     BIT       INT0
      000000B0H.3 SFRSYM    DATA     BIT       INT1
      000000B8H   SFRSYM    DATA     BYTE      IP
      000000B7H   SFRSYM    DATA     BYTE      IPH
      000000B7H   SFRSYM    DATA     BYTE      IPH0
      000000B8H   SFRSYM    DATA     BYTE      IPL
      000000B8H   SFRSYM    DATA     BYTE      IPL0
      00000088H.0 SFRSYM    DATA     BIT       IT0
      00000088H.2 SFRSYM    DATA     BIT       IT1
      000000EAH   SFRSYM    DATA     BYTE      MXAX
      000000D1H.5 SFRSYM    DATA     BIT       N_B
      000000D0H.2 SFRSYM    DATA     BIT       OV
      000000D0H.0 SFRSYM    DATA     BIT       P
      00000080H   SFRSYM    DATA     BYTE      P0
L251 LINKER/LOCATER V4.66.93.0                                                        12/18/2023  14:26:43  PAGE 26


      00000090H   SFRSYM    DATA     BYTE      P1
      000000A0H   SFRSYM    DATA     BYTE      P2
      000000B0H   SFRSYM    DATA     BYTE      P3
      00000087H   SFRSYM    DATA     BYTE      PCON
      000000D8H.6 SFRSYM    DATA     BIT       PORF
      000000B8H.4 SFRSYM    DATA     BIT       PS
      000000B8H.4 SFRSYM    DATA     BIT       PS0
      000000B8H.6 SFRSYM    DATA     BIT       PS1
      000000D0H   SFRSYM    DATA     BYTE      PSW
      000000D1H   SFRSYM    DATA     BYTE      PSW1
      000000B8H.1 SFRSYM    DATA     BIT       PT0
      000000B8H.3 SFRSYM    DATA     BIT       PT1
      000000B8H.5 SFRSYM    DATA     BIT       PT2
      000000B8H.0 SFRSYM    DATA     BIT       PX0
      000000B8H.2 SFRSYM    DATA     BIT       PX1
      00000098H.2 SFRSYM    DATA     BIT       RB8
      000000C0H.2 SFRSYM    DATA     BIT       RB81
      000000CBH   SFRSYM    DATA     BYTE      RCAP2H
      000000CAH   SFRSYM    DATA     BYTE      RCAP2L
      000000C8H.5 SFRSYM    DATA     BIT       RCLK
      000000B0H.7 SFRSYM    DATA     BIT       RD
      00000098H.4 SFRSYM    DATA     BIT       REN
      000000C0H.4 SFRSYM    DATA     BIT       REN1
      00000098H.0 SFRSYM    DATA     BIT       RI
      000000C0H.0 SFRSYM    DATA     BIT       RI1
      000000CBH   SFRSYM    DATA     BYTE      RLDH
      000000CAH   SFRSYM    DATA     BYTE      RLDL
      000000D0H.3 SFRSYM    DATA     BIT       RS0
      000000D0H.4 SFRSYM    DATA     BIT       RS1
      000000D4H   SFRSYM    DATA     BYTE      RTCCON
      000000D7H   SFRSYM    DATA     BYTE      RTCICR
      000000D6H   SFRSYM    DATA     BYTE      RTCREG
      000000D5H   SFRSYM    DATA     BYTE      RTCSEC
      000000D8H.0 SFRSYM    DATA     BIT       RWT
      000000B0H.0 SFRSYM    DATA     BIT       RXD
      000000A9H   SFRSYM    DATA     BYTE      SADDR
      000000B9H   SFRSYM    DATA     BYTE      SADEN
      00000099H   SFRSYM    DATA     BYTE      SBUF
      000000C1H   SFRSYM    DATA     BYTE      SBUF1
      00000098H   SFRSYM    DATA     BYTE      SCON
      000000C0H   SFRSYM    DATA     BYTE      SCON1
      00000098H.7 SFRSYM    DATA     BIT       SM0
      000000C0H.7 SFRSYM    DATA     BIT       SM01
      00000098H.6 SFRSYM    DATA     BIT       SM1
      000000C0H.6 SFRSYM    DATA     BIT       SM11
      00000098H.5 SFRSYM    DATA     BIT       SM2
      000000C0H.5 SFRSYM    DATA     BIT       SM21
      00000081H   SFRSYM    DATA     BYTE      SP
      000000ECH   SFRSYM    DATA     BYTE      SPCR
      000000EEH   SFRSYM    DATA     BYTE      SPDR
      000000BEH   SFRSYM    DATA     BYTE      SPH
      000000EDH   SFRSYM    DATA     BYTE      SPSR
      000000EFH   SFRSYM    DATA     BYTE      SSCR
      000000B0H.4 SFRSYM    DATA     BIT       T0
      000000B0H.5 SFRSYM    DATA     BIT       T1
      00000090H.0 SFRSYM    DATA     BIT       T2
      000000C8H.2 SFRSYM    DATA     BIT       T2CM
      000000C8H   SFRSYM    DATA     BYTE      T2CON
      00000090H.1 SFRSYM    DATA     BIT       T2EX
      000000C8H.0 SFRSYM    DATA     BIT       T2I0
      000000C8H.1 SFRSYM    DATA     BIT       T2I1
      000000C9H   SFRSYM    DATA     BYTE      T2IF
      000000C9H   SFRSYM    DATA     BYTE      T2MOD
      000000C8H.7 SFRSYM    DATA     BIT       T2PS
      000000C8H.3 SFRSYM    DATA     BIT       T2R0
L251 LINKER/LOCATER V4.66.93.0                                                        12/18/2023  14:26:43  PAGE 27


      000000C8H.4 SFRSYM    DATA     BIT       T2R1
      000000EBH   SFRSYM    DATA     BYTE      TA
      00000098H.3 SFRSYM    DATA     BIT       TB8
      000000C0H.3 SFRSYM    DATA     BIT       TB81
      0000009FH   SFRSYM    DATA     BYTE      TB_SFR_REG
      000000C8H.4 SFRSYM    DATA     BIT       TCLK
      00000088H   SFRSYM    DATA     BYTE      TCON
      00000088H.5 SFRSYM    DATA     BIT       TF0
      00000088H.7 SFRSYM    DATA     BIT       TF1
      000000C8H.7 SFRSYM    DATA     BIT       TF2
      0000008CH   SFRSYM    DATA     BYTE      TH0
      0000008DH   SFRSYM    DATA     BYTE      TH1
      000000CDH   SFRSYM    DATA     BYTE      TH2
      00000098H.1 SFRSYM    DATA     BIT       TI
      000000C0H.1 SFRSYM    DATA     BIT       TI1
      0000008AH   SFRSYM    DATA     BYTE      TL0
      0000008BH   SFRSYM    DATA     BYTE      TL1
      000000CCH   SFRSYM    DATA     BYTE      TL2
      00000089H   SFRSYM    DATA     BYTE      TMOD
      00000088H.4 SFRSYM    DATA     BIT       TR0
      00000088H.6 SFRSYM    DATA     BIT       TR1
      000000C8H.2 SFRSYM    DATA     BIT       TR2
      000000B0H.1 SFRSYM    DATA     BIT       TXD
      00000096H   SFRSYM    DATA     BYTE      USBADDR
      00000097H   SFRSYM    DATA     BYTE      USBDATA
      000000D8H   SFRSYM    DATA     BYTE      WDCON
      000000D8H.3 SFRSYM    DATA     BIT       WDIF
      000000A6H   SFRSYM    DATA     BYTE      WDTRST
      000000B0H.6 SFRSYM    DATA     BIT       WR
      000000D8H.2 SFRSYM    DATA     BIT       WTRF
      00000092H   SFRSYM    DATA     BYTE      WTST
      000000D1H.1 SFRSYM    DATA     BIT       Z_B
      00FF1FF8H   SYMBOL    NUMBER   ---       CFGADDR
      00FF1FFFH   SYMBOL    NUMBER   ---       CODEHIGH
      00002000H   SYMBOL    NUMBER   ---       EDATALEN
      00FF0117H   SYMBOL    CODE     ---       EDATALOOP
      0000A000H   SYMBOL    NUMBER   ---       EDATASTART
      00000001H   SYMBOL    NUMBER   ---       INTR
      00000010H   SYMBOL    NUMBER   ---       RTCACAP_B
      00000040H   SYMBOL    NUMBER   ---       RTCBSY_B
      00000040H   SYMBOL    NUMBER   ---       RTCCAP_B
      00000080H   SYMBOL    NUMBER   ---       RTCEN_B
      00000008H   SYMBOL    NUMBER   ---       RTCRLD_B
      00000020H   SYMBOL    NUMBER   ---       RTCRST_B
      00000008H   SYMBOL    NUMBER   ---       RTCSET_B
      00000001H   SYMBOL    NUMBER   ---       SRCM
      00000300H   SYMBOL    NUMBER   ---       STACKSIZE
      00FF010CH   SYMBOL    CODE     ---       STARTUP1
      00000000H   SYMBOL    NUMBER   ---       XDATALEN

      00FF0000H   BLOCK     CODE     NEAR LAB  LVL=0
      00FF0000H   LINE      CODE     ---       #86
      ---         BLOCKEND  ---      ---       LVL=0

      00FF010CH   BLOCK     CODE     NEAR LAB  LVL=0
      00FF010CH   LINE      CODE     ---       #92
      00FF010FH   LINE      CODE     ---       #95
      00FF0112H   LINE      CODE     ---       #96
      00FF0116H   LINE      CODE     ---       #97
      00FF0117H   LINE      CODE     ---       #99
      00FF0118H   LINE      CODE     ---       #100
      00FF0119H   LINE      CODE     ---       #101
      00FF011BH   LINE      CODE     ---       #102
      00FF011DH   LINE      CODE     ---       #115
      00FF011FH   LINE      CODE     ---       #116
L251 LINKER/LOCATER V4.66.93.0                                                        12/18/2023  14:26:43  PAGE 28


      ---         BLOCKEND  ---      ---       LVL=0

      00FF014CH   BLOCK     CODE     NEAR LAB  LVL=0
      00FF014CH   LINE      CODE     ---       #121
      ---         BLOCKEND  ---      ---       LVL=0

      ---         MODULE    ---      ---       main
      00FF124CH   PUBLIC    CODE     ---       main

      00FF124CH   BLOCK     CODE     ---       LVL=0
      00FF124CH   LINE      ---      ---       #24
      00FF124CH   LINE      ---      ---       #26
      00FF124EH   LINE      ---      ---       #27
      00FF124EH   LINE      ---      ---       #29
      00FF1251H   LINE      ---      ---       #30
      ---         BLOCKEND  ---      ---       LVL=0

      ---         MODULE    ---      ---       rf_task_ctrl
      00FF180DH   PUBLIC    CODE     ---       RF_Task_En
      00FF1334H   PUBLIC    CODE     ---       RF_Task_AllStop
      00FF196CH   PUBLIC    CODE     ---       RF_Task_Set

      00FF180DH   BLOCK     CODE     ---       LVL=0
      00FF180DH   LINE      ---      ---       #36
      R11         REGSYM    ---      BYTE      enTask
      R10         REGSYM    ---      BYTE      mode
      00FF180FH   BLOCK     CODE     NEAR LAB  LVL=1
      00FF180FH   LINE      ---      ---       #44
      00FF1823H   LINE      ---      ---       #50
      00FF182CH   LINE      ---      ---       #51
      00FF1836H   LINE      ---      ---       #56
      00FF183BH   LINE      ---      ---       #61
      00FF1847H   LINE      ---      ---       #62
      REG=4       REGSYM    ---      ---       pRegTaskCtrlByte
      ---         BLOCKEND  CODE     ---       LVL=1
      ---         BLOCKEND  CODE     ---       LVL=0

      00FF1334H   BLOCK     CODE     ---       LVL=0
      00FF1334H   LINE      ---      ---       #73
      00FF1334H   LINE      ---      ---       #75
      00FF1340H   LINE      ---      ---       #76
      00FF1345H   LINE      ---      ---       #83
      00FF1351H   LINE      ---      ---       #84
      00FF135DH   LINE      ---      ---       #86
      00FF1369H   LINE      ---      ---       #87
      00FF1375H   LINE      ---      ---       #89
      ---         BLOCKEND  ---      ---       LVL=0

      00FF196CH   BLOCK     CODE     ---       LVL=0
      00FF196CH   LINE      ---      ---       #151
      REG=1       REGSYM    ---      ---       pTaskCtrl
      R5          REGSYM    ---      BYTE      taskNum
      00FF1970H   BLOCK     CODE     NEAR LAB  LVL=1
      00FF1970H   LINE      ---      ---       #159
      00FF197AH   LINE      ---      ---       #160
      00FF197DH   LINE      ---      ---       #161
      00FF197DH   LINE      ---      ---       #195
      00FF1986H   LINE      ---      ---       #211
      00FF1995H   LINE      ---      ---       #212
      00FF19A6H   LINE      ---      ---       #213
      00FF19AEH   LINE      ---      ---       #214
      00FF19B8H   LINE      ---      ---       #216
      00FF19C4H   LINE      ---      ---       #217
      00FF19D0H   LINE      ---      ---       #218
      00FF19DCH   LINE      ---      ---       #219
L251 LINKER/LOCATER V4.66.93.0                                                        12/18/2023  14:26:43  PAGE 29


      00FF19E8H   LINE      ---      ---       #221
      00FF19F4H   LINE      ---      ---       #222
      00FF1A00H   LINE      ---      ---       #223
      00FF1A0CH   LINE      ---      ---       #224
      00FF1A18H   LINE      ---      ---       #227
      REG=0       REGSYM    ---      ---       pRegTaskCtrlByte
      ---         BLOCKEND  CODE     ---       LVL=1
      00FF1A19H   LINE      ---      ---       #229
      00FF1A19H   LINE      CODE     ---       #229

      ---         MODULE    ---      ---       intr_rf
      00FF1FFDH   PUBLIC    CODE     ---       INTR_Clear
      00FF2026H   PUBLIC    CODE     ---       INTR_ClearRtcGrp
      00FF17EDH   PUBLIC    CODE     ---       INTR_Enable
      00FF2037H   PUBLIC    CODE     ---       INTR_Rf_Hdlr
      00FF12B8H   PUBLIC    CODE     ---       INTR_Rf_Register
      0000AE63H   PUBLIC    EDATA    ---       gIntrRegMask
      0000AE6BH   PUBLIC    EDATA    ---       gIntrRfHdlrTable
      000000A8H.0 SFRSYM    DATA     BIT       EX0
      000000A8H.7 SFRSYM    DATA     BIT       EA
      00FF20CDH   SYMBOL    CODE     ---       INTR_Rf_NullHdlr

      00FF20CDH   BLOCK     CODE     ---       LVL=0
      00FF20CDH   LINE      ---      ---       #40
      00FF20CDH   LINE      ---      ---       #41
      00FF20CDH   LINE      ---      ---       #42
      00FF20CDH   LINE      ---      ---       #43
      ---         BLOCKEND  ---      ---       LVL=0

      00FF1FFDH   BLOCK     CODE     ---       LVL=0
      00FF1FFDH   LINE      ---      ---       #49
      00FF1FFDH   LINE      ---      ---       #51
      00FF1FFFH   LINE      ---      ---       #52
      00FF2008H   LINE      ---      ---       #54
      00FF2017H   LINE      ---      ---       #55
      00FF2025H   LINE      ---      ---       #56
      ---         BLOCKEND  ---      ---       LVL=0

      00FF2026H   BLOCK     CODE     ---       LVL=0
      00FF2026H   LINE      ---      ---       #59
      00FF2026H   LINE      ---      ---       #62
      00FF2036H   LINE      ---      ---       #63
      ---         BLOCKEND  ---      ---       LVL=0

      00FF17EDH   BLOCK     CODE     ---       LVL=0
      00FF17EDH   LINE      ---      ---       #66
      00FF17EDH   LINE      ---      ---       #68
      00FF17EFH   LINE      ---      ---       #70
      00FF17F1H   LINE      ---      ---       #71
      ---         BLOCKEND  ---      ---       LVL=0

      00FF2037H   BLOCK     CODE     ---       LVL=0
      00FF2037H   LINE      ---      ---       #82
      00FF2039H   LINE      ---      ---       #83
      R6          REGSYM    ---      BYTE      intId
      R10         REGSYM    ---      BYTE      intSts
      ---         BLOCKEND  ---      ---       LVL=0

      00FF12B8H   BLOCK     CODE     ---       LVL=0
      00FF12B8H   LINE      ---      ---       #98
      00FF12BCH   LINE      ---      ---       #101
      00FF12C5H   LINE      ---      ---       #106
      00FF12C8H   LINE      ---      ---       #107
      00FF12C8H   LINE      ---      ---       #109
      00FF12D0H   LINE      ---      ---       #110
L251 LINKER/LOCATER V4.66.93.0                                                        12/18/2023  14:26:43  PAGE 30


      00FF1303H   LINE      ---      ---       #112
      00FF1304H   LINE      ---      ---       #113
      R1          REGSYM    ---      BYTE      intId
      WR30        REGSYM    ---      WORD      enMask
      REG=2       REGSYM    ---      ---       intHdlr
      ---         BLOCKEND  ---      ---       LVL=0

      ---         MODULE    ---      ---       sys_init
      00FF1253H   PUBLIC    CODE     ---       SYS_Init
      00FF20CEH   PUBLIC    CODE     ---       SYS_InfoRegInit

      00FF20CEH   BLOCK     CODE     ---       LVL=0
      00FF20CEH   LINE      ---      ---       #101
      00FF20CEH   LINE      ---      ---       #104
      00FF20DAH   LINE      ---      ---       #107
      00FF20E5H   LINE      ---      ---       #108
      00FF20EEH   LINE      ---      ---       #111
      00FF20F7H   LINE      ---      ---       #114
      00FF2100H   LINE      ---      ---       #118
      00FF2109H   LINE      ---      ---       #122
      ---         BLOCKEND  ---      ---       LVL=0

      00FF1253H   BLOCK     CODE     ---       LVL=0
      00FF1253H   LINE      ---      ---       #132
      00FF1253H   LINE      ---      ---       #135
      00FF1256H   LINE      ---      ---       #154
      00FF1259H   LINE      ---      ---       #158
      00FF125CH   LINE      ---      ---       #165
      00FF1272H   LINE      ---      ---       #169
      00FF1277H   LINE      ---      ---       #173
      00FF1279H   LINE      ---      ---       #174
      00FF127CH   LINE      ---      ---       #193
      00FF127EH   LINE      ---      ---       #197
      00FF1280H   LINE      ---      ---       #200
      00FF1282H   LINE      ---      ---       #204
      00FF128BH   LINE      ---      ---       #211
      ---         BLOCKEND  ---      ---       LVL=0

      ---         MODULE    ---      ---       sys_task
      00FF210EH   PUBLIC    CODE     ---       SYS_Task_Block
      00FF1740H   PUBLIC    CODE     ---       SYS_Task_UnBlock
      00FF27E9H   PUBLIC    CODE     ---       SYS_Task_Register
      00FF2818H   PUBLIC    CODE     ---       SYS_Task_Run
      0000AF3BH   PUBLIC    EDATA    BYTE      gTaskMask
      0000AF3CH   PUBLIC    EDATA    ---       gTaskTable
      00FF2846H   SYMBOL    CODE     ---       SYS_Null_Task

      00FF2846H   BLOCK     CODE     ---       LVL=0
      00FF2846H   LINE      ---      ---       #36
      00FF2846H   LINE      ---      ---       #37
      00FF2846H   LINE      ---      ---       #38
      ---         BLOCKEND  ---      ---       LVL=0

      00FF210AH   BLOCK     CODE     ---       LVL=0
      00FF210EH   LINE      ---      ---       #52
      00FF2112H   LINE      ---      ---       #55
      00FF211BH   LINE      ---      ---       #56
      00FF211EH   LINE      ---      ---       #57
      00FF211EH   LINE      ---      ---       #59
      00FF2136H   LINE      ---      ---       #61
      00FF210AH   SYMBOL    CODE     NEAR LAB  ?L?COM0020
      R11         REGSYM    ---      BYTE      hdlTask
      R15         REGSYM    ---      BYTE      blkTask
      ---         BLOCKEND  ---      ---       LVL=0

L251 LINKER/LOCATER V4.66.93.0                                                        12/18/2023  14:26:43  PAGE 31


      00FF173CH   BLOCK     CODE     ---       LVL=0
      00FF1740H   LINE      ---      ---       #71
      00FF1744H   LINE      ---      ---       #74
      00FF174DH   LINE      ---      ---       #75
      00FF174FH   LINE      ---      ---       #76
      00FF174FH   LINE      ---      ---       #78
      00FF1764H   LINE      ---      ---       #80
      00FF173CH   SYMBOL    CODE     NEAR LAB  ?L?COM0012
      R11         REGSYM    ---      BYTE      hdlTask
      R15         REGSYM    ---      BYTE      blkTask
      ---         BLOCKEND  ---      ---       LVL=0

      00FF27E9H   BLOCK     CODE     ---       LVL=0
      00FF27E9H   LINE      ---      ---       #91
      00FF27EDH   LINE      ---      ---       #92
      00FF27F6H   LINE      ---      ---       #93
      00FF27F9H   LINE      ---      ---       #94
      00FF27F9H   LINE      ---      ---       #95
      00FF2801H   LINE      ---      ---       #96
      00FF2816H   LINE      ---      ---       #97
      00FF2817H   LINE      ---      ---       #98
      R5          REGSYM    ---      BYTE      taskId
      REG=4       REGSYM    ---      ---       taskFunc
      ---         BLOCKEND  ---      ---       LVL=0

      00FF2818H   BLOCK     CODE     ---       LVL=0
      00FF2818H   LINE      ---      ---       #107
      00FF2818H   BLOCK     CODE     NEAR LAB  LVL=1
      00FF2818H   LINE      ---      ---       #112
      00FF2818H   LINE      ---      ---       #113
      00FF281AH   LINE      ---      ---       #114
      00FF281AH   LINE      ---      ---       #115
      00FF2833H   LINE      ---      ---       #116
      00FF283DH   LINE      ---      ---       #117
      00FF283DH   LINE      ---      ---       #118
      00FF283FH   LINE      ---      ---       #119
      00FF2844H   LINE      ---      ---       #120
      R15         REGSYM    ---      BYTE      taskId
      ---         BLOCKEND  CODE     ---       LVL=1
      ---         BLOCKEND  CODE     ---       LVL=0

      ---         MODULE    ---      ---       isr_hdlr
      00FF2046H   PUBLIC    CODE     ---       ISR_0_Hdlr
      00FF17FCH   PUBLIC    CODE     ---       ISR_CLEAR_MAC_STATUS
      00FF2847H   PUBLIC    CODE     ---       ISR_GET_MAC_STATUS
      00FF3073H   PUBLIC    CODE     ---       ISR_1_Hdlr
      000000A8H.7 SFRSYM    DATA     BIT       EA

      00FF2046H   BLOCK     CODE     ---       LVL=0
      00FF2046H   LINE      ---      ---       #18
      00FF205BH   BLOCK     CODE     NEAR LAB  LVL=1
      00FF205BH   LINE      ---      ---       #27
      00FF205DH   LINE      ---      ---       #30
      00FF206AH   LINE      ---      ---       #31
      00FF2071H   LINE      ---      ---       #34
      00FF2077H   LINE      ---      ---       #35
      00FF207DH   LINE      ---      ---       #36
      00FF207DH   LINE      ---      ---       #39
      00FF2082H   LINE      ---      ---       #41
      00FF2088H   LINE      ---      ---       #42
      00FF2088H   LINE      ---      ---       #46
      00FF208FH   LINE      ---      ---       #47
      00FF2092H   LINE      ---      ---       #48
      00FF2092H   LINE      ---      ---       #51
      00FF2099H   LINE      ---      ---       #52
L251 LINKER/LOCATER V4.66.93.0                                                        12/18/2023  14:26:43  PAGE 32


      00FF209DH   LINE      ---      ---       #53
      00FF209DH   LINE      ---      ---       #61
      00FF20AAH   LINE      ---      ---       #62
      00FF20B8H   LINE      ---      ---       #65
      R14         REGSYM    ---      BYTE      bmuStatus
      R15         REGSYM    ---      BYTE      macStatus
      ---         BLOCKEND  CODE     ---       LVL=1
      00FF20BAH   LINE      ---      ---       #67
      00FF20BAH   LINE      CODE     ---       #67

      00FF17FCH   BLOCK     CODE     ---       LVL=0
      00FF17FCH   LINE      ---      ---       #69
      00FF17FEH   LINE      ---      ---       #71
      00FF180CH   LINE      ---      ---       #72
      R0          REGSYM    ---      BYTE      status
      ---         BLOCKEND  ---      ---       LVL=0

      00FF2847H   BLOCK     CODE     ---       LVL=0
      00FF2847H   LINE      ---      ---       #74
      00FF2847H   LINE      ---      ---       #76
      00FF2855H   LINE      ---      ---       #77
      ---         BLOCKEND  ---      ---       LVL=0

      00FF3073H   BLOCK     CODE     ---       LVL=0
      00FF3073H   LINE      ---      ---       #81
      00FF3073H   LINE      ---      ---       #96
      ---         BLOCKEND  ---      ---       LVL=0

      ---         MODULE    ---      ---       sys_ctrl
      00FF15A4H   PUBLIC    CODE     ---       SYS_TRAP
      00FF1FB9H   PUBLIC    CODE     ---       SYS_isClkAPassOverClkB
      00FF3074H   PUBLIC    CODE     ---       SYS_Rand
      00FF128CH   PUBLIC    CODE     ---       SYS_IdleTaskInit
      00FF3143H   PUBLIC    CODE     ---       SYS_TimerInit
      00FF3154H   PUBLIC    CODE     ---       SYS_Sleep
      00FF38D4H   PUBLIC    CODE     ---       SYS_EnterSleepGuard
      00FF31C9H   PUBLIC    CODE     ---       SYS_EnterSleepCheck
      00FF3250H   PUBLIC    CODE     ---       SYS_SleepMinTimeGet
      00FF2FD3H   PUBLIC    CODE     ---       SYS_Idle_Task
      00FF12ACH   PUBLIC    CODE     ---       SYS_IdleTaskIntInit
      0000AF1DH   PUBLIC    EDATA    DWORD     gLastWakeTick
      0000AF21H   PUBLIC    EDATA    ---       gSysEntry_Sleep
      000000A8H.1 SFRSYM    DATA     BIT       ET0
      000000A8H.7 SFRSYM    DATA     BIT       EA
      00000088H.4 SFRSYM    DATA     BIT       TR0
      0000008EH   SFRSYM    DATA     BYTE      CKCON
      0000008CH   SFRSYM    DATA     BYTE      TH0
      0000008AH   SFRSYM    DATA     BYTE      TL0
      00000089H   SFRSYM    DATA     BYTE      TMOD
      00000087H   SFRSYM    DATA     BYTE      PCON
      000000BEH   SFRSYM    DATA     BYTE      SPH
      00000081H   SFRSYM    DATA     BYTE      SP
      00000080H   SFRSYM    DATA     BYTE      P0

      00FF38D4H   BLOCK     CODE     ---       LVL=0
      00FF38D4H   LINE      ---      ---       #66
      00FF38D4H   LINE      ---      ---       #67
      ---         BLOCKEND  ---      ---       LVL=0

      00FF31C9H   BLOCK     CODE     ---       LVL=0
      00FF31C9H   LINE      ---      ---       #70
      00FF31CBH   BLOCK     CODE     NEAR LAB  LVL=1
      00FF31CBH   LINE      ---      ---       #72
      00FF31CDH   LINE      ---      ---       #75
      00FF31DCH   LINE      ---      ---       #76
L251 LINKER/LOCATER V4.66.93.0                                                        12/18/2023  14:26:43  PAGE 33


      00FF31DFH   LINE      ---      ---       #77
      00FF31DFH   LINE      ---      ---       #85
      00FF31E3H   LINE      ---      ---       #86
      00FF31E6H   LINE      ---      ---       #87
      00FF31E6H   LINE      ---      ---       #90
      00FF31EBH   LINE      ---      ---       #91
      00FF31EEH   LINE      ---      ---       #92
      00FF31EEH   LINE      ---      ---       #94
      R15         REGSYM    ---      BYTE      check
      ---         BLOCKEND  CODE     ---       LVL=1
      00FF31F7H   LINE      ---      ---       #95
      00FF31F7H   LINE      CODE     ---       #95

      00FF3250H   BLOCK     CODE     ---       LVL=0
      00FF3250H   LINE      ---      ---       #105
      00FF3250H   LINE      ---      ---       #117
      00FF3254H   LINE      ---      ---       #119
      ---         BLOCKEND  ---      ---       LVL=0

      00FF3154H   BLOCK     CODE     ---       LVL=0
      00FF3154H   LINE      ---      ---       #129
      00FF3154H   LINE      ---      ---       #131
      00FF3161H   LINE      ---      ---       #136
      00FF3163H   LINE      ---      ---       #137
      00FF3167H   LINE      ---      ---       #139
      00FF316AH   LINE      ---      ---       #141
      00FF3175H   LINE      ---      ---       #142
      00FF3175H   LINE      ---      ---       #143
      00FF3177H   LINE      ---      ---       #144
      00FF317AH   LINE      ---      ---       #146
      00FF3181H   LINE      ---      ---       #148
      00FF3184H   LINE      ---      ---       #149
      00FF3193H   LINE      ---      ---       #150
      00FF3195H   LINE      ---      ---       #154
      00FF31BEH   LINE      ---      ---       #155
      00FF31BEH   LINE      ---      ---       #156
      00FF31BEH   LINE      ---      ---       #158
      00FF31C5H   LINE      ---      ---       #159
      00FF31C6H   LINE      ---      ---       #161
      00FF31C8H   LINE      ---      ---       #162
      ---         BLOCKEND  ---      ---       LVL=0

      00FF2FD3H   BLOCK     CODE     ---       LVL=0
      00FF2FD3H   LINE      ---      ---       #173
      00FF2FD3H   LINE      ---      ---       #176
      00FF2FD5H   LINE      ---      ---       #188
      00FF2FD7H   LINE      ---      ---       #192
      00FF2FDDH   LINE      ---      ---       #195
      ---         BLOCKEND  ---      ---       LVL=0

      00FF12ACH   BLOCK     CODE     ---       LVL=0
      00FF12ACH   LINE      ---      ---       #213
      00FF12ACH   LINE      ---      ---       #217
      ---         BLOCKEND  ---      ---       LVL=0

      00FF128CH   BLOCK     CODE     ---       LVL=0
      00FF128CH   LINE      ---      ---       #229
      00FF128CH   LINE      ---      ---       #231
      00FF1295H   LINE      ---      ---       #232
      00FF1297H   LINE      ---      ---       #236
      ---         BLOCKEND  ---      ---       LVL=0

      00FF3143H   BLOCK     CODE     ---       LVL=0
      00FF3143H   LINE      ---      ---       #250
      00FF3143H   LINE      ---      ---       #265
L251 LINKER/LOCATER V4.66.93.0                                                        12/18/2023  14:26:43  PAGE 34


      00FF3146H   LINE      ---      ---       #266
      00FF3149H   LINE      ---      ---       #267
      00FF314CH   LINE      ---      ---       #268
      00FF314FH   LINE      ---      ---       #269
      00FF3151H   LINE      ---      ---       #270
      00FF3153H   LINE      ---      ---       #275
      ---         BLOCKEND  ---      ---       LVL=0

      00FF1FB3H   BLOCK     CODE     ---       LVL=0
      00FF1FB9H   LINE      ---      ---       #285
      00FF1FBBH   LINE      ---      ---       #287
      00FF1FC7H   LINE      ---      ---       #288
      00FF1FB3H   SYMBOL    CODE     NEAR LAB  ?L?COM001D
      DR4         REGSYM    ---      DWORD     clkA
      DR8         REGSYM    ---      DWORD     clkB
      ---         BLOCKEND  ---      ---       LVL=0

      00FF159FH   BLOCK     CODE     ---       LVL=0
      00FF15A4H   LINE      ---      ---       #323
      00FF15A4H   LINE      ---      ---       #324
      00FF159FH   SYMBOL    CODE     NEAR LAB  ?L?COM002A
      00FF15A4H   BLOCK     CODE     NEAR LAB  LVL=1
      00FF15A4H   LINE      ---      ---       #328
      00FF15B2H   LINE      ---      ---       #329
      00FF15B6H   LINE      ---      ---       #331
      00FF15C4H   LINE      ---      ---       #333
      00FF15CDH   LINE      ---      ---       #335
      00FF15CDH   LINE      ---      ---       #337
      00FF15D0H   LINE      ---      ---       #338
      00FF15D3H   LINE      ---      ---       #339
      00FF15D8H   LINE      ---      ---       #340
      00FF15DBH   LINE      ---      ---       #341
      00FF15E1H   LINE      ---      ---       #342
      00FF15E4H   LINE      ---      ---       #343
      REG=3       REGSYM    ---      ---       stackPtr
      REG=1       REGSYM    ---      ---       assertReportPtr
      ---         BLOCKEND  CODE     ---       LVL=1
      ---         BLOCKEND  CODE     ---       LVL=0

      00FF3074H   BLOCK     CODE     ---       LVL=0
      00FF3074H   LINE      ---      ---       #348
      00FF307CH   LINE      ---      ---       #349
      REG=1       REGSYM    ---      ---       seed
      REG=7       REGSYM    ---      ---       output
      R13         REGSYM    ---      BYTE      outputLen
      00FF307CH   BLOCK     CODE     NEAR LAB  LVL=1
      00FF307CH   LINE      ---      ---       #354
      00FF3081H   LINE      ---      ---       #355
      00FF3084H   LINE      ---      ---       #361
      00FF3097H   LINE      ---      ---       #362
      00FF30A6H   LINE      ---      ---       #365
      00FF30AEH   LINE      ---      ---       #367
      00FF30B2H   LINE      ---      ---       #378
      00FF30CDH   LINE      ---      ---       #381
      00FF30D7H   LINE      ---      ---       #382
      00FF30EBH   LINE      ---      ---       #383
      00FF30EDH   LINE      ---      ---       #385
      00FF3102H   LINE      ---      ---       #386
      00FF3102H   LINE      ---      ---       #387
      0000AF23H   SYMBOL    EDATA    DWORD     seed2
      R12         REGSYM    ---      BYTE      i
      0000AF27H   SYMBOL    EDATA    ---       pSeed
      ---         BLOCKEND  CODE     ---       LVL=1
      00FF3108H   LINE      ---      ---       #388
      00FF3108H   LINE      CODE     ---       #388
L251 LINKER/LOCATER V4.66.93.0                                                        12/18/2023  14:26:43  PAGE 35



      ---         MODULE    ---      ---       SYS_MEM
      00FF014FH   PUBLIC    CODE     ---       ASM_MEMSET
      000000D0H.6 SFRSYM    DATA     BIT       AC
      000000D8H.0 SFRSYM    DATA     BIT       CCF0
      000000D8H.1 SFRSYM    DATA     BIT       CCF1
      000000D8H.2 SFRSYM    DATA     BIT       CCF2
      000000D8H.3 SFRSYM    DATA     BIT       CCF3
      000000D8H.4 SFRSYM    DATA     BIT       CCF4
      00000090H.3 SFRSYM    DATA     BIT       CEX0
      00000090H.4 SFRSYM    DATA     BIT       CEX1
      00000090H.5 SFRSYM    DATA     BIT       CEX2
      00000090H.6 SFRSYM    DATA     BIT       CEX3
      00000090H.7 SFRSYM    DATA     BIT       CEX4
      000000D8H.7 SFRSYM    DATA     BIT       CF
      000000C8H.0 SFRSYM    DATA     BIT       CP_RL2
      000000D8H.6 SFRSYM    DATA     BIT       CR
      000000D0H.7 SFRSYM    DATA     BIT       CY
      000000C8H.1 SFRSYM    DATA     BIT       C_T2
      000000A8H.7 SFRSYM    DATA     BIT       EA
      000000A8H.6 SFRSYM    DATA     BIT       EC
      00000090H.2 SFRSYM    DATA     BIT       ECI
      000000A8H.4 SFRSYM    DATA     BIT       ES
      000000A8H.1 SFRSYM    DATA     BIT       ET0
      000000A8H.3 SFRSYM    DATA     BIT       ET1
      000000A8H.5 SFRSYM    DATA     BIT       ET2
      000000A8H.0 SFRSYM    DATA     BIT       EX0
      000000A8H.2 SFRSYM    DATA     BIT       EX1
      000000C8H.3 SFRSYM    DATA     BIT       EXEN2
      000000C8H.6 SFRSYM    DATA     BIT       EXF2
      000000D0H.5 SFRSYM    DATA     BIT       F0
      00000098H.7 SFRSYM    DATA     BIT       FE
      00000088H.1 SFRSYM    DATA     BIT       IE0_
      00000088H.3 SFRSYM    DATA     BIT       IE1_
      000000B0H.2 SFRSYM    DATA     BIT       INT0
      000000B0H.3 SFRSYM    DATA     BIT       INT1
      00000088H.0 SFRSYM    DATA     BIT       IT0
      00000088H.2 SFRSYM    DATA     BIT       IT1
      000000D0H.2 SFRSYM    DATA     BIT       OV
      000000D0H.0 SFRSYM    DATA     BIT       P
      000000B8H.6 SFRSYM    DATA     BIT       PPC
      000000B8H.4 SFRSYM    DATA     BIT       PS
      000000B8H.1 SFRSYM    DATA     BIT       PT0
      000000B8H.3 SFRSYM    DATA     BIT       PT1
      000000B8H.5 SFRSYM    DATA     BIT       PT2
      000000B8H.0 SFRSYM    DATA     BIT       PX0
      000000B8H.2 SFRSYM    DATA     BIT       PX1
      00000098H.2 SFRSYM    DATA     BIT       RB8
      000000C8H.5 SFRSYM    DATA     BIT       RCLK
      000000B0H.7 SFRSYM    DATA     BIT       RD
      00000098H.4 SFRSYM    DATA     BIT       REN
      00000098H.0 SFRSYM    DATA     BIT       RI
      000000D0H.3 SFRSYM    DATA     BIT       RS0
      000000D0H.4 SFRSYM    DATA     BIT       RS1
      000000B0H.0 SFRSYM    DATA     BIT       RXD
      00000098H.7 SFRSYM    DATA     BIT       SM0
      00000098H.6 SFRSYM    DATA     BIT       SM1
      00000098H.5 SFRSYM    DATA     BIT       SM2
      000000B0H.4 SFRSYM    DATA     BIT       T0
      000000B0H.5 SFRSYM    DATA     BIT       T1
      00000090H.0 SFRSYM    DATA     BIT       T2
      00000090H.1 SFRSYM    DATA     BIT       T2EX
      00000098H.3 SFRSYM    DATA     BIT       TB8
      000000C8H.4 SFRSYM    DATA     BIT       TCLK
      00000088H.5 SFRSYM    DATA     BIT       TF0
L251 LINKER/LOCATER V4.66.93.0                                                        12/18/2023  14:26:43  PAGE 36


      00000088H.7 SFRSYM    DATA     BIT       TF1
      000000C8H.7 SFRSYM    DATA     BIT       TF2
      00000098H.1 SFRSYM    DATA     BIT       TI
      00000088H.4 SFRSYM    DATA     BIT       TR0
      00000088H.6 SFRSYM    DATA     BIT       TR1
      000000C8H.2 SFRSYM    DATA     BIT       TR2
      000000B0H.1 SFRSYM    DATA     BIT       TXD
      000000D0H.1 SFRSYM    DATA     BIT       UD
      000000B0H.6 SFRSYM    DATA     BIT       WR
      000000E0H   SYMBOL    NUMBER   ---       ACC
      00FF0163H   SYMBOL    CODE     ---       ASM_MEMSET?0
      00FF016CH   SYMBOL    CODE     ---       ASM_MEMSET?1
      00FF0172H   SYMBOL    CODE     ---       ASM_MEMSET?2
      00FF018CH   SYMBOL    CODE     ---       ASM_MEMSET?DEAD?0
      00FF018BH   SYMBOL    CODE     ---       ASM_MEMSET?DONE?
      000000F0H   SYMBOL    NUMBER   ---       B
      000000FAH   SYMBOL    NUMBER   ---       CCAP0H
      000000EAH   SYMBOL    NUMBER   ---       CCAP0L
      000000FBH   SYMBOL    NUMBER   ---       CCAP1H
      000000EBH   SYMBOL    NUMBER   ---       CCAP1L
      000000FCH   SYMBOL    NUMBER   ---       CCAP2H
      000000ECH   SYMBOL    NUMBER   ---       CCAP2L
      000000FDH   SYMBOL    NUMBER   ---       CCAP3H
      000000EDH   SYMBOL    NUMBER   ---       CCAP3L
      000000FEH   SYMBOL    NUMBER   ---       CCAP4H
      000000EEH   SYMBOL    NUMBER   ---       CCAP4L
      000000DAH   SYMBOL    NUMBER   ---       CCAPM0
      000000DBH   SYMBOL    NUMBER   ---       CCAPM1
      000000DCH   SYMBOL    NUMBER   ---       CCAPM2
      000000DDH   SYMBOL    NUMBER   ---       CCAPM3
      000000DEH   SYMBOL    NUMBER   ---       CCAPM4
      000000D8H   SYMBOL    NUMBER   ---       CCON
      000000F9H   SYMBOL    NUMBER   ---       CH
      000000E9H   SYMBOL    NUMBER   ---       CL
      000000D9H   SYMBOL    NUMBER   ---       CMOD
      00000083H   SYMBOL    NUMBER   ---       DPH
      00000082H   SYMBOL    NUMBER   ---       DPL
      00000084H   SYMBOL    NUMBER   ---       DPXL
      000000A8H   SYMBOL    NUMBER   ---       IE0
      000000B7H   SYMBOL    NUMBER   ---       IPH0
      000000B8H   SYMBOL    NUMBER   ---       IPL0
      00000080H   SYMBOL    NUMBER   ---       P0
      00000090H   SYMBOL    NUMBER   ---       P1
      000000A0H   SYMBOL    NUMBER   ---       P2
      000000B0H   SYMBOL    NUMBER   ---       P3
      00000087H   SYMBOL    NUMBER   ---       PCON
      000000D0H   SYMBOL    NUMBER   ---       PSW
      000000D1H   SYMBOL    NUMBER   ---       PSW1
      000000CBH   SYMBOL    NUMBER   ---       RCAP2H
      000000CAH   SYMBOL    NUMBER   ---       RCAP2L
      000000A9H   SYMBOL    NUMBER   ---       SADDR
      000000B9H   SYMBOL    NUMBER   ---       SADEN
      00000099H   SYMBOL    NUMBER   ---       SBUF
      00000098H   SYMBOL    NUMBER   ---       SCON
      00000081H   SYMBOL    NUMBER   ---       SP
      000000BEH   SYMBOL    NUMBER   ---       SPH
      000000C8H   SYMBOL    NUMBER   ---       T2CON
      000000C9H   SYMBOL    NUMBER   ---       T2MOD
      00000088H   SYMBOL    NUMBER   ---       TCON
      0000008CH   SYMBOL    NUMBER   ---       TH0
      0000008DH   SYMBOL    NUMBER   ---       TH1
      000000CDH   SYMBOL    NUMBER   ---       TH2
      0000008AH   SYMBOL    NUMBER   ---       TL0
      0000008BH   SYMBOL    NUMBER   ---       TL1
      000000CCH   SYMBOL    NUMBER   ---       TL2
L251 LINKER/LOCATER V4.66.93.0                                                        12/18/2023  14:26:43  PAGE 37


      00000089H   SYMBOL    NUMBER   ---       TMOD
      000000A7H   SYMBOL    NUMBER   ---       WCON
      000000A6H   SYMBOL    NUMBER   ---       WDTRST

      00FF014FH   BLOCK     CODE     NEAR LAB  LVL=0
      00FF014FH   LINE      CODE     ---       #22
      00FF0151H   LINE      CODE     ---       #23
      00FF0153H   LINE      CODE     ---       #24
      00FF0155H   LINE      CODE     ---       #25
      00FF0157H   LINE      CODE     ---       #26
      00FF015BH   LINE      CODE     ---       #27
      00FF015DH   LINE      CODE     ---       #28
      00FF015FH   LINE      CODE     ---       #29
      00FF0161H   LINE      CODE     ---       #30
      00FF0163H   LINE      CODE     ---       #32
      00FF0166H   LINE      CODE     ---       #33
      00FF0168H   LINE      CODE     ---       #34
      00FF016AH   LINE      CODE     ---       #35
      00FF016CH   LINE      CODE     ---       #37
      00FF016EH   LINE      CODE     ---       #38
      00FF0170H   LINE      CODE     ---       #39
      00FF0172H   LINE      CODE     ---       #41
      00FF0175H   LINE      CODE     ---       #42
      00FF0179H   LINE      CODE     ---       #43
      00FF017DH   LINE      CODE     ---       #44
      00FF0181H   LINE      CODE     ---       #45
      00FF0185H   LINE      CODE     ---       #46
      00FF0189H   LINE      CODE     ---       #47
      00FF018BH   LINE      CODE     ---       #49
      00FF018CH   LINE      CODE     ---       #52
      00FF018EH   LINE      CODE     ---       #53
      ---         BLOCKEND  ---      ---       LVL=0

      ---         MODULE    ---      ---       SYS_MEM2
      00FF00ADH   PUBLIC    CODE     ---       ASM_MEMCPY
      000000D0H.6 SFRSYM    DATA     BIT       AC
      000000D8H.0 SFRSYM    DATA     BIT       CCF0
      000000D8H.1 SFRSYM    DATA     BIT       CCF1
      000000D8H.2 SFRSYM    DATA     BIT       CCF2
      000000D8H.3 SFRSYM    DATA     BIT       CCF3
      000000D8H.4 SFRSYM    DATA     BIT       CCF4
      00000090H.3 SFRSYM    DATA     BIT       CEX0
      00000090H.4 SFRSYM    DATA     BIT       CEX1
      00000090H.5 SFRSYM    DATA     BIT       CEX2
      00000090H.6 SFRSYM    DATA     BIT       CEX3
      00000090H.7 SFRSYM    DATA     BIT       CEX4
      000000D8H.7 SFRSYM    DATA     BIT       CF
      000000C8H.0 SFRSYM    DATA     BIT       CP_RL2
      000000D8H.6 SFRSYM    DATA     BIT       CR
      000000D0H.7 SFRSYM    DATA     BIT       CY
      000000C8H.1 SFRSYM    DATA     BIT       C_T2
      000000A8H.7 SFRSYM    DATA     BIT       EA
      000000A8H.6 SFRSYM    DATA     BIT       EC
      00000090H.2 SFRSYM    DATA     BIT       ECI
      000000A8H.4 SFRSYM    DATA     BIT       ES
      000000A8H.1 SFRSYM    DATA     BIT       ET0
      000000A8H.3 SFRSYM    DATA     BIT       ET1
      000000A8H.5 SFRSYM    DATA     BIT       ET2
      000000A8H.0 SFRSYM    DATA     BIT       EX0
      000000A8H.2 SFRSYM    DATA     BIT       EX1
      000000C8H.3 SFRSYM    DATA     BIT       EXEN2
      000000C8H.6 SFRSYM    DATA     BIT       EXF2
      000000D0H.5 SFRSYM    DATA     BIT       F0
      00000098H.7 SFRSYM    DATA     BIT       FE
      00000088H.1 SFRSYM    DATA     BIT       IE0_
L251 LINKER/LOCATER V4.66.93.0                                                        12/18/2023  14:26:43  PAGE 38


      00000088H.3 SFRSYM    DATA     BIT       IE1_
      000000B0H.2 SFRSYM    DATA     BIT       INT0
      000000B0H.3 SFRSYM    DATA     BIT       INT1
      00000088H.0 SFRSYM    DATA     BIT       IT0
      00000088H.2 SFRSYM    DATA     BIT       IT1
      000000D0H.2 SFRSYM    DATA     BIT       OV
      000000D0H.0 SFRSYM    DATA     BIT       P
      000000B8H.6 SFRSYM    DATA     BIT       PPC
      000000B8H.4 SFRSYM    DATA     BIT       PS
      000000B8H.1 SFRSYM    DATA     BIT       PT0
      000000B8H.3 SFRSYM    DATA     BIT       PT1
      000000B8H.5 SFRSYM    DATA     BIT       PT2
      000000B8H.0 SFRSYM    DATA     BIT       PX0
      000000B8H.2 SFRSYM    DATA     BIT       PX1
      00000098H.2 SFRSYM    DATA     BIT       RB8
      000000C8H.5 SFRSYM    DATA     BIT       RCLK
      000000B0H.7 SFRSYM    DATA     BIT       RD
      00000098H.4 SFRSYM    DATA     BIT       REN
      00000098H.0 SFRSYM    DATA     BIT       RI
      000000D0H.3 SFRSYM    DATA     BIT       RS0
      000000D0H.4 SFRSYM    DATA     BIT       RS1
      000000B0H.0 SFRSYM    DATA     BIT       RXD
      00000098H.7 SFRSYM    DATA     BIT       SM0
      00000098H.6 SFRSYM    DATA     BIT       SM1
      00000098H.5 SFRSYM    DATA     BIT       SM2
      000000B0H.4 SFRSYM    DATA     BIT       T0
      000000B0H.5 SFRSYM    DATA     BIT       T1
      00000090H.0 SFRSYM    DATA     BIT       T2
      00000090H.1 SFRSYM    DATA     BIT       T2EX
      00000098H.3 SFRSYM    DATA     BIT       TB8
      000000C8H.4 SFRSYM    DATA     BIT       TCLK
      00000088H.5 SFRSYM    DATA     BIT       TF0
      00000088H.7 SFRSYM    DATA     BIT       TF1
      000000C8H.7 SFRSYM    DATA     BIT       TF2
      00000098H.1 SFRSYM    DATA     BIT       TI
      00000088H.4 SFRSYM    DATA     BIT       TR0
      00000088H.6 SFRSYM    DATA     BIT       TR1
      000000C8H.2 SFRSYM    DATA     BIT       TR2
      000000B0H.1 SFRSYM    DATA     BIT       TXD
      000000D0H.1 SFRSYM    DATA     BIT       UD
      000000B0H.6 SFRSYM    DATA     BIT       WR
      000000E0H   SYMBOL    NUMBER   ---       ACC
      00FF00C5H   SYMBOL    CODE     ---       ASM_MEMCPY?0
      00FF00D3H   SYMBOL    CODE     ---       ASM_MEMCPY?1
      00FF00D7H   SYMBOL    CODE     ---       ASM_MEMCPY?2
      00FF0104H   SYMBOL    CODE     ---       ASM_MEMCPY?DEAD?0
      00FF0108H   SYMBOL    CODE     ---       ASM_MEMCPY?DEAD?1
      00FF0103H   SYMBOL    CODE     ---       ASM_MEMCPY?DONE?
      000000F0H   SYMBOL    NUMBER   ---       B
      000000FAH   SYMBOL    NUMBER   ---       CCAP0H
      000000EAH   SYMBOL    NUMBER   ---       CCAP0L
      000000FBH   SYMBOL    NUMBER   ---       CCAP1H
      000000EBH   SYMBOL    NUMBER   ---       CCAP1L
      000000FCH   SYMBOL    NUMBER   ---       CCAP2H
      000000ECH   SYMBOL    NUMBER   ---       CCAP2L
      000000FDH   SYMBOL    NUMBER   ---       CCAP3H
      000000EDH   SYMBOL    NUMBER   ---       CCAP3L
      000000FEH   SYMBOL    NUMBER   ---       CCAP4H
      000000EEH   SYMBOL    NUMBER   ---       CCAP4L
      000000DAH   SYMBOL    NUMBER   ---       CCAPM0
      000000DBH   SYMBOL    NUMBER   ---       CCAPM1
      000000DCH   SYMBOL    NUMBER   ---       CCAPM2
      000000DDH   SYMBOL    NUMBER   ---       CCAPM3
      000000DEH   SYMBOL    NUMBER   ---       CCAPM4
      000000D8H   SYMBOL    NUMBER   ---       CCON
L251 LINKER/LOCATER V4.66.93.0                                                        12/18/2023  14:26:43  PAGE 39


      000000F9H   SYMBOL    NUMBER   ---       CH
      000000E9H   SYMBOL    NUMBER   ---       CL
      000000D9H   SYMBOL    NUMBER   ---       CMOD
      00000083H   SYMBOL    NUMBER   ---       DPH
      00000082H   SYMBOL    NUMBER   ---       DPL
      00000084H   SYMBOL    NUMBER   ---       DPXL
      000000A8H   SYMBOL    NUMBER   ---       IE0
      000000B7H   SYMBOL    NUMBER   ---       IPH0
      000000B8H   SYMBOL    NUMBER   ---       IPL0
      00000080H   SYMBOL    NUMBER   ---       P0
      00000090H   SYMBOL    NUMBER   ---       P1
      000000A0H   SYMBOL    NUMBER   ---       P2
      000000B0H   SYMBOL    NUMBER   ---       P3
      00000087H   SYMBOL    NUMBER   ---       PCON
      000000D0H   SYMBOL    NUMBER   ---       PSW
      000000D1H   SYMBOL    NUMBER   ---       PSW1
      000000CBH   SYMBOL    NUMBER   ---       RCAP2H
      000000CAH   SYMBOL    NUMBER   ---       RCAP2L
      000000A9H   SYMBOL    NUMBER   ---       SADDR
      000000B9H   SYMBOL    NUMBER   ---       SADEN
      00000099H   SYMBOL    NUMBER   ---       SBUF
      00000098H   SYMBOL    NUMBER   ---       SCON
      00000081H   SYMBOL    NUMBER   ---       SP
      000000BEH   SYMBOL    NUMBER   ---       SPH
      000000C8H   SYMBOL    NUMBER   ---       T2CON
      000000C9H   SYMBOL    NUMBER   ---       T2MOD
      00000088H   SYMBOL    NUMBER   ---       TCON
      0000008CH   SYMBOL    NUMBER   ---       TH0
      0000008DH   SYMBOL    NUMBER   ---       TH1
      000000CDH   SYMBOL    NUMBER   ---       TH2
      0000008AH   SYMBOL    NUMBER   ---       TL0
      0000008BH   SYMBOL    NUMBER   ---       TL1
      000000CCH   SYMBOL    NUMBER   ---       TL2
      00000089H   SYMBOL    NUMBER   ---       TMOD
      000000A7H   SYMBOL    NUMBER   ---       WCON
      000000A6H   SYMBOL    NUMBER   ---       WDTRST

      00FF00ADH   BLOCK     CODE     NEAR LAB  LVL=0
      00FF00ADH   LINE      CODE     ---       #25
      00FF00AFH   LINE      CODE     ---       #26
      00FF00B1H   LINE      CODE     ---       #28
      00FF00B3H   LINE      CODE     ---       #29
      00FF00B5H   LINE      CODE     ---       #31
      00FF00B7H   LINE      CODE     ---       #32
      00FF00B9H   LINE      CODE     ---       #33
      00FF00BDH   LINE      CODE     ---       #34
      00FF00BFH   LINE      CODE     ---       #35
      00FF00C1H   LINE      CODE     ---       #36
      00FF00C3H   LINE      CODE     ---       #45
      00FF00C5H   LINE      CODE     ---       #48
      00FF00C8H   LINE      CODE     ---       #49
      00FF00CBH   LINE      CODE     ---       #50
      00FF00CDH   LINE      CODE     ---       #51
      00FF00CFH   LINE      CODE     ---       #52
      00FF00D1H   LINE      CODE     ---       #53
      00FF00D3H   LINE      CODE     ---       #56
      00FF00D5H   LINE      CODE     ---       #57
      00FF00D7H   LINE      CODE     ---       #60
      00FF00DAH   LINE      CODE     ---       #61
      00FF00DDH   LINE      CODE     ---       #62
      00FF00E1H   LINE      CODE     ---       #63
      00FF00E5H   LINE      CODE     ---       #64
      00FF00E9H   LINE      CODE     ---       #65
      00FF00EDH   LINE      CODE     ---       #66
      00FF00F1H   LINE      CODE     ---       #67
L251 LINKER/LOCATER V4.66.93.0                                                        12/18/2023  14:26:43  PAGE 40


      00FF00F5H   LINE      CODE     ---       #68
      00FF00F9H   LINE      CODE     ---       #69
      00FF00FDH   LINE      CODE     ---       #70
      00FF0101H   LINE      CODE     ---       #71
      00FF0103H   LINE      CODE     ---       #74
      00FF0104H   LINE      CODE     ---       #77
      00FF0106H   LINE      CODE     ---       #78
      00FF0108H   LINE      CODE     ---       #80
      00FF010AH   LINE      CODE     ---       #81
      ---         BLOCKEND  ---      ---       LVL=0

      ---         MODULE    ---      ---       sys_qctrl
      00FF38EAH   PUBLIC    CODE     ---       Q_Init
      00FF3922H   PUBLIC    CODE     ---       Q_MemFreeCount
      00FF35A0H   PUBLIC    CODE     ---       Q_MemAlloc
      00FF393CH   PUBLIC    CODE     ---       Q_MemFree
      00FF177BH   PUBLIC    CODE     ---       Q_MemGet
      00FF3949H   PUBLIC    CODE     ---       Q_QGet
      00FF2FC6H   PUBLIC    CODE     ---       Q_QNumGet
      00FF3FE3H   PUBLIC    CODE     ---       Q_QLenGet
      00FF3988H   PUBLIC    CODE     ---       Q_QFree
      00FF35E4H   PUBLIC    CODE     ---       Q_QPushBack
      00FF3FF9H   PUBLIC    CODE     ---       Q_QPushFront
      00FF40B7H   PUBLIC    CODE     ---       Q_QMoveBack
      00FF4137H   PUBLIC    CODE     ---       Q_QChageType
      00FF4172H   PUBLIC    CODE     ---       Q_QRemove
      0000A8BDH   PUBLIC    EDATA    ---       sQCtrl
      0000A8C9H   PUBLIC    EDATA    ---       sQHeader
      0000A941H   PUBLIC    EDATA    ---       sQPayload
      000000A8H.7 SFRSYM    DATA     BIT       EA

      00FF38EAH   BLOCK     CODE     ---       LVL=0
      00FF38EAH   LINE      ---      ---       #32
      00FF38EAH   LINE      ---      ---       #33
      00FF38EAH   BLOCK     CODE     NEAR LAB  LVL=1
      00FF38EAH   LINE      ---      ---       #38
      00FF38ECH   LINE      ---      ---       #40
      00FF38F5H   LINE      ---      ---       #41
      00FF38FAH   LINE      ---      ---       #42
      00FF38FEH   LINE      ---      ---       #43
      00FF3903H   LINE      ---      ---       #44
      00FF390AH   LINE      ---      ---       #47
      00FF3916H   LINE      ---      ---       #50
      REG=4       REGSYM    ---      ---       pQCtrl
      R7          REGSYM    ---      BYTE      qType
      ---         BLOCKEND  CODE     ---       LVL=1
      ---         BLOCKEND  CODE     ---       LVL=0

      00FF3922H   BLOCK     CODE     ---       LVL=0
      00FF3922H   LINE      ---      ---       #54
      00FF3922H   LINE      ---      ---       #55
      00FF3922H   BLOCK     CODE     NEAR LAB  LVL=1
      00FF3922H   LINE      ---      ---       #57
      00FF3924H   LINE      ---      ---       #60
      00FF3926H   LINE      ---      ---       #62
      00FF3930H   LINE      ---      ---       #64
      00FF3932H   LINE      ---      ---       #65
      00FF3939H   LINE      ---      ---       #68
      R6          REGSYM    ---      BYTE      qIdx
      R7          REGSYM    ---      BYTE      freeCnt
      ---         BLOCKEND  CODE     ---       LVL=1
      00FF393BH   LINE      ---      ---       #69
      00FF393BH   LINE      CODE     ---       #69

      00FF35A0H   BLOCK     CODE     ---       LVL=0
L251 LINKER/LOCATER V4.66.93.0                                                        12/18/2023  14:26:43  PAGE 41


      00FF35A0H   LINE      ---      ---       #72
      00FF35A0H   LINE      ---      ---       #73
      00FF35A0H   BLOCK     CODE     NEAR LAB  LVL=1
      00FF35A0H   LINE      ---      ---       #77
      00FF35A2H   LINE      ---      ---       #79
      00FF35ADH   LINE      ---      ---       #81
      00FF35B3H   LINE      ---      ---       #82
      00FF35B5H   LINE      ---      ---       #83
      00FF35BCH   LINE      ---      ---       #89
      R7          REGSYM    ---      BYTE      qIdx
      ---         BLOCKEND  CODE     ---       LVL=1
      00FF35BEH   LINE      ---      ---       #90
      00FF35BEH   LINE      CODE     ---       #90

      00FF393CH   BLOCK     CODE     ---       LVL=0
      00FF393CH   LINE      ---      ---       #92
      00FF393EH   LINE      ---      ---       #97
      00FF3948H   LINE      ---      ---       #98
      R5          REGSYM    ---      BYTE      qIdx
      ---         BLOCKEND  ---      ---       LVL=0

      00FF1776H   BLOCK     CODE     ---       LVL=0
      00FF177BH   LINE      ---      ---       #100
      00FF177FH   LINE      ---      ---       #104
      00FF1786H   LINE      ---      ---       #106
      00FF178FH   LINE      ---      ---       #107
      00FF1776H   SYMBOL    CODE     NEAR LAB  ?L?COM0009
      R15         REGSYM    ---      BYTE      qIdx
      ---         BLOCKEND  ---      ---       LVL=0

      00FF3949H   BLOCK     CODE     ---       LVL=0
      00FF3949H   LINE      ---      ---       #109
      00FF394BH   LINE      ---      ---       #114
      00FF395EH   LINE      ---      ---       #115
      WR2         REGSYM    ---      INT       qType
      ---         BLOCKEND  ---      ---       LVL=0

      00FF2FC2H   BLOCK     CODE     ---       LVL=0
      00FF2FC6H   LINE      ---      ---       #117
      00FF2FC8H   LINE      ---      ---       #122
      00FF2FD2H   LINE      ---      ---       #123
      00FF2FC2H   SYMBOL    CODE     NEAR LAB  ?L?COM0031
      WR2         REGSYM    ---      INT       qType
      ---         BLOCKEND  ---      ---       LVL=0

      00FF3FE3H   BLOCK     CODE     ---       LVL=0
      00FF3FE3H   LINE      ---      ---       #125
      00FF3FE5H   LINE      ---      ---       #129
      00FF3FF8H   LINE      ---      ---       #130
      WR2         REGSYM    ---      INT       qType
      ---         BLOCKEND  ---      ---       LVL=0

      00FF4172H   BLOCK     CODE     ---       LVL=0
      00FF4172H   LINE      ---      ---       #132
      00FF4176H   LINE      ---      ---       #136
      WR2         REGSYM    ---      INT       qType
      R1          REGSYM    ---      BYTE      bKeepMem
      00FF4176H   BLOCK     CODE     NEAR LAB  LVL=1
      00FF4176H   LINE      ---      ---       #137
      00FF4182H   LINE      ---      ---       #138
      00FF418EH   LINE      ---      ---       #141
      00FF4190H   LINE      ---      ---       #145
      00FF419EH   LINE      ---      ---       #146
      00FF41A3H   LINE      ---      ---       #147
      00FF41B1H   LINE      ---      ---       #150
L251 LINKER/LOCATER V4.66.93.0                                                        12/18/2023  14:26:43  PAGE 42


      00FF41C0H   LINE      ---      ---       #152
      00FF41D1H   LINE      ---      ---       #153
      00FF41DFH   LINE      ---      ---       #157
      00FF41E3H   LINE      ---      ---       #158
      00FF41F1H   LINE      ---      ---       #161
      00FF41FCH   LINE      ---      ---       #162
      00FF41FFH   LINE      ---      ---       #163
      00FF4205H   LINE      ---      ---       #164
      00FF420BH   LINE      ---      ---       #165
      REG=4       REGSYM    ---      ---       pQCtrl
      REG=2       REGSYM    ---      ---       pQHeader
      R0          REGSYM    ---      BYTE      nextNode
      ---         BLOCKEND  CODE     ---       LVL=1
      00FF420DH   LINE      ---      ---       #166
      00FF420DH   LINE      CODE     ---       #166

      00FF3988H   BLOCK     CODE     ---       LVL=0
      00FF3988H   LINE      ---      ---       #168
      00FF398AH   LINE      ---      ---       #171
      WR2         REGSYM    ---      INT       qType
      00FF398AH   BLOCK     CODE     NEAR LAB  LVL=1
      00FF398AH   LINE      ---      ---       #172
      00FF3996H   LINE      ---      ---       #175
      00FF399EH   LINE      ---      ---       #176
      00FF399EH   LINE      ---      ---       #179
      REG=0       REGSYM    ---      ---       pQCtrl
      ---         BLOCKEND  CODE     ---       LVL=1
      00FF39A4H   LINE      ---      ---       #180
      00FF39A4H   LINE      CODE     ---       #180

      00FF35BFH   BLOCK     CODE     ---       LVL=0
      00FF35E4H   LINE      ---      ---       #182
      00FF35F0H   LINE      ---      ---       #187
      00FF35BFH   SYMBOL    CODE     NEAR LAB  ?L?COM000A
      WR12        REGSYM    ---      INT       qType
      R15         REGSYM    ---      BYTE      qIdx
      0000AEEEH   SYMBOL    EDATA    WORD      dataLen
      00FF35F0H   BLOCK     CODE     NEAR LAB  LVL=1
      00FF35F0H   LINE      ---      ---       #188
      00FF35FEH   LINE      ---      ---       #189
      00FF3612H   LINE      ---      ---       #190
      00FF361FH   LINE      ---      ---       #193
      00FF3627H   LINE      ---      ---       #198
      00FF3633H   LINE      ---      ---       #200
      00FF3635H   LINE      ---      ---       #201
      00FF363EH   LINE      ---      ---       #202
      00FF364EH   LINE      ---      ---       #203
      00FF3658H   LINE      ---      ---       #208
      00FF3665H   LINE      ---      ---       #209
      00FF3676H   LINE      ---      ---       #212
      00FF367EH   LINE      ---      ---       #213
      00FF3688H   LINE      ---      ---       #214
      00FF368BH   LINE      ---      ---       #217
      00FF3697H   LINE      ---      ---       #219
      00FF36A4H   LINE      ---      ---       #220
      0000AEF0H   SYMBOL    EDATA    ---       pQCtrl
      0000AEF2H   SYMBOL    EDATA    ---       pQHeader
      0000AEF4H   SYMBOL    EDATA    ---       pQ_PAYLOAD
      ---         BLOCKEND  CODE     ---       LVL=1
      00FF36A6H   LINE      ---      ---       #221
      00FF36A6H   LINE      CODE     ---       #221

      00FF3FF9H   BLOCK     CODE     ---       LVL=0
      00FF3FF9H   LINE      ---      ---       #224
      00FF4003H   LINE      ---      ---       #229
L251 LINKER/LOCATER V4.66.93.0                                                        12/18/2023  14:26:43  PAGE 43


      WR8         REGSYM    ---      INT       qType
      R15         REGSYM    ---      BYTE      qIdx
      WR12        REGSYM    ---      WORD      dataLen
      00FF4003H   BLOCK     CODE     NEAR LAB  LVL=1
      00FF4003H   LINE      ---      ---       #230
      00FF4013H   LINE      ---      ---       #231
      00FF4027H   LINE      ---      ---       #232
      00FF4034H   LINE      ---      ---       #235
      00FF403CH   LINE      ---      ---       #240
      00FF4048H   LINE      ---      ---       #242
      00FF404AH   LINE      ---      ---       #243
      00FF4053H   LINE      ---      ---       #244
      00FF405DH   LINE      ---      ---       #245
      00FF406CH   LINE      ---      ---       #250
      00FF4078H   LINE      ---      ---       #251
      00FF4085H   LINE      ---      ---       #254
      00FF4092H   LINE      ---      ---       #255
      00FF4099H   LINE      ---      ---       #256
      00FF40A4H   LINE      ---      ---       #257
      00FF40A8H   LINE      ---      ---       #260
      00FF40B0H   LINE      ---      ---       #261
      0000AF29H   SYMBOL    EDATA    ---       pQCtrl
      0000AF2BH   SYMBOL    EDATA    ---       pQHeader
      0000AF2DH   SYMBOL    EDATA    ---       pQ_PAYLOAD
      ---         BLOCKEND  CODE     ---       LVL=1
      00FF40B2H   LINE      ---      ---       #262
      00FF40B2H   LINE      CODE     ---       #262

      00FF40B7H   BLOCK     CODE     ---       LVL=0
      00FF40B7H   LINE      ---      ---       #264
      00FF40B9H   LINE      ---      ---       #267
      WR2         REGSYM    ---      INT       qType
      00FF40B9H   BLOCK     CODE     NEAR LAB  LVL=1
      00FF40B9H   LINE      ---      ---       #268
      00FF40C5H   LINE      ---      ---       #269
      00FF40D1H   LINE      ---      ---       #273
      00FF40D9H   LINE      ---      ---       #274
      00FF40D9H   LINE      ---      ---       #279
      00FF40E4H   LINE      ---      ---       #280
      00FF40E9H   LINE      ---      ---       #281
      00FF40F7H   LINE      ---      ---       #286
      00FF4109H   LINE      ---      ---       #287
      00FF411AH   LINE      ---      ---       #292
      00FF412CH   LINE      ---      ---       #295
      00FF4133H   LINE      ---      ---       #296
      REG=0       REGSYM    ---      ---       pQCtrl
      REG=1       REGSYM    ---      ---       pQHeader
      R7          REGSYM    ---      BYTE      nextNode
      ---         BLOCKEND  CODE     ---       LVL=1
      00FF4136H   LINE      ---      ---       #297
      00FF4136H   LINE      CODE     ---       #297

      00FF4137H   BLOCK     CODE     ---       LVL=0
      00FF4137H   LINE      ---      ---       #299
      00FF413DH   LINE      ---      ---       #303
      WR12        REGSYM    ---      INT       qTypeDest
      WR14        REGSYM    ---      INT       qTypeSrc
      00FF413DH   BLOCK     CODE     NEAR LAB  LVL=1
      00FF413DH   LINE      ---      ---       #304
      00FF4147H   LINE      ---      ---       #309
      00FF414FH   LINE      ---      ---       #310
      00FF414FH   LINE      ---      ---       #313
      00FF4153H   LINE      ---      ---       #314
      00FF415CH   LINE      ---      ---       #317
      00FF4162H   LINE      ---      ---       #320
L251 LINKER/LOCATER V4.66.93.0                                                        12/18/2023  14:26:43  PAGE 44


      REG=3       REGSYM    ---      ---       pQSrcCtrl
      0000AF75H   SYMBOL    EDATA    BYTE      qIdx
      0000AF76H   SYMBOL    EDATA    WORD      qLen
      ---         BLOCKEND  CODE     ---       LVL=1
      00FF416FH   LINE      ---      ---       #321
      00FF416FH   LINE      CODE     ---       #321

      ---         MODULE    ---      ---       sys_rtc
      00FF1DCBH   PUBLIC    CODE     ---       RTC_ClkGet?_
      00FF4216H   PUBLIC    CODE     ---       RTC_uDelay
      00FF1FACH   PUBLIC    CODE     ---       RTC_TickGapCount
      00FF4E67H   PUBLIC    CODE     ---       RTC_TimerConfig
      00FF4FF1H   PUBLIC    CODE     ---       RTC_TimerWakeUpDisable
      00FF5004H   PUBLIC    CODE     ---       RTC_WaitForTriggered
      00FF500EH   PUBLIC    CODE     ---       RTC_TriggerWithinUs
      00FF5034H   PUBLIC    CODE     ---       RTC_IsrHdlrInit
      00FF5050H   PUBLIC    CODE     ---       RTC_Init
      00FF577DH   PUBLIC    CODE     ---       RTC_IsrHdlr
      0000AF2FH   PUBLIC    EDATA    ---       gSysRtcHdlrTable
      00FF577CH   SYMBOL    CODE     ---       Rtc_NullHdlr
      0000AF31H   SYMBOL    EDATA    DWORD     rtcNextAnchor

      00FF577CH   BLOCK     CODE     ---       LVL=0
      00FF577CH   LINE      ---      ---       #39
      00FF577CH   LINE      ---      ---       #40
      00FF577CH   LINE      ---      ---       #41
      ---         BLOCKEND  ---      ---       LVL=0

      00FF577DH   BLOCK     CODE     ---       LVL=0
      00FF577DH   LINE      ---      ---       #44
      00FF577DH   LINE      ---      ---       #47
      00FF577DH   LINE      ---      ---       #49
      00FF5783H   LINE      ---      ---       #52
      00FF5789H   LINE      ---      ---       #55
      ---         BLOCKEND  ---      ---       LVL=0

      00FF420EH   BLOCK     CODE     ---       LVL=0
      00FF4216H   LINE      ---      ---       #62
      00FF420EH   SYMBOL    CODE     NEAR LAB  ?L?COM0011
      DR12        REGSYM    ---      DWORD     delayUs
      00FF421AH   BLOCK     CODE     NEAR LAB  LVL=1
      00FF421AH   LINE      ---      ---       #95
      00FF421FH   LINE      ---      ---       #96
      00FF421FH   LINE      ---      ---       #97
      00FF4228H   LINE      ---      ---       #98
      0000AF45H   SYMBOL    EDATA    DWORD     clkA
      DR12        REGSYM    ---      DWORD     clkB
      ---         BLOCKEND  CODE     ---       LVL=1
      00FF4232H   LINE      ---      ---       #100
      00FF4232H   LINE      CODE     ---       #100

      00FF1FACH   BLOCK     CODE     ---       LVL=0
      00FF1FACH   LINE      ---      ---       #104
      00FF1FAEH   LINE      ---      ---       #113
      00FF1FB2H   LINE      ---      ---       #115
      DR4         REGSYM    ---      DWORD     clkA
      DR8         REGSYM    ---      DWORD     clkB
      ---         BLOCKEND  ---      ---       LVL=0

      00FF4E67H   BLOCK     CODE     ---       LVL=0
      00FF4E67H   LINE      ---      ---       #118
      00FF4E6DH   LINE      ---      ---       #121
      00FF4E87H   LINE      ---      ---       #124
      00FF4E92H   LINE      ---      ---       #127
      00FF4E97H   LINE      ---      ---       #128
L251 LINKER/LOCATER V4.66.93.0                                                        12/18/2023  14:26:43  PAGE 45


      00FF4EA2H   LINE      ---      ---       #129
      00FF4EA2H   LINE      ---      ---       #132
      00FF4EAEH   LINE      ---      ---       #135
      00FF4EC6H   LINE      ---      ---       #137
      00FF4ED2H   LINE      ---      ---       #138
      00FF4ED6H   LINE      ---      ---       #139
      R10         REGSYM    ---      BYTE      mode
      DR28        REGSYM    ---      DWORD     rtcValue
      DR24        REGSYM    ---      DWORD     rtcInterval
      ---         BLOCKEND  ---      ---       LVL=0

      00FF4FF1H   BLOCK     CODE     ---       LVL=0
      00FF4FF1H   LINE      ---      ---       #144
      00FF4FF1H   LINE      ---      ---       #146
      00FF4FFDH   LINE      ---      ---       #149
      00FF5003H   LINE      ---      ---       #151
      ---         BLOCKEND  ---      ---       LVL=0

      00FF5004H   BLOCK     CODE     ---       LVL=0
      00FF5004H   LINE      ---      ---       #155
      00FF5004H   LINE      ---      ---       #157
      00FF5004H   LINE      ---      ---       #158
      00FF5005H   LINE      ---      ---       #159
      00FF500DH   LINE      ---      ---       #160
      ---         BLOCKEND  ---      ---       LVL=0

      00FF500EH   BLOCK     CODE     ---       LVL=0
      00FF500EH   LINE      ---      ---       #163
      00FF5012H   LINE      ---      ---       #165
      00FF5031H   LINE      ---      ---       #166
      DR12        REGSYM    ---      DWORD     Time
      ---         BLOCKEND  ---      ---       LVL=0

      00FF5034H   BLOCK     CODE     ---       LVL=0
      00FF5034H   LINE      ---      ---       #170
      00FF5038H   LINE      ---      ---       #172
      00FF503CH   LINE      ---      ---       #174
      00FF5049H   LINE      ---      ---       #175
      00FF504DH   LINE      ---      ---       #176
      REG=7       REGSYM    ---      ---       intHdlr
      ---         BLOCKEND  ---      ---       LVL=0

      00FF5050H   BLOCK     CODE     ---       LVL=0
      00FF5050H   LINE      ---      ---       #181
      00FF5054H   LINE      ---      ---       #192
      00FF505FH   LINE      ---      ---       #193
      00FF5062H   LINE      ---      ---       #195
      00FF507AH   LINE      ---      ---       #199
      00FF5082H   LINE      ---      ---       #202
      00FF508EH   LINE      ---      ---       #206
      00FF509AH   LINE      ---      ---       #207
      00FF509FH   LINE      ---      ---       #213
      R15         REGSYM    ---      BYTE      rtcUnit
      ---         BLOCKEND  ---      ---       LVL=0

      00FF1DCBH   BLOCK     CODE     ---       LVL=0
      00FF1DCBH   LINE      ---      ---       #232
      00FF1DCBH   LINE      ---      ---       #233
      00FF1DCBH   BLOCK     CODE     NEAR LAB  LVL=1
      00FF1DCBH   LINE      ---      ---       #236
      00FF1DD7H   LINE      ---      ---       #238
      00FF1DD7H   LINE      ---      ---       #240
      00FF1DE2H   LINE      ---      ---       #241
      00FF1DEDH   LINE      ---      ---       #243
      DR4         REGSYM    ---      DWORD     rtc1
L251 LINKER/LOCATER V4.66.93.0                                                        12/18/2023  14:26:43  PAGE 46


      ---         BLOCKEND  CODE     ---       LVL=1
      00FF1DEDH   LINE      ---      ---       #244
      00FF1DEDH   LINE      CODE     ---       #244

      ---         MODULE    ---      ---       common_isr
      00FF29FAH   PUBLIC    CODE     ---       common_isrBmuCheckTx
      00FF1305H   PUBLIC    CODE     ---       common_isr_init
      00FF578AH   PUBLIC    CODE     ---       Common_IsrBmuTxQAdd?_
      00FF584AH   PUBLIC    CODE     ---       Common_IsrBmuTxQGetByHandle?_
      00FF58F6H   PUBLIC    CODE     ---       Common_IsrBmuTxQPciGet
      00FF5958H   PUBLIC    CODE     ---       Common_IsrBmuTxQDeleteAllByCondition?_
      00FF5AC7H   PUBLIC    CODE     ---       Common_IsrBmuTxQDeleteByPtr?_
      00FF5B51H   PUBLIC    CODE     ---       Common_IsrBmuTxQInit
      00FF5BC1H   PUBLIC    CODE     ---       common_isrBmuHandler
      0000AC94H   PUBLIC    EDATA    ---       gBmuDataTxQList
      0000AC9BH   PUBLIC    EDATA    ---       gBmuDataTxCtrlField
      0000ACA6H   PUBLIC    EDATA    ---       gBmuDataListHead
      0000ACA8H   PUBLIC    EDATA    ---       gBmuDataListTail
      0000ACAAH   PUBLIC    EDATA    ---       gBmuDataList
      000000A8H.7 SFRSYM    DATA     BIT       EA
      00000080H   SFRSYM    DATA     BYTE      P0
      0000AD21H   SYMBOL    EDATA    BYTE      gCommon_isrGetBmu

      00FF5BC1H   BLOCK     CODE     ---       LVL=0
      00FF5BC1H   LINE      ---      ---       #122
      00FF5BC1H   LINE      ---      ---       #129
      00FF5BC4H   LINE      ---      ---       #130
      00FF5BCAH   LINE      ---      ---       #131
      R11         REGSYM    ---      BYTE      isrStatus
      ---         BLOCKEND  ---      ---       LVL=0

      00FF29FAH   BLOCK     CODE     ---       LVL=0
      00FF29FAH   LINE      ---      ---       #174
      00FF29FCH   LINE      ---      ---       #175
      00FF29FCH   BLOCK     CODE     NEAR LAB  LVL=1
      00FF29FCH   LINE      ---      ---       #176
      00FF2A01H   LINE      ---      ---       #179
      00FF2A0CH   LINE      ---      ---       #181
      00FF2A0EH   LINE      ---      ---       #182
      00FF2A14H   LINE      ---      ---       #183
      00FF2A1FH   LINE      ---      ---       #184
      00FF2A24H   LINE      ---      ---       #185
      00FF2A24H   LINE      ---      ---       #188
      00FF2A28H   LINE      ---      ---       #189
      00FF2A3CH   LINE      ---      ---       #201
      00FF2A43H   LINE      ---      ---       #203
      0000AEABH   SYMBOL    EDATA    BYTE      qNum
      R15         REGSYM    ---      BYTE      count
      0000AEACH   SYMBOL    EDATA    ---       dataField
      00FF2A43H   BLOCK     CODE     NEAR LAB  LVL=2
      00FF2A43H   LINE      ---      ---       #204
      00FF2A47H   LINE      ---      ---       #205
      00FF2A4FH   LINE      ---      ---       #206
      00FF2A53H   LINE      ---      ---       #210
      00FF2A63H   LINE      ---      ---       #212
      R14         REGSYM    ---      BYTE      tempData
      ---         BLOCKEND  CODE     ---       LVL=2
      00FF2A65H   LINE      ---      ---       #214
      00FF2A65H   LINE      ---      ---       #217
      00FF2A6FH   LINE      ---      ---       #219
      00FF2A6FH   LINE      CODE     ---       #219
      ---         BLOCKEND  CODE     ---       LVL=0

      00FF1305H   BLOCK     CODE     ---       LVL=0
      00FF1305H   LINE      ---      ---       #222
L251 LINKER/LOCATER V4.66.93.0                                                        12/18/2023  14:26:43  PAGE 47


      00FF1305H   LINE      ---      ---       #224
      00FF130AH   LINE      ---      ---       #228
      ---         BLOCKEND  ---      ---       LVL=0

      00FF578AH   BLOCK     CODE     ---       LVL=0
      00FF578AH   LINE      ---      ---       #238
      R14         REGSYM    ---      BYTE      qId
      REG=2       REGSYM    ---      ---       pCtrlField
      R15         REGSYM    ---      BYTE      type
      00FF5794H   BLOCK     CODE     NEAR LAB  LVL=1
      00FF5794H   LINE      ---      ---       #240
      00FF5796H   LINE      ---      ---       #257
      00FF5796H   LINE      ---      ---       #258
      00FF57A7H   LINE      ---      ---       #260
      00FF57ABH   LINE      ---      ---       #269
      00FF57B0H   LINE      ---      ---       #270
      00FF57C2H   LINE      ---      ---       #271
      00FF57C2H   LINE      ---      ---       #277
      00FF57CAH   LINE      ---      ---       #278
      00FF57D5H   LINE      ---      ---       #281
      00FF57DDH   LINE      ---      ---       #282
      00FF57EAH   LINE      ---      ---       #283
      00FF57EEH   LINE      ---      ---       #284
      00FF57F0H   LINE      ---      ---       #287
      00FF5801H   LINE      ---      ---       #288
      00FF580DH   LINE      ---      ---       #291
      00FF581AH   LINE      ---      ---       #292
      00FF5820H   LINE      ---      ---       #295
      00FF5820H   LINE      ---      ---       #298
      00FF5826H   LINE      ---      ---       #299
      00FF582FH   LINE      ---      ---       #302
      00FF5831H   LINE      ---      ---       #303
      00FF5831H   LINE      ---      ---       #304
      00FF5833H   LINE      ---      ---       #305
      00FF583BH   LINE      ---      ---       #310
      R13         REGSYM    ---      BYTE      i
      ---         BLOCKEND  CODE     ---       LVL=1
      00FF5845H   LINE      ---      ---       #311
      00FF5845H   LINE      CODE     ---       #311

      00FF584AH   BLOCK     CODE     ---       LVL=0
      00FF584AH   LINE      ---      ---       #375
      WR8         REGSYM    ---      WORD      connHdl
      REG=15      REGSYM    ---      ---       qId
      REG=1       REGSYM    ---      ---       hciHdr
      REG=0       REGSYM    ---      ---       qCnt
      FFFFFFFBH   STKSYM    ---      ---       retPtr
      00FF5850H   BLOCK     CODE     NEAR LAB  LVL=1
      00FF5850H   LINE      ---      ---       #376
      00FF5854H   LINE      ---      ---       #382
      00FF5857H   LINE      ---      ---       #384
      00FF585AH   LINE      ---      ---       #386
      00FF585FH   LINE      ---      ---       #387
      00FF5863H   LINE      ---      ---       #388
      00FF5863H   LINE      ---      ---       #391
      00FF5865H   LINE      ---      ---       #393
      REG=14      REGSYM    ---      ---       pCurr
      WR6         REGSYM    ---      WORD      oldestSn
      WR4         REGSYM    ---      WORD      cmpSn
      R10         REGSYM    ---      BYTE      ret
      00FF5867H   BLOCK     CODE     NEAR LAB  LVL=2
      00FF5867H   LINE      ---      ---       #395
      00FF5881H   LINE      ---      ---       #397
      00FF5897H   LINE      ---      ---       #398
      00FF589BH   LINE      ---      ---       #399
L251 LINKER/LOCATER V4.66.93.0                                                        12/18/2023  14:26:43  PAGE 48


      00FF58A2H   LINE      ---      ---       #401
      00FF58B3H   LINE      ---      ---       #407
      00FF58B5H   LINE      ---      ---       #408
      00FF58B8H   LINE      ---      ---       #409
      00FF58C1H   LINE      ---      ---       #410
      00FF58C8H   LINE      ---      ---       #411
      00FF58C8H   LINE      ---      ---       #413
      FFFFFFFFH   STKSYM    ---      WORD      cmp
      ---         BLOCKEND  CODE     ---       LVL=2
      00FF58CCH   LINE      ---      ---       #414
      00FF58D0H   LINE      ---      ---       #417
      00FF58D2H   LINE      ---      ---       #419
      00FF58D9H   LINE      ---      ---       #420
      00FF58E6H   LINE      ---      ---       #421
      00FF58E6H   LINE      ---      ---       #423
      00FF58E9H   LINE      ---      ---       #425
      00FF58E9H   LINE      CODE     ---       #425
      ---         BLOCKEND  CODE     ---       LVL=0

      00FF58F6H   BLOCK     CODE     ---       LVL=0
      00FF58F6H   LINE      ---      ---       #437
      REG=4       REGSYM    ---      ---       qId
      REG=1       REGSYM    ---      ---       PciHdr
      REG=0       REGSYM    ---      ---       retPtr
      00FF58FCH   BLOCK     CODE     NEAR LAB  LVL=1
      00FF58FCH   LINE      ---      ---       #438
      00FF5900H   LINE      ---      ---       #439
      00FF5906H   LINE      ---      ---       #445
      00FF5909H   LINE      ---      ---       #447
      00FF590EH   LINE      ---      ---       #450
      00FF5910H   LINE      ---      ---       #452
      00FF5912H   LINE      ---      ---       #453
      00FF5920H   LINE      ---      ---       #464
      00FF5926H   LINE      ---      ---       #465
      00FF592DH   LINE      ---      ---       #466
      00FF5934H   LINE      ---      ---       #467
      00FF5937H   LINE      ---      ---       #468
      00FF5939H   LINE      ---      ---       #470
      00FF5939H   LINE      ---      ---       #471
      00FF593DH   LINE      ---      ---       #472
      00FF5941H   LINE      ---      ---       #481
      00FF5948H   LINE      ---      ---       #484
      00FF594AH   LINE      ---      ---       #486
      REG=3       REGSYM    ---      ---       pCurr
      0000AF8FH   SYMBOL    EDATA    BYTE      ret
      ---         BLOCKEND  CODE     ---       LVL=1
      00FF5957H   LINE      ---      ---       #488
      00FF5957H   LINE      CODE     ---       #488

      00FF5958H   BLOCK     CODE     ---       LVL=0
      00FF5958H   LINE      ---      ---       #498
      R13         REGSYM    ---      BYTE      type
      WR14        REGSYM    ---      WORD      connHdl
      00FF5962H   BLOCK     CODE     NEAR LAB  LVL=1
      00FF5962H   LINE      ---      ---       #506
      00FF5964H   LINE      ---      ---       #508
      00FF596CH   LINE      ---      ---       #509
      00FF5972H   LINE      ---      ---       #510
      00FF5974H   LINE      ---      ---       #513
      FFFFFFFFH   STKSYM    ---      ---       pCurr
      FFFFFFFDH   STKSYM    ---      ---       pPrev
      FFFFFFFBH   STKSYM    ---      ---       pNext
      R12         REGSYM    ---      BYTE      ret
      00FF5976H   BLOCK     CODE     NEAR LAB  LVL=2
      00FF5976H   LINE      ---      ---       #514
L251 LINKER/LOCATER V4.66.93.0                                                        12/18/2023  14:26:43  PAGE 49


      00FF597BH   LINE      ---      ---       #516
      FFFFFFFAH   STKSYM    ---      BYTE      condition
      00FF598CH   BLOCK     CODE     NEAR LAB  LVL=3
      00FF598CH   LINE      ---      ---       #517
      00FF599CH   LINE      ---      ---       #518
      00FF59A3H   LINE      ---      ---       #519
      00FF59B2H   LINE      ---      ---       #520
      00FF59B8H   LINE      ---      ---       #521
      FFFFFFF8H   STKSYM    ---      WORD      cmp
      ---         BLOCKEND  CODE     ---       LVL=3
      00FF59B8H   LINE      ---      ---       #524
      00FF59C0H   LINE      ---      ---       #526
      00FF59C8H   LINE      ---      ---       #530
      00FF59D7H   LINE      ---      ---       #532
      00FF59E2H   LINE      ---      ---       #535
      00FF59EBH   LINE      ---      ---       #537
      00FF59F5H   LINE      ---      ---       #538
      00FF5A06H   LINE      ---      ---       #539
      00FF5A16H   LINE      ---      ---       #540
      00FF5A1EH   LINE      ---      ---       #541
      00FF5A26H   LINE      ---      ---       #544
      00FF5A30H   LINE      ---      ---       #545
      00FF5A38H   LINE      ---      ---       #547
      00FF5A3CH   LINE      ---      ---       #548
      00FF5A42H   LINE      ---      ---       #549
      00FF5A44H   LINE      ---      ---       #552
      00FF5A4AH   LINE      ---      ---       #553
      00FF5A4EH   LINE      ---      ---       #554
      00FF5A4EH   LINE      ---      ---       #555
      00FF5A50H   LINE      ---      ---       #556
      00FF5A56H   LINE      ---      ---       #558
      00FF5A5EH   LINE      ---      ---       #559
      00FF5A62H   LINE      ---      ---       #560
      00FF5A6CH   LINE      ---      ---       #561
      00FF5A6EH   LINE      ---      ---       #565
      00FF5A7AH   LINE      ---      ---       #566
      00FF5A86H   LINE      ---      ---       #567
      00FF5A86H   LINE      ---      ---       #569
      00FF5A90H   LINE      ---      ---       #570
      00FF5A98H   LINE      ---      ---       #571
      00FF5A9AH   LINE      ---      ---       #580
      00FF5A9AH   LINE      ---      ---       #583
      00FF5AA2H   LINE      ---      ---       #584
      00FF5AAAH   LINE      ---      ---       #585
      00FF5AB2H   LINE      ---      ---       #586
      00FF5AB2H   LINE      CODE     ---       #586
      ---         BLOCKEND  CODE     ---       LVL=1
      00FF5ABCH   LINE      ---      ---       #590
      00FF5ABEH   LINE      ---      ---       #592
      00FF5ABEH   LINE      CODE     ---       #592

      00FF5AC7H   BLOCK     CODE     ---       LVL=0
      00FF5AC7H   LINE      ---      ---       #602
      00FF5ACBH   LINE      ---      ---       #605
      00FF5ACDH   LINE      ---      ---       #607
      00FF5AD4H   LINE      ---      ---       #610
      00FF5ADAH   LINE      ---      ---       #611
      00FF5ADFH   LINE      ---      ---       #612
      00FF5AE8H   LINE      ---      ---       #613
      00FF5AF0H   LINE      ---      ---       #614
      00FF5AF4H   LINE      ---      ---       #615
      00FF5AF8H   LINE      ---      ---       #618
      00FF5B00H   LINE      ---      ---       #620
      00FF5B08H   LINE      ---      ---       #622
      00FF5B10H   LINE      ---      ---       #623
L251 LINKER/LOCATER V4.66.93.0                                                        12/18/2023  14:26:43  PAGE 50


      00FF5B18H   LINE      ---      ---       #624
      00FF5B1AH   LINE      ---      ---       #627
      00FF5B22H   LINE      ---      ---       #628
      00FF5B22H   LINE      ---      ---       #629
      00FF5B24H   LINE      ---      ---       #633
      00FF5B2CH   LINE      ---      ---       #634
      00FF5B32H   LINE      ---      ---       #635
      00FF5B36H   LINE      ---      ---       #636
      00FF5B38H   LINE      ---      ---       #639
      00FF5B42H   LINE      ---      ---       #640
      00FF5B42H   LINE      ---      ---       #641
      00FF5B42H   LINE      ---      ---       #644
      00FF5B4CH   LINE      ---      ---       #647
      00FF5B4EH   LINE      ---      ---       #649
      REG=7       REGSYM    ---      ---       delPtr
      ---         BLOCKEND  ---      ---       LVL=0

      00FF5B51H   BLOCK     CODE     ---       LVL=0
      00FF5B51H   LINE      ---      ---       #658
      00FF5B53H   BLOCK     CODE     NEAR LAB  LVL=1
      00FF5B53H   LINE      ---      ---       #661
      00FF5B59H   LINE      ---      ---       #662
      00FF5B5DH   LINE      ---      ---       #664
      00FF5B5FH   LINE      ---      ---       #665
      00FF5B69H   LINE      ---      ---       #666
      00FF5B71H   LINE      ---      ---       #667
      00FF5B82H   LINE      ---      ---       #668
      00FF5B8DH   LINE      ---      ---       #669
      00FF5B97H   LINE      ---      ---       #670
      00FF5BA1H   LINE      ---      ---       #671
      00FF5BA9H   LINE      ---      ---       #673
      00FF5BB1H   LINE      ---      ---       #676
      00FF5BB7H   LINE      ---      ---       #677
      R15         REGSYM    ---      BYTE      i
      ---         BLOCKEND  CODE     ---       LVL=1
      00FF5BBEH   LINE      ---      ---       #678
      00FF5BBEH   LINE      CODE     ---       #678
      00FF2A71H   LINE      ---      ---       #220
      00FF58F3H   LINE      ---      ---       #427
      00FF5AC0H   LINE      ---      ---       #593

      ---         MODULE    ---      ---       common_cmd_hdlr
      00FF3B3DH   PUBLIC    CODE     ---       CMN_CmdSys_GetRfbFwVer
      00FF3DC0H   PUBLIC    CODE     ---       CMN_CmdHal_SetAgc
      00FF3CF7H   PUBLIC    CODE     ---       CMN_CmdHal_SetCalibrationEnable
      00FF3F19H   PUBLIC    CODE     ---       CMN_CmdHal_SetCalibrationSetting
      00FF3F4CH   PUBLIC    CODE     ---       CMN_CmdHal_SetTxPower
      00FF3C16H   PUBLIC    CODE     ---       CMN_CmdHal_GetTemperatureRpt
      00FF3D80H   PUBLIC    CODE     ---       CMN_CmdHal_GetVoltageRpt
      00FF3DA5H   PUBLIC    CODE     ---       CMN_CmdHal_SetRssiOffset
      00FF3D5CH   PUBLIC    CODE     ---       CMN_CmdHal_SetTxPwrComp
      00FF3D65H   PUBLIC    CODE     ---       CMN_CmdHal_SetTxPwrChComp
      00FF3D6EH   PUBLIC    CODE     ---       CMN_CmdHal_SetTxPwrChSegment
      00FF3D77H   PUBLIC    CODE     ---       CMN_CmdHal_SetPmuMpkSetting
      00FF3F80H   PUBLIC    CODE     ---       CMN_CmdHal_SetTxPowerOqpsk
      00FF3D8CH   PUBLIC    CODE     ---       CMN_CmdHal_SetPmuOpMode
      00FF3DE3H   PUBLIC    CODE     ---       CMN_CmdHal_SetTxPowerBy

      00FF3B3DH   BLOCK     CODE     ---       LVL=0
      00FF3B3DH   LINE      ---      ---       #24
      00FF3B3DH   LINE      ---      ---       #29
      00FF3B3DH   LINE      ---      ---       #32
      00FF3B46H   LINE      ---      ---       #35
      ---         BLOCKEND  ---      ---       LVL=0

L251 LINKER/LOCATER V4.66.93.0                                                        12/18/2023  14:26:43  PAGE 51


      00FF3DC0H   BLOCK     CODE     ---       LVL=0
      00FF3DC0H   LINE      ---      ---       #57
      00FF3DC0H   LINE      ---      ---       #60
      REG=3       REGSYM    ---      ---       pCmdAddress
      00FF3DC0H   BLOCK     CODE     NEAR LAB  LVL=1
      00FF3DC0H   LINE      ---      ---       #69
      00FF3DC2H   LINE      ---      ---       #72
      00FF3DDAH   LINE      ---      ---       #75
      REG=1       REGSYM    ---      ---       pCmdIn
      ---         BLOCKEND  CODE     ---       LVL=1
      ---         BLOCKEND  CODE     ---       LVL=0

      00FF3CF7H   BLOCK     CODE     ---       LVL=0
      00FF3CF7H   LINE      ---      ---       #78
      00FF3CF7H   LINE      ---      ---       #83
      00FF3CF7H   LINE      ---      ---       #86
      00FF3CFDH   LINE      ---      ---       #89
      00FF3D06H   LINE      ---      ---       #92
      ---         BLOCKEND  ---      ---       LVL=0

      00FF3F19H   BLOCK     CODE     ---       LVL=0
      00FF3F19H   LINE      ---      ---       #96
      00FF3F19H   LINE      ---      ---       #99
      REG=3       REGSYM    ---      ---       pCmdAddress
      00FF3F19H   BLOCK     CODE     NEAR LAB  LVL=1
      00FF3F19H   LINE      ---      ---       #108
      00FF3F1BH   LINE      ---      ---       #111
      00FF3F43H   LINE      ---      ---       #114
      REG=1       REGSYM    ---      ---       pCmdIn
      ---         BLOCKEND  CODE     ---       LVL=1
      ---         BLOCKEND  CODE     ---       LVL=0

      00FF3F4CH   BLOCK     CODE     ---       LVL=0
      00FF3F4CH   LINE      ---      ---       #117
      00FF3F4CH   LINE      ---      ---       #120
      REG=3       REGSYM    ---      ---       pCmdAddress
      00FF3F4CH   BLOCK     CODE     NEAR LAB  LVL=1
      00FF3F4CH   LINE      ---      ---       #131
      00FF3F4EH   LINE      ---      ---       #133
      00FF3F5AH   LINE      ---      ---       #134
      00FF3F63H   LINE      ---      ---       #137
      00FF3F77H   LINE      ---      ---       #139
      REG=2       REGSYM    ---      ---       pCmdIn
      R2          REGSYM    ---      BYTE      gainTab
      ---         BLOCKEND  CODE     ---       LVL=1
      ---         BLOCKEND  CODE     ---       LVL=0

      00FF3C16H   BLOCK     CODE     ---       LVL=0
      00FF3C16H   LINE      ---      ---       #147
      00FF3C16H   LINE      ---      ---       #151
      00FF3C16H   LINE      ---      ---       #152
      00FF3C1FH   LINE      ---      ---       #153
      ---         BLOCKEND  ---      ---       LVL=0

      00FF3D80H   BLOCK     CODE     ---       LVL=0
      00FF3D80H   LINE      ---      ---       #156
      00FF3D80H   LINE      ---      ---       #160
      00FF3D80H   LINE      ---      ---       #161
      00FF3D89H   LINE      ---      ---       #162
      ---         BLOCKEND  ---      ---       LVL=0

      00FF3DA5H   BLOCK     CODE     ---       LVL=0
      00FF3DA5H   LINE      ---      ---       #165
      00FF3DA5H   LINE      ---      ---       #168
      REG=3       REGSYM    ---      ---       pCmdAddress
L251 LINKER/LOCATER V4.66.93.0                                                        12/18/2023  14:26:43  PAGE 52


      00FF3DA5H   BLOCK     CODE     NEAR LAB  LVL=1
      00FF3DA5H   LINE      ---      ---       #177
      00FF3DA7H   LINE      ---      ---       #180
      00FF3DB7H   LINE      ---      ---       #182
      REG=2       REGSYM    ---      ---       pCmdIn
      ---         BLOCKEND  CODE     ---       LVL=1
      ---         BLOCKEND  CODE     ---       LVL=0

      00FF3D5CH   BLOCK     CODE     ---       LVL=0
      00FF3D5CH   LINE      ---      ---       #185
      00FF3D5CH   LINE      ---      ---       #188
      00FF3D5CH   BLOCK     CODE     NEAR LAB  LVL=1
      00FF3D5CH   LINE      ---      ---       #197
      00FF3D5CH   LINE      ---      ---       #203
      ---         BLOCKEND  CODE     ---       LVL=1
      ---         BLOCKEND  CODE     ---       LVL=0

      00FF3D65H   BLOCK     CODE     ---       LVL=0
      00FF3D65H   LINE      ---      ---       #209
      00FF3D65H   LINE      ---      ---       #227
      00FF3D65H   LINE      ---      ---       #230
      ---         BLOCKEND  ---      ---       LVL=0

      00FF3D6EH   BLOCK     CODE     ---       LVL=0
      00FF3D6EH   LINE      ---      ---       #233
      00FF3D6EH   LINE      ---      ---       #251
      00FF3D6EH   LINE      ---      ---       #254
      ---         BLOCKEND  ---      ---       LVL=0

      00FF3D77H   BLOCK     CODE     ---       LVL=0
      00FF3D77H   LINE      ---      ---       #258
      00FF3D77H   LINE      ---      ---       #274
      00FF3D77H   LINE      ---      ---       #277
      ---         BLOCKEND  ---      ---       LVL=0

      00FF3F80H   BLOCK     CODE     ---       LVL=0
      00FF3F80H   LINE      ---      ---       #281
      00FF3F80H   LINE      ---      ---       #284
      REG=3       REGSYM    ---      ---       pCmdAddress
      00FF3F80H   BLOCK     CODE     NEAR LAB  LVL=1
      00FF3F80H   LINE      ---      ---       #295
      00FF3F82H   LINE      ---      ---       #297
      00FF3F8EH   LINE      ---      ---       #298
      00FF3F97H   LINE      ---      ---       #301
      00FF3FADH   LINE      ---      ---       #303
      REG=2       REGSYM    ---      ---       pCmdIn
      R2          REGSYM    ---      BYTE      gainTab
      ---         BLOCKEND  CODE     ---       LVL=1
      ---         BLOCKEND  CODE     ---       LVL=0

      00FF3D8CH   BLOCK     CODE     ---       LVL=0
      00FF3D8CH   LINE      ---      ---       #311
      00FF3D8CH   LINE      ---      ---       #314
      REG=3       REGSYM    ---      ---       pCmdAddress
      00FF3D8CH   BLOCK     CODE     NEAR LAB  LVL=1
      00FF3D8CH   LINE      ---      ---       #318
      00FF3D8CH   LINE      ---      ---       #321
      00FF3D94H   LINE      ---      ---       #322
      00FF3D9CH   LINE      ---      ---       #324
      REG=3       REGSYM    ---      ---       pCmdIn
      ---         BLOCKEND  CODE     ---       LVL=1
      ---         BLOCKEND  CODE     ---       LVL=0

      00FF3DE3H   BLOCK     CODE     ---       LVL=0
      00FF3DE3H   LINE      ---      ---       #327
L251 LINKER/LOCATER V4.66.93.0                                                        12/18/2023  14:26:43  PAGE 53


      00FF3DE3H   LINE      ---      ---       #330
      REG=3       REGSYM    ---      ---       pCmdAddress
      00FF3DE3H   BLOCK     CODE     NEAR LAB  LVL=1
      00FF3DE3H   LINE      ---      ---       #340
      00FF3DE5H   LINE      ---      ---       #343
      00FF3DFFH   LINE      ---      ---       #345
      REG=1       REGSYM    ---      ---       pCmdIn
      ---         BLOCKEND  CODE     ---       LVL=1
      ---         BLOCKEND  CODE     ---       LVL=0

      ---         MODULE    ---      ---       common_event_gen
      00FF3BF4H   PUBLIC    CODE     ---       CMD_CnfEventSend
      00FF3B48H   PUBLIC    CODE     ---       CMN_GetFwVerEventSend
      00FF3D08H   PUBLIC    CODE     ---       CMN_SetCalibrationEnableEventSend
      00FF3C21H   PUBLIC    CODE     ---       CMN_GetTemperatureRptEventSend
      00FF375BH   PUBLIC    CODE     ---       CMN_GetVoltageRptEventSend

      00FF3BF4H   BLOCK     CODE     ---       LVL=0
      00FF3BF4H   LINE      ---      ---       #18
      00FF3BFCH   LINE      ---      ---       #23
      R13         REGSYM    ---      BYTE      cmdHeader
      R14         REGSYM    ---      BYTE      cmdSubheader
      R15         REGSYM    ---      BYTE      cmdCnfStatus
      00FF3BFCH   BLOCK     CODE     NEAR LAB  LVL=1
      00FF3BFCH   LINE      ---      ---       #25
      00FF3C01H   LINE      ---      ---       #26
      00FF3C04H   LINE      ---      ---       #28
      00FF3C0EH   LINE      ---      ---       #29
      REG=3       REGSYM    ---      ---       pEventPayload
      R12         REGSYM    ---      BYTE      qIdx
      ---         BLOCKEND  CODE     ---       LVL=1
      00FF3C13H   LINE      ---      ---       #41
      00FF3C13H   LINE      CODE     ---       #41

      00FF3B48H   BLOCK     CODE     ---       LVL=0
      00FF3B48H   LINE      ---      ---       #44
      00FF3B4AH   LINE      ---      ---       #45
      00FF3B4AH   BLOCK     CODE     NEAR LAB  LVL=1
      00FF3B4AH   LINE      ---      ---       #47
      00FF3B4DH   LINE      ---      ---       #50
      00FF3B57H   LINE      ---      ---       #51
      00FF3B5CH   LINE      ---      ---       #52
      00FF3B62H   LINE      ---      ---       #53
      00FF3B68H   LINE      ---      ---       #54
      00FF3B74H   LINE      ---      ---       #55
      00FF3B7AH   LINE      ---      ---       #56
      00FF3B80H   LINE      ---      ---       #58
      00FF3B86H   LINE      ---      ---       #62
      00FF3B92H   LINE      ---      ---       #64
      00FF3BABH   LINE      ---      ---       #66
      REG=3       REGSYM    ---      ---       pEventPayload
      R15         REGSYM    ---      BYTE      qIdx
      ---         BLOCKEND  CODE     ---       LVL=1
      00FF3BB8H   LINE      ---      ---       #67
      00FF3BB8H   LINE      CODE     ---       #67

      00FF3D08H   BLOCK     CODE     ---       LVL=0
      00FF3D08H   LINE      ---      ---       #70
      00FF3D0AH   LINE      ---      ---       #71
      00FF3D0AH   BLOCK     CODE     NEAR LAB  LVL=1
      00FF3D0AH   LINE      ---      ---       #73
      00FF3D0DH   LINE      ---      ---       #76
      00FF3D17H   LINE      ---      ---       #77
      00FF3D1CH   LINE      ---      ---       #78
      00FF3D22H   LINE      ---      ---       #79
L251 LINKER/LOCATER V4.66.93.0                                                        12/18/2023  14:26:43  PAGE 54


      00FF3D28H   LINE      ---      ---       #80
      00FF3D4CH   LINE      ---      ---       #86
      REG=3       REGSYM    ---      ---       pEventPayload
      R15         REGSYM    ---      BYTE      qIdx
      ---         BLOCKEND  CODE     ---       LVL=1
      00FF3D59H   LINE      ---      ---       #87
      00FF3D59H   LINE      CODE     ---       #87

      00FF3C21H   BLOCK     CODE     ---       LVL=0
      00FF3C21H   LINE      ---      ---       #90
      00FF3C25H   LINE      ---      ---       #91
      00FF3C25H   BLOCK     CODE     NEAR LAB  LVL=1
      00FF3C25H   LINE      ---      ---       #93
      00FF3C2AH   LINE      ---      ---       #96
      00FF3C34H   LINE      ---      ---       #97
      00FF3C39H   LINE      ---      ---       #98
      00FF3C3FH   LINE      ---      ---       #99
      00FF3C45H   LINE      ---      ---       #100
      00FF3C52H   LINE      ---      ---       #102
      00FF3C6DH   LINE      ---      ---       #104
      REG=6       REGSYM    ---      ---       pEventPayload
      R15         REGSYM    ---      BYTE      qIdx
      ---         BLOCKEND  CODE     ---       LVL=1
      00FF3C7AH   LINE      ---      ---       #106
      00FF3C7AH   LINE      CODE     ---       #106

      00FF375BH   BLOCK     CODE     ---       LVL=0
      00FF375BH   LINE      ---      ---       #108
      00FF375FH   LINE      ---      ---       #109
      00FF375FH   BLOCK     CODE     NEAR LAB  LVL=1
      00FF375FH   LINE      ---      ---       #111
      00FF3764H   LINE      ---      ---       #114
      00FF376EH   LINE      ---      ---       #115
      00FF3773H   LINE      ---      ---       #116
      00FF3779H   LINE      ---      ---       #117
      00FF377DH   LINE      ---      ---       #118
      00FF378AH   LINE      ---      ---       #120
      00FF37A4H   LINE      ---      ---       #122
      REG=6       REGSYM    ---      ---       pEventPayload
      R15         REGSYM    ---      BYTE      qIdx
      ---         BLOCKEND  CODE     ---       LVL=1
      00FF37B0H   LINE      ---      ---       #124
      00FF37B0H   LINE      CODE     ---       #124

      ---         MODULE    ---      ---       common_feature

      ---         MODULE    ---      ---       bmu
      00FF5BCBH   PUBLIC    CODE     ---       BMU_MemAllocate
      00FF5C83H   PUBLIC    CODE     ---       BMU_HwReset
      00FF5D10H   PUBLIC    CODE     ---       BMU_HwInit
      00FF5DC9H   PUBLIC    CODE     ---       BMU_FreqFlowCtrlSet

      00FF5BCBH   BLOCK     CODE     ---       LVL=0
      00FF5BCBH   LINE      ---      ---       #24
      00FF5BD1H   LINE      ---      ---       #27
      WR14        REGSYM    ---      INT       rxqOpMode
      00FF5BD1H   BLOCK     CODE     NEAR LAB  LVL=1
      00FF5BD1H   LINE      ---      ---       #33
      00FF5BD3H   LINE      ---      ---       #51
      00FF5BDBH   LINE      ---      ---       #54
      00FF5BDFH   LINE      ---      ---       #57
      00FF5BF7H   LINE      ---      ---       #72
      00FF5C00H   LINE      ---      ---       #73
      00FF5C08H   LINE      ---      ---       #77
      00FF5C08H   LINE      ---      ---       #83
L251 LINKER/LOCATER V4.66.93.0                                                        12/18/2023  14:26:43  PAGE 55


      00FF5C13H   LINE      ---      ---       #84
      00FF5C1DH   LINE      ---      ---       #90
      00FF5C24H   LINE      ---      ---       #91
      00FF5C2AH   LINE      ---      ---       #94
      00FF5C31H   LINE      ---      ---       #95
      00FF5C37H   LINE      ---      ---       #98
      00FF5C3EH   LINE      ---      ---       #99
      00FF5C42H   LINE      ---      ---       #107
      00FF5C45H   LINE      ---      ---       #109
      00FF5C45H   LINE      ---      ---       #110
      00FF5C4FH   LINE      ---      ---       #113
      00FF5C56H   LINE      ---      ---       #114
      00FF5C5CH   LINE      ---      ---       #117
      00FF5C63H   LINE      ---      ---       #118
      00FF5C69H   LINE      ---      ---       #121
      00FF5C70H   LINE      ---      ---       #123
      00FF5C76H   LINE      ---      ---       #127
      00FF5C7BH   LINE      ---      ---       #128
      00FF5C7EH   LINE      ---      ---       #133
      R13         REGSYM    ---      BYTE      pageIdx
      0000AF49H   SYMBOL    EDATA    ---       pMemSize
      REG=3       REGSYM    ---      ---       pRegX51
      ---         BLOCKEND  CODE     ---       LVL=1
      00FF5C7EH   LINE      ---      ---       #134
      00FF5C7EH   LINE      CODE     ---       #134

      00FF5DC9H   BLOCK     CODE     ---       LVL=0
      00FF5DC9H   LINE      ---      ---       #136
      00FF5DC9H   LINE      ---      ---       #185
      00FF5DC9H   LINE      ---      ---       #196
      00FF5DD8H   LINE      ---      ---       #197
      00FF5DE3H   LINE      ---      ---       #198
      00FF5DEEH   LINE      ---      ---       #201
      ---         BLOCKEND  ---      ---       LVL=0

      00FF5C83H   BLOCK     CODE     ---       LVL=0
      00FF5C83H   LINE      ---      ---       #206
      00FF5C85H   LINE      ---      ---       #209
      R10         REGSYM    ---      BYTE      bForcedReset
      00FF5C85H   BLOCK     CODE     NEAR LAB  LVL=1
      00FF5C85H   LINE      ---      ---       #213
      00FF5C91H   LINE      ---      ---       #216
      00FF5C95H   LINE      ---      ---       #218
      00FF5C97H   LINE      ---      ---       #219
      00FF5C97H   LINE      ---      ---       #220
      00FF5CA8H   LINE      ---      ---       #221
      00FF5CB6H   LINE      ---      ---       #222
      00FF5CC0H   LINE      ---      ---       #223
      00FF5CC8H   LINE      ---      ---       #224
      00FF5CCAH   LINE      ---      ---       #225
      00FF5CD6H   LINE      ---      ---       #227
      00FF5CDCH   LINE      ---      ---       #228
      00FF5CDEH   LINE      ---      ---       #229
      00FF5CDEH   LINE      ---      ---       #232
      00FF5CE7H   LINE      ---      ---       #235
      00FF5CE9H   LINE      ---      ---       #236
      00FF5CE9H   LINE      ---      ---       #237
      00FF5CF7H   LINE      ---      ---       #238
      00FF5CF9H   LINE      ---      ---       #239
      00FF5D05H   LINE      ---      ---       #241
      00FF5D0BH   LINE      ---      ---       #242
      00FF5D0DH   LINE      ---      ---       #244
      DR28        REGSYM    ---      DWORD     temp
      DR24        REGSYM    ---      DWORD     busyCount
      ---         BLOCKEND  CODE     ---       LVL=1
L251 LINKER/LOCATER V4.66.93.0                                                        12/18/2023  14:26:43  PAGE 56


      00FF5D0FH   LINE      ---      ---       #245
      00FF5D0FH   LINE      CODE     ---       #245

      00FF5D10H   BLOCK     CODE     ---       LVL=0
      00FF5D10H   LINE      ---      ---       #247
      00FF5D20H   LINE      ---      ---       #266
      00FF5D2CH   LINE      ---      ---       #269
      00FF5D34H   LINE      ---      ---       #272
      00FF5D3AH   LINE      ---      ---       #273
      00FF5D3DH   LINE      ---      ---       #277
      00FF5D3FH   LINE      ---      ---       #281
      00FF5D43H   LINE      ---      ---       #284
      00FF5D5EH   LINE      ---      ---       #285
      00FF5D76H   LINE      ---      ---       #286
      00FF5D7DH   LINE      ---      ---       #287
      00FF5D84H   LINE      ---      ---       #291
      00FF5D93H   LINE      ---      ---       #292
      00FF5D9EH   LINE      ---      ---       #300
      00FF5DAFH   LINE      ---      ---       #301
      0000AF81H   SYMBOL    EDATA    BYTE      bTxAutoClear
      0000AF82H   SYMBOL    EDATA    BYTE      bRxAutoCommit
      R12         REGSYM    ---      BYTE      txControlInfoSize
      R13         REGSYM    ---      BYTE      rxControlInfoSize
      WR14        REGSYM    ---      INT       rxqOpMode
      ---         BLOCKEND  ---      ---       LVL=0

      ---         MODULE    ---      ---       bmu_cmd
      00FF5DEFH   PUBLIC    CODE     ---       BMU_H2MCmdGet
      00FF5E67H   PUBLIC    CODE     ---       BMU_M2HCmdSet

      00FF5DEFH   BLOCK     CODE     ---       LVL=0
      00FF5DEFH   LINE      ---      ---       #23
      00FF5DF5H   LINE      ---      ---       #27
      REG=4       REGSYM    ---      ---       pDataAddress
      REG=7       REGSYM    ---      ---       pDataLength
      00FF5DF5H   BLOCK     CODE     NEAR LAB  LVL=1
      00FF5DF5H   LINE      ---      ---       #34
      00FF5DFBH   LINE      ---      ---       #37
      00FF5E05H   LINE      ---      ---       #38
      00FF5E08H   LINE      ---      ---       #41
      00FF5E18H   LINE      ---      ---       #42
      00FF5E23H   LINE      ---      ---       #47
      00FF5E25H   LINE      ---      ---       #48
      00FF5E2CH   LINE      ---      ---       #50
      00FF5E31H   LINE      ---      ---       #51
      00FF5E33H   LINE      ---      ---       #52
      00FF5E33H   LINE      ---      ---       #55
      00FF5E4DH   LINE      ---      ---       #56
      00FF5E54H   LINE      ---      ---       #57
      00FF5E57H   LINE      ---      ---       #60
      00FF5E60H   LINE      ---      ---       #62
      WR12        REGSYM    ---      WORD      bufferLength
      WR10        REGSYM    ---      WORD      tempBufferLength
      WR4         REGSYM    ---      WORD      bufferAddress
      REG=2       REGSYM    ---      ---       pBufferAddress
      0000AF90H   SYMBOL    EDATA    BYTE      bRetValue
      ---         BLOCKEND  CODE     ---       LVL=1
      00FF5E64H   LINE      ---      ---       #63
      00FF5E64H   LINE      CODE     ---       #63

      00FF5E67H   BLOCK     CODE     ---       LVL=0
      00FF5E67H   LINE      ---      ---       #65
      00FF5E6DH   LINE      ---      ---       #69
      REG=4       REGSYM    ---      ---       pDataAddress
      WR14        REGSYM    ---      WORD      dataLength
L251 LINKER/LOCATER V4.66.93.0                                                        12/18/2023  14:26:43  PAGE 57


      00FF5E6DH   BLOCK     CODE     NEAR LAB  LVL=1
      00FF5E6DH   LINE      ---      ---       #74
      00FF5E77H   LINE      ---      ---       #75
      00FF5E7AH   LINE      ---      ---       #78
      00FF5E94H   LINE      ---      ---       #79
      00FF5E97H   LINE      ---      ---       #82
      00FF5EA0H   LINE      ---      ---       #85
      00FF5EB8H   LINE      ---      ---       #86
      00FF5EBFH   LINE      ---      ---       #89
      00FF5ECAH   LINE      ---      ---       #90
      00FF5ED3H   LINE      ---      ---       #93
      00FF5EDFH   LINE      ---      ---       #94
      00FF5EE8H   LINE      ---      ---       #96
      WR4         REGSYM    ---      WORD      bufferAddress
      REG=3       REGSYM    ---      ---       pBufferAddress
      ---         BLOCKEND  CODE     ---       LVL=1
      00FF5EE8H   LINE      ---      ---       #97
      00FF5EE8H   LINE      CODE     ---       #97

      ---         MODULE    ---      ---       bmu_common
      00FF5EEBH   PUBLIC    CODE     ---       BMU_TrxQueueGet
      00FF5FF9H   PUBLIC    CODE     ---       BMU_TrxQueueSet
      00FF122EH   PUBLIC    HCONST   ---       bmuMemSizeHwRxq
      00FF1236H   PUBLIC    HCONST   ---       bmuMemSizeHwSwRxq
      0000AF83H   PUBLIC    EDATA    ---       sBmuCtrlPara

      00FF5EEBH   BLOCK     CODE     ---       LVL=0
      00FF5EEBH   LINE      ---      ---       #110
      00FF5EF1H   LINE      ---      ---       #116
      WR10        REGSYM    ---      WORD      length
      WR4         REGSYM    ---      WORD      offset
      WR2         REGSYM    ---      WORD      address
      REG=4       REGSYM    ---      ---       pData
      00FF5EF1H   BLOCK     CODE     NEAR LAB  LVL=1
      00FF5EF1H   LINE      ---      ---       #129
      00FF5EFFH   LINE      ---      ---       #130
      00FF5F09H   LINE      ---      ---       #131
      00FF5F1FH   LINE      ---      ---       #134
      00FF5F23H   LINE      ---      ---       #135
      00FF5F2BH   LINE      ---      ---       #136
      00FF5F52H   LINE      ---      ---       #139
      00FF5F56H   LINE      ---      ---       #140
      00FF5F5AH   LINE      ---      ---       #141
      00FF5F5CH   LINE      ---      ---       #144
      00FF5F80H   LINE      ---      ---       #145
      00FF5F8EH   LINE      ---      ---       #146
      00FF5FA0H   LINE      ---      ---       #148
      00FF5FADH   LINE      ---      ---       #151
      00FF5FBFH   LINE      ---      ---       #152
      00FF5FC3H   LINE      ---      ---       #155
      00FF5FDAH   LINE      ---      ---       #158
      00FF5FE0H   LINE      ---      ---       #159
      0000AEB7H   SYMBOL    EDATA    ---       pInput
      0000AEB9H   SYMBOL    EDATA    ---       pOutput
      WR0         REGSYM    ---      WORD      startPage
      0000AEBBH   SYMBOL    EDATA    WORD      startOffset
      0000AEBDH   SYMBOL    EDATA    WORD      pageNum
      DR12        REGSYM    ---      DWORD     tempLength
      0000AEBFH   SYMBOL    EDATA    WORD      tempAddress
      0000AEC1H   SYMBOL    EDATA    WORD      loopIdx
      ---         BLOCKEND  CODE     ---       LVL=1
      00FF5FF6H   LINE      ---      ---       #160
      00FF5FF6H   LINE      CODE     ---       #160

      00FF5FF9H   BLOCK     CODE     ---       LVL=0
L251 LINKER/LOCATER V4.66.93.0                                                        12/18/2023  14:26:43  PAGE 58


      00FF5FF9H   LINE      ---      ---       #162
      00FF5FFFH   LINE      ---      ---       #168
      WR10        REGSYM    ---      WORD      length
      WR4         REGSYM    ---      WORD      offset
      WR2         REGSYM    ---      WORD      address
      REG=4       REGSYM    ---      ---       pData
      00FF5FFFH   BLOCK     CODE     NEAR LAB  LVL=1
      00FF5FFFH   LINE      ---      ---       #181
      00FF600DH   LINE      ---      ---       #182
      00FF6017H   LINE      ---      ---       #183
      00FF602DH   LINE      ---      ---       #186
      00FF6031H   LINE      ---      ---       #187
      00FF6039H   LINE      ---      ---       #188
      00FF6060H   LINE      ---      ---       #191
      00FF6064H   LINE      ---      ---       #192
      00FF6068H   LINE      ---      ---       #193
      00FF606AH   LINE      ---      ---       #196
      00FF608EH   LINE      ---      ---       #197
      00FF609CH   LINE      ---      ---       #198
      00FF60AEH   LINE      ---      ---       #200
      00FF60BBH   LINE      ---      ---       #203
      00FF60CDH   LINE      ---      ---       #204
      00FF60D1H   LINE      ---      ---       #207
      00FF60E8H   LINE      ---      ---       #210
      00FF60EEH   LINE      ---      ---       #211
      0000AEC3H   SYMBOL    EDATA    ---       pInput
      0000AEC5H   SYMBOL    EDATA    ---       pOutput
      0000AEC7H   SYMBOL    EDATA    WORD      tempAddress
      DR12        REGSYM    ---      DWORD     tempLength
      WR0         REGSYM    ---      WORD      startPage
      0000AEC9H   SYMBOL    EDATA    WORD      startOffset
      0000AECBH   SYMBOL    EDATA    WORD      pageNum
      0000AECDH   SYMBOL    EDATA    WORD      loopIdx
      ---         BLOCKEND  CODE     ---       LVL=1
      00FF6104H   LINE      ---      ---       #212
      00FF6104H   LINE      CODE     ---       #212

      ---         MODULE    ---      ---       bmu_rx
      00FF6107H   PUBLIC    CODE     ---       BMU_LocalRxqStartAddGet
      00FF6129H   PUBLIC    CODE     ---       BMU_RxqStartAddGet
      00FF2EA2H   PUBLIC    CODE     ---       BMU_RxConfig
      00FF614BH   PUBLIC    CODE     ---       BMU_LocalRxQueueGet
      00FF25B0H   PUBLIC    CODE     ---       BMU_RxQueueGet
      00FF2504H   PUBLIC    CODE     ---       BMU_RxQueueSet

      00FF6107H   BLOCK     CODE     ---       LVL=0
      00FF6107H   LINE      ---      ---       #36
      00FF6107H   LINE      ---      ---       #38
      00FF6128H   LINE      ---      ---       #39
      ---         BLOCKEND  ---      ---       LVL=0

      00FF6129H   BLOCK     CODE     ---       LVL=0
      00FF6129H   LINE      ---      ---       #41
      00FF6129H   LINE      ---      ---       #43
      00FF614AH   LINE      ---      ---       #44
      ---         BLOCKEND  ---      ---       LVL=0

      00FF2EA2H   BLOCK     CODE     ---       LVL=0
      00FF2EA2H   LINE      ---      ---       #47
      00FF2EA6H   LINE      ---      ---       #50
      WR6         REGSYM    ---      INT       queueType
      00FF2EA6H   BLOCK     CODE     NEAR LAB  LVL=1
      00FF2EA6H   LINE      ---      ---       #55
      00FF2EA9H   LINE      ---      ---       #56
      00FF2EB1H   LINE      ---      ---       #58
L251 LINKER/LOCATER V4.66.93.0                                                        12/18/2023  14:26:43  PAGE 59


      00FF2EB1H   LINE      ---      ---       #61
      00FF2EBDH   LINE      ---      ---       #62
      00FF2EBFH   LINE      ---      ---       #64
      00FF2EC1H   LINE      ---      ---       #65
      00FF2EC1H   LINE      ---      ---       #68
      00FF2EDFH   LINE      ---      ---       #69
      00FF2F0CH   LINE      ---      ---       #72
      00FF2F10H   LINE      ---      ---       #73
      00FF2F1CH   LINE      ---      ---       #74
      00FF2F21H   LINE      ---      ---       #75
      00FF2F23H   LINE      ---      ---       #76
      00FF2F23H   LINE      ---      ---       #77
      00FF2F25H   LINE      ---      ---       #78
      00FF2F25H   LINE      ---      ---       #80
      R13         REGSYM    ---      BYTE      bRetValue
      WR14        REGSYM    ---      WORD      rxMaxLen
      ---         BLOCKEND  CODE     ---       LVL=1
      00FF2F27H   LINE      ---      ---       #98
      00FF2F27H   LINE      CODE     ---       #98

      00FF614BH   BLOCK     CODE     ---       LVL=0
      00FF614BH   LINE      ---      ---       #100
      00FF6151H   LINE      ---      ---       #105
      WR30        REGSYM    ---      WORD      length
      WR8         REGSYM    ---      WORD      offset
      REG=14      REGSYM    ---      ---       pData
      00FF6151H   BLOCK     CODE     NEAR LAB  LVL=1
      00FF6151H   LINE      ---      ---       #112
      00FF615BH   LINE      ---      ---       #113
      00FF615DH   LINE      ---      ---       #116
      00FF616BH   LINE      ---      ---       #117
      00FF6174H   LINE      ---      ---       #120
      00FF617EH   LINE      ---      ---       #121
      00FF6186H   LINE      ---      ---       #123
      00FF618AH   LINE      ---      ---       #124
      00FF618EH   LINE      ---      ---       #126
      00FF6194H   LINE      ---      ---       #127
      00FF6196H   LINE      ---      ---       #129
      00FF6198H   LINE      ---      ---       #132
      00FF619EH   LINE      ---      ---       #133
      00FF61A1H   LINE      ---      ---       #136
      00FF61BBH   LINE      ---      ---       #137
      00FF61C0H   LINE      ---      ---       #139
      WR4         REGSYM    ---      WORD      bufferLength
      WR6         REGSYM    ---      WORD      bufferAddress
      DR0         REGSYM    ---      DWORD     tempLength
      REG=2       REGSYM    ---      ---       pBufferAddress
      ---         BLOCKEND  CODE     ---       LVL=1
      00FF61C2H   LINE      ---      ---       #140
      00FF61C2H   LINE      CODE     ---       #140

      00FF25B0H   BLOCK     CODE     ---       LVL=0
      00FF25B0H   LINE      ---      ---       #180
      00FF25B6H   LINE      ---      ---       #185
      WR30        REGSYM    ---      WORD      length
      WR8         REGSYM    ---      WORD      offset
      REG=14      REGSYM    ---      ---       pData
      00FF25B6H   BLOCK     CODE     NEAR LAB  LVL=1
      00FF25B6H   LINE      ---      ---       #191
      00FF25C0H   LINE      ---      ---       #192
      00FF25C2H   LINE      ---      ---       #195
      00FF25CBH   LINE      ---      ---       #196
      00FF25DCH   LINE      ---      ---       #199
      00FF25E6H   LINE      ---      ---       #200
      00FF25EEH   LINE      ---      ---       #202
L251 LINKER/LOCATER V4.66.93.0                                                        12/18/2023  14:26:43  PAGE 60


      00FF25F2H   LINE      ---      ---       #203
      00FF25F6H   LINE      ---      ---       #205
      00FF25FCH   LINE      ---      ---       #206
      00FF25FEH   LINE      ---      ---       #208
      00FF2600H   LINE      ---      ---       #211
      00FF2606H   LINE      ---      ---       #212
      00FF2609H   LINE      ---      ---       #215
      00FF2610H   LINE      ---      ---       #217
      WR0         REGSYM    ---      WORD      bufferLength
      WR2         REGSYM    ---      WORD      bufferAddress
      DR4         REGSYM    ---      DWORD     tempLength
      ---         BLOCKEND  CODE     ---       LVL=1
      00FF2612H   LINE      ---      ---       #218
      00FF2612H   LINE      CODE     ---       #218

      00FF2504H   BLOCK     CODE     ---       LVL=0
      00FF2504H   LINE      ---      ---       #220
      00FF250AH   LINE      ---      ---       #225
      WR8         REGSYM    ---      WORD      length
      WR30        REGSYM    ---      WORD      offset
      REG=14      REGSYM    ---      ---       pData
      00FF250AH   BLOCK     CODE     NEAR LAB  LVL=1
      00FF250AH   LINE      ---      ---       #231
      00FF2514H   LINE      ---      ---       #232
      00FF2516H   LINE      ---      ---       #235
      00FF251FH   LINE      ---      ---       #236
      00FF252DH   LINE      ---      ---       #239
      00FF2537H   LINE      ---      ---       #240
      00FF253DH   LINE      ---      ---       #241
      00FF253FH   LINE      ---      ---       #244
      00FF2543H   LINE      ---      ---       #245
      00FF2546H   LINE      ---      ---       #248
      00FF254FH   LINE      ---      ---       #250
      WR6         REGSYM    ---      WORD      bufferLength
      WR2         REGSYM    ---      WORD      bufferAddress
      DR24        REGSYM    ---      DWORD     tempLength
      ---         BLOCKEND  CODE     ---       LVL=1
      00FF2551H   LINE      ---      ---       #251
      00FF2551H   LINE      CODE     ---       #251

      ---         MODULE    ---      ---       bmu_tx
      00FF642DH   PUBLIC    CODE     ---       BMU_LocalTxqStartAddGet
      00FF644FH   PUBLIC    CODE     ---       BMU_TxqStartAddGet
      00FF5DB2H   PUBLIC    CODE     ---       BMU_TxqStatusUpd
      00FF6472H   PUBLIC    CODE     ---       BMU_TxqStatusRecovery
      00FF6496H   PUBLIC    CODE     ---       BMU_TxqPktSearch
      00FF64CEH   PUBLIC    CODE     ---       BMU_TxPktLengthGet
      00FF2C87H   PUBLIC    CODE     ---       BMU_TxConfig
      00FF6567H   PUBLIC    CODE     ---       BMU_LocalTxQueueGet
      00FF56F1H   PUBLIC    CODE     ---       BMU_LocalTxQueueSet
      00FF2BB1H   PUBLIC    CODE     ---       BMU_TxQueueGet
      00FF65A1H   PUBLIC    CODE     ---       BMU_TxQueueClear

      00FF642DH   BLOCK     CODE     ---       LVL=0
      00FF642DH   LINE      ---      ---       #27
      00FF642DH   LINE      ---      ---       #29
      00FF644EH   LINE      ---      ---       #30
      ---         BLOCKEND  ---      ---       LVL=0

      00FF644FH   BLOCK     CODE     ---       LVL=0
      00FF644FH   LINE      ---      ---       #32
      00FF644FH   LINE      ---      ---       #36
      00FF6471H   LINE      ---      ---       #37
      R7          REGSYM    ---      BYTE      dataQueueId
      ---         BLOCKEND  ---      ---       LVL=0
L251 LINKER/LOCATER V4.66.93.0                                                        12/18/2023  14:26:43  PAGE 61



      00FF5DB2H   BLOCK     CODE     ---       LVL=0
      00FF5DB2H   LINE      ---      ---       #39
      00FF5DB2H   LINE      ---      ---       #41
      00FF5DBDH   LINE      ---      ---       #42
      00FF5DC8H   LINE      ---      ---       #43
      ---         BLOCKEND  ---      ---       LVL=0

      00FF6472H   BLOCK     CODE     ---       LVL=0
      00FF6472H   LINE      ---      ---       #45
      00FF6476H   LINE      ---      ---       #49
      00FF647EH   LINE      ---      ---       #50
      00FF6493H   LINE      ---      ---       #51
      R15         REGSYM    ---      BYTE      txQueueId
      ---         BLOCKEND  ---      ---       LVL=0

      00FF6496H   BLOCK     CODE     ---       LVL=0
      00FF6496H   LINE      ---      ---       #53
      00FF649AH   LINE      ---      ---       #57
      REG=0       REGSYM    ---      ---       pPktNum
      REG=1       REGSYM    ---      ---       pQList
      00FF649AH   BLOCK     CODE     NEAR LAB  LVL=1
      00FF649AH   LINE      ---      ---       #62
      00FF64A1H   LINE      ---      ---       #63
      00FF64A7H   LINE      ---      ---       #64
      00FF64ABH   LINE      ---      ---       #65
      00FF64ADH   LINE      ---      ---       #67
      00FF64B2H   LINE      ---      ---       #69
      00FF64B9H   LINE      ---      ---       #70
      00FF64BCH   LINE      ---      ---       #71
      00FF64BEH   LINE      ---      ---       #72
      00FF64BEH   LINE      ---      ---       #73
      00FF64C0H   LINE      ---      ---       #75
      00FF64C2H   LINE      ---      ---       #76
      00FF64C2H   LINE      ---      ---       #77
      00FF64C9H   LINE      ---      ---       #80
      R10         REGSYM    ---      BYTE      rTxqEmpty
      R7          REGSYM    ---      BYTE      rTxqDiff
      R6          REGSYM    ---      BYTE      idx
      ---         BLOCKEND  CODE     ---       LVL=1
      00FF64CDH   LINE      ---      ---       #81
      00FF64CDH   LINE      CODE     ---       #81

      00FF64CEH   BLOCK     CODE     ---       LVL=0
      00FF64CEH   LINE      ---      ---       #83
      00FF64D6H   LINE      ---      ---       #126
      00FF64E9H   LINE      ---      ---       #127
      00FF64ECH   LINE      ---      ---       #130
      00FF64FFH   LINE      ---      ---       #131
      00FF6515H   LINE      ---      ---       #134
      00FF6533H   LINE      ---      ---       #135
      00FF6535H   LINE      ---      ---       #136
      00FF654AH   LINE      ---      ---       #137
      00FF6551H   LINE      ---      ---       #139
      00FF6562H   LINE      ---      ---       #143
      00FF6564H   LINE      ---      ---       #144
      R10         REGSYM    ---      BYTE      queueId
      R15         REGSYM    ---      BYTE      pktId
      REG=4       REGSYM    ---      ---       pPktLength
      ---         BLOCKEND  ---      ---       LVL=0

      00FF2C80H   BLOCK     CODE     ---       LVL=0
      00FF2C87H   LINE      ---      ---       #147
      00FF2C8BH   LINE      ---      ---       #154
      00FF2C95H   LINE      ---      ---       #157
L251 LINKER/LOCATER V4.66.93.0                                                        12/18/2023  14:26:43  PAGE 62


      00FF2C95H   LINE      ---      ---       #159
      00FF2C9AH   LINE      ---      ---       #160
      00FF2C9CH   LINE      ---      ---       #163
      00FF2CAFH   LINE      ---      ---       #164
      00FF2CB1H   LINE      ---      ---       #167
      00FF2CC5H   LINE      ---      ---       #169
      00FF2CDCH   LINE      ---      ---       #175
      00FF2CE8H   LINE      ---      ---       #177
      00FF2CF7H   LINE      ---      ---       #179
      00FF2D01H   LINE      ---      ---       #183
      00FF2D01H   LINE      ---      ---       #187
      00FF2D05H   LINE      ---      ---       #189
      00FF2D07H   LINE      ---      ---       #192
      00FF2D07H   LINE      ---      ---       #195
      00FF2D13H   LINE      ---      ---       #197
      00FF2D15H   LINE      ---      ---       #199
      00FF2D15H   LINE      ---      ---       #200
      00FF2D17H   LINE      ---      ---       #201
      00FF2D17H   LINE      ---      ---       #212
      00FF2D19H   LINE      ---      ---       #213
      00FF2C80H   SYMBOL    CODE     NEAR LAB  ?L?COM0028
      WR6         REGSYM    ---      INT       queueType
      R10         REGSYM    ---      BYTE      queueId
      R9          REGSYM    ---      BYTE      pktId
      ---         BLOCKEND  ---      ---       LVL=0

      00FF6567H   BLOCK     CODE     ---       LVL=0
      00FF6567H   LINE      ---      ---       #216
      00FF656DH   LINE      ---      ---       #221
      WR10        REGSYM    ---      WORD      length
      WR2         REGSYM    ---      WORD      offset
      REG=4       REGSYM    ---      ---       pData
      00FF656DH   BLOCK     CODE     NEAR LAB  LVL=1
      00FF656DH   LINE      ---      ---       #226
      00FF6571H   LINE      ---      ---       #227
      00FF6574H   LINE      ---      ---       #230
      00FF657DH   LINE      ---      ---       #233
      00FF6597H   LINE      ---      ---       #234
      00FF659EH   LINE      ---      ---       #236
      WR6         REGSYM    ---      WORD      bufferAddress
      REG=2       REGSYM    ---      ---       pBufferAddress
      ---         BLOCKEND  CODE     ---       LVL=1
      00FF65A0H   LINE      ---      ---       #237
      00FF65A0H   LINE      CODE     ---       #237

      00FF56F1H   BLOCK     CODE     ---       LVL=0
      00FF56F1H   LINE      ---      ---       #240
      00FF56F7H   LINE      ---      ---       #246
      WR8         REGSYM    ---      WORD      length
      WR30        REGSYM    ---      WORD      offset
      REG=14      REGSYM    ---      ---       pData
      R11         REGSYM    ---      BYTE      bTxqInit
      00FF56F7H   BLOCK     CODE     NEAR LAB  LVL=1
      00FF56F7H   LINE      ---      ---       #252
      00FF56FBH   LINE      ---      ---       #253
      00FF56FEH   LINE      ---      ---       #256
      00FF5708H   LINE      ---      ---       #257
      00FF570AH   LINE      ---      ---       #259
      00FF5726H   LINE      ---      ---       #260
      00FF5728H   LINE      ---      ---       #263
      00FF5737H   LINE      ---      ---       #264
      00FF5739H   LINE      ---      ---       #265
      00FF574DH   LINE      ---      ---       #266
      00FF574FH   LINE      ---      ---       #269
      00FF5758H   LINE      ---      ---       #272
L251 LINKER/LOCATER V4.66.93.0                                                        12/18/2023  14:26:43  PAGE 63


      00FF5772H   LINE      ---      ---       #273
      00FF5779H   LINE      ---      ---       #275
      WR4         REGSYM    ---      WORD      bufferAddress
      DR0         REGSYM    ---      DWORD     tempLength
      REG=3       REGSYM    ---      ---       pBufferAddress
      ---         BLOCKEND  CODE     ---       LVL=1
      00FF577BH   LINE      ---      ---       #276
      00FF577BH   LINE      CODE     ---       #276

      00FF2BB1H   BLOCK     CODE     ---       LVL=0
      00FF2BB1H   LINE      ---      ---       #279
      00FF2BB9H   LINE      ---      ---       #285
      R10         REGSYM    ---      BYTE      queueId
      WR8         REGSYM    ---      WORD      length
      WR28        REGSYM    ---      WORD      offset
      REG=15      REGSYM    ---      ---       pData
      00FF2BB9H   BLOCK     CODE     NEAR LAB  LVL=1
      00FF2BB9H   LINE      ---      ---       #289
      00FF2BBEH   LINE      ---      ---       #290
      00FF2BC0H   LINE      ---      ---       #293
      00FF2BD3H   LINE      ---      ---       #294
      00FF2BD5H   LINE      ---      ---       #297
      00FF2BD9H   LINE      ---      ---       #298
      00FF2BDCH   LINE      ---      ---       #302
      00FF2BF0H   LINE      ---      ---       #303
      00FF2BF8H   LINE      ---      ---       #304
      00FF2C01H   LINE      ---      ---       #310
      00FF2C0AH   LINE      ---      ---       #312
      WR2         REGSYM    ---      WORD      bufferAddress
      ---         BLOCKEND  CODE     ---       LVL=1
      00FF2C0CH   LINE      ---      ---       #313
      00FF2C0CH   LINE      CODE     ---       #313

      00FF65A1H   BLOCK     CODE     ---       LVL=0
      00FF65A1H   LINE      ---      ---       #353
      00FF65A5H   LINE      ---      ---       #359
      00FF65B8H   LINE      ---      ---       #360
      00FF65BAH   LINE      ---      ---       #362
      00FF65EFH   LINE      ---      ---       #364
      00FF65F2H   LINE      ---      ---       #367
      00FF6605H   LINE      ---      ---       #369
      00FF661AH   LINE      ---      ---       #373
      00FF6623H   LINE      ---      ---       #375
      00FF6625H   LINE      ---      ---       #376
      R9          REGSYM    ---      BYTE      queueId
      R10         REGSYM    ---      BYTE      pktId
      ---         BLOCKEND  ---      ---       LVL=0

      ---         MODULE    ---      ---       bmu_ble
      00FF6626H   PUBLIC    CODE     ---       BMU_PrivacyIrkClr
      00FF6697H   PUBLIC    CODE     ---       BMU_PrivacyIrkSet
      00FF6797H   PUBLIC    CODE     ---       BMU_PrivacyIrkGet
      00FF66D0H   PUBLIC    CODE     ---       BMU_PrivacyLocalRpaGen
      00FF67CCH   PUBLIC    CODE     ---       BMU_PrivacyIrkFullSearch
      00FF675EH   PUBLIC    CODE     ---       BMU_PrivacyIrkSingleSearch

      00FF6697H   BLOCK     CODE     ---       LVL=0
      00FF6697H   LINE      ---      ---       #25
      00FF6699H   LINE      ---      ---       #31
      R3          REGSYM    ---      BYTE      idx
      REG=4       REGSYM    ---      ---       pIrk
      ---         BLOCKEND  ---      ---       LVL=0

      00FF6797H   BLOCK     CODE     ---       LVL=0
      00FF6797H   LINE      ---      ---       #34
L251 LINKER/LOCATER V4.66.93.0                                                        12/18/2023  14:26:43  PAGE 64


      00FF6797H   LINE      ---      ---       #40
      R1          REGSYM    ---      BYTE      idx
      REG=3       REGSYM    ---      ---       pIrk
      ---         BLOCKEND  ---      ---       LVL=0

      00FF6626H   BLOCK     CODE     ---       LVL=0
      00FF6626H   LINE      ---      ---       #44
      00FF6628H   LINE      ---      ---       #49
      00FF662AH   LINE      ---      ---       #52
      00FF665FH   LINE      ---      ---       #53
      00FF6661H   LINE      ---      ---       #57
      R11         REGSYM    ---      BYTE      bClrAll
      R10         REGSYM    ---      BYTE      idx
      ---         BLOCKEND  ---      ---       LVL=0

      00FF66D0H   BLOCK     CODE     ---       LVL=0
      00FF66D0H   LINE      ---      ---       #61
      00FF66DAH   LINE      ---      ---       #67
      0000AF91H   SYMBOL    EDATA    BYTE      idx
      REG=3       REGSYM    ---      ---       pIrk
      REG=6       REGSYM    ---      ---       pPrand
      REG=7       REGSYM    ---      ---       pHash
      00FF66DAH   BLOCK     CODE     NEAR LAB  LVL=1
      00FF66DAH   LINE      ---      ---       #71
      00FF66DCH   LINE      ---      ---       #74
      00FF66F7H   LINE      ---      ---       #75
      00FF670DH   LINE      ---      ---       #78
      00FF6716H   LINE      ---      ---       #81
      00FF6731H   LINE      ---      ---       #84
      00FF6739H   LINE      ---      ---       #87
      00FF6743H   LINE      ---      ---       #90
      00FF674EH   LINE      ---      ---       #91
      00FF6751H   LINE      ---      ---       #92
      00FF6757H   LINE      ---      ---       #93
      DR4         REGSYM    ---      DWORD     regTemp
      ---         BLOCKEND  CODE     ---       LVL=1
      00FF675BH   LINE      ---      ---       #94
      00FF675BH   LINE      CODE     ---       #94

      00FF67CCH   BLOCK     CODE     ---       LVL=0
      00FF67CCH   LINE      ---      ---       #96
      00FF67D4H   LINE      ---      ---       #101
      REG=2       REGSYM    ---      ---       pHash
      REG=7       REGSYM    ---      ---       pPrand
      REG=6       REGSYM    ---      ---       pResult
      00FF67D4H   BLOCK     CODE     NEAR LAB  LVL=1
      00FF67D4H   LINE      ---      ---       #105
      00FF67DFH   LINE      ---      ---       #108
      00FF67FAH   LINE      ---      ---       #109
      00FF6810H   LINE      ---      ---       #112
      00FF681CH   LINE      ---      ---       #115
      00FF6824H   LINE      ---      ---       #118
      00FF682CH   LINE      ---      ---       #121
      00FF6836H   LINE      ---      ---       #124
      00FF6840H   LINE      ---      ---       #126
      00FF6846H   LINE      ---      ---       #127
      00FF684AH   LINE      ---      ---       #128
      00FF684AH   LINE      ---      ---       #129
      DR4         REGSYM    ---      DWORD     regTemp
      ---         BLOCKEND  CODE     ---       LVL=1
      00FF684BH   LINE      ---      ---       #130
      00FF684BH   LINE      CODE     ---       #130

      00FF675EH   BLOCK     CODE     ---       LVL=0
      00FF675EH   LINE      ---      ---       #132
L251 LINKER/LOCATER V4.66.93.0                                                        12/18/2023  14:26:43  PAGE 65


      00FF6766H   LINE      ---      ---       #138
      R11         REGSYM    ---      BYTE      idx
      REG=0       REGSYM    ---      ---       pIrk
      REG=1       REGSYM    ---      ---       pPrand
      REG=7       REGSYM    ---      ---       pHash
      00FF6766H   BLOCK     CODE     NEAR LAB  LVL=1
      00FF6766H   LINE      ---      ---       #139
      00FF676CH   LINE      ---      ---       #142
      00FF6776H   LINE      ---      ---       #145
      00FF678BH   LINE      ---      ---       #146
      00FF678FH   LINE      ---      ---       #147
      00FF6792H   LINE      ---      ---       #148
      0000AF4DH   SYMBOL    EDATA    DWORD     regTemp
      ---         BLOCKEND  CODE     ---       LVL=1
      00FF6794H   LINE      ---      ---       #149
      00FF6794H   LINE      CODE     ---       #149

      ---         MODULE    ---      ---       mac
      00FF22C1H   PUBLIC    CODE     ---       mac_FunEventQAdd?_
      00FF299DH   PUBLIC    CODE     ---       mac_IntEventQAdd?_
      00FF15E6H   PUBLIC    CODE     ---       mac_FunEventQGet?_
      00FF684EH   PUBLIC    CODE     ---       mac_IntEventQGet?_
      00FF31FAH   PUBLIC    CODE     ---       MAC_SleepCheck
      00FF687BH   PUBLIC    CODE     ---       Mac_TimeoutHdlr
      00FF1314H   PUBLIC    CODE     ---       mac_Init
      00FF2A74H   PUBLIC    CODE     ---       mac_CheckRxBusy
      00FF2856H   PUBLIC    CODE     ---       mac_CheckIsrRxReceived
      00FF17F2H   PUBLIC    CODE     ---       mac_FatalClear
      00FF6886H   PUBLIC    CODE     ---       mac
      00FF29E5H   PUBLIC    CODE     ---       mac_IntEventQueueHandler
      00FF68D3H   PUBLIC    CODE     ---       mac_FunEventQInit
      00FF68DFH   PUBLIC    CODE     ---       mac_IntEventQInit
      00FF29D5H   PUBLIC    CODE     ---       pciQueueGetandMacIntQueueAdd
      00FF1767H   PUBLIC    CODE     ---       mac_FunEventQueueExist
      00FF68EBH   PUBLIC    CODE     ---       mac_TrxPar_Init
      00FF6AE6H   PUBLIC    CODE     ---       mac_IntEventQueueExist
      0000AD22H   PUBLIC    EDATA    ---       gMacFunCtrl
      0000AD23H   PUBLIC    EDATA    ---       gMacFunEventQ
      0000AD3DH   PUBLIC    EDATA    ---       gMacIntEventQ
      000000A8H.7 SFRSYM    DATA     BIT       EA
      00000080H   SFRSYM    DATA     BYTE      P0

      00FF22C1H   BLOCK     CODE     ---       LVL=0
      00FF22C1H   LINE      ---      ---       #95
      00FF22C3H   LINE      ---      ---       #98
      00FF22C7H   LINE      ---      ---       #99
      00FF22C7H   LINE      ---      ---       #101
      00FF22C9H   LINE      ---      ---       #104
      00FF22DAH   LINE      ---      ---       #106
      00FF22DEH   LINE      ---      ---       #109
      00FF22EAH   LINE      ---      ---       #111
      00FF22EFH   LINE      ---      ---       #112
      00FF22F1H   LINE      ---      ---       #118
      00FF22F4H   LINE      ---      ---       #120
      00FF22F6H   LINE      ---      ---       #121
      00FF22F6H   LINE      ---      ---       #123
      00FF22F8H   LINE      ---      ---       #124
      WR4         REGSYM    ---      WORD      state
      ---         BLOCKEND  ---      ---       LVL=0

      00FF15E6H   BLOCK     CODE     ---       LVL=0
      00FF15E6H   LINE      ---      ---       #133
      00FF15E6H   LINE      ---      ---       #134
      00FF15E6H   BLOCK     CODE     NEAR LAB  LVL=1
      00FF15E6H   LINE      ---      ---       #138
L251 LINKER/LOCATER V4.66.93.0                                                        12/18/2023  14:26:43  PAGE 66


      00FF15E8H   LINE      ---      ---       #140
      00FF15F5H   LINE      ---      ---       #142
      00FF15F9H   LINE      ---      ---       #145
      00FF15FFH   LINE      ---      ---       #148
      00FF160BH   LINE      ---      ---       #150
      00FF1610H   LINE      ---      ---       #151
      00FF1610H   LINE      ---      ---       #154
      00FF1612H   LINE      ---      ---       #156
      WR6         REGSYM    ---      WORD      ret
      ---         BLOCKEND  CODE     ---       LVL=1
      00FF1612H   LINE      ---      ---       #157
      00FF1612H   LINE      CODE     ---       #157

      00FF68D3H   BLOCK     CODE     ---       LVL=0
      00FF68D3H   LINE      ---      ---       #166
      00FF68D3H   LINE      ---      ---       #168
      ---         BLOCKEND  ---      ---       LVL=0

      00FF2999H   BLOCK     CODE     ---       LVL=0
      00FF299DH   LINE      ---      ---       #178
      00FF299FH   LINE      ---      ---       #181
      00FF29A3H   LINE      ---      ---       #182
      00FF29A3H   LINE      ---      ---       #186
      00FF29A5H   LINE      ---      ---       #190
      00FF29B6H   LINE      ---      ---       #192
      00FF29BAH   LINE      ---      ---       #195
      00FF29C6H   LINE      ---      ---       #197
      00FF29CBH   LINE      ---      ---       #198
      00FF29CDH   LINE      ---      ---       #204
      00FF29D0H   LINE      ---      ---       #205
      00FF29D2H   LINE      ---      ---       #206
      00FF29D2H   LINE      ---      ---       #209
      00FF29D4H   LINE      ---      ---       #211
      00FF2999H   SYMBOL    CODE     NEAR LAB  ?L?COM0030
      WR4         REGSYM    ---      WORD      state
      ---         BLOCKEND  ---      ---       LVL=0

      00FF684EH   BLOCK     CODE     ---       LVL=0
      00FF684EH   LINE      ---      ---       #222
      00FF684EH   LINE      ---      ---       #223
      00FF684EH   BLOCK     CODE     NEAR LAB  LVL=1
      00FF684EH   LINE      ---      ---       #227
      00FF6850H   LINE      ---      ---       #229
      00FF685DH   LINE      ---      ---       #231
      00FF6861H   LINE      ---      ---       #234
      00FF6867H   LINE      ---      ---       #237
      00FF6873H   LINE      ---      ---       #239
      00FF6878H   LINE      ---      ---       #240
      00FF6878H   LINE      ---      ---       #243
      00FF687AH   LINE      ---      ---       #245
      WR6         REGSYM    ---      WORD      ret
      ---         BLOCKEND  CODE     ---       LVL=1
      00FF687AH   LINE      ---      ---       #246
      00FF687AH   LINE      CODE     ---       #246

      00FF68DFH   BLOCK     CODE     ---       LVL=0
      00FF68DFH   LINE      ---      ---       #255
      00FF68DFH   LINE      ---      ---       #257
      ---         BLOCKEND  ---      ---       LVL=0

      00FF29D5H   BLOCK     CODE     ---       LVL=0
      00FF29D5H   LINE      ---      ---       #261
      00FF29D5H   LINE      ---      ---       #262
      00FF29D5H   BLOCK     CODE     NEAR LAB  LVL=1
      00FF29D5H   LINE      ---      ---       #263
L251 LINKER/LOCATER V4.66.93.0                                                        12/18/2023  14:26:43  PAGE 67


      00FF29D9H   LINE      ---      ---       #264
      00FF29DEH   LINE      ---      ---       #266
      00FF29E4H   LINE      ---      ---       #267
      R7          REGSYM    ---      BYTE      pciQueueNum
      ---         BLOCKEND  CODE     ---       LVL=1
      ---         BLOCKEND  CODE     ---       LVL=0

      00FF1767H   BLOCK     CODE     ---       LVL=0
      00FF1767H   LINE      ---      ---       #272
      00FF1767H   LINE      ---      ---       #274
      00FF1775H   LINE      ---      ---       #275
      ---         BLOCKEND  ---      ---       LVL=0

      00FF29E5H   BLOCK     CODE     ---       LVL=0
      00FF29E5H   LINE      ---      ---       #277
      00FF29E5H   LINE      ---      ---       #278
      00FF29E5H   BLOCK     CODE     NEAR LAB  LVL=1
      00FF29E5H   LINE      ---      ---       #282
      00FF29E7H   LINE      ---      ---       #288
      00FF29E9H   LINE      ---      ---       #292
      00FF29ECH   LINE      ---      ---       #293
      00FF29F4H   LINE      ---      ---       #296
      00FF29F4H   LINE      ---      ---       #297
      00FF29F7H   LINE      ---      ---       #298
      00FF29F7H   LINE      ---      ---       #301
      00FF29F7H   LINE      ---      ---       #306
      00FF29F9H   LINE      ---      ---       #311
      00FF29F9H   LINE      ---      ---       #313
      WR6         REGSYM    ---      WORD      macIntEventQueue
      ---         BLOCKEND  CODE     ---       LVL=1
      00FF29F9H   LINE      ---      ---       #315
      00FF29F9H   LINE      CODE     ---       #315

      00FF68EBH   BLOCK     CODE     ---       LVL=0
      00FF68EBH   LINE      ---      ---       #317
      00FF68EBH   LINE      ---      ---       #318
      00FF68EBH   BLOCK     CODE     NEAR LAB  LVL=1
      00FF68EBH   LINE      ---      ---       #320
      00FF68F0H   LINE      ---      ---       #321
      00FF68F9H   LINE      ---      ---       #324
      00FF6917H   LINE      ---      ---       #325
      00FF6922H   LINE      ---      ---       #329
      00FF692AH   LINE      ---      ---       #330
      00FF6930H   LINE      ---      ---       #331
      00FF6936H   LINE      ---      ---       #332
      00FF693CH   LINE      ---      ---       #333
      00FF6942H   LINE      ---      ---       #334
      00FF694AH   LINE      ---      ---       #335
      00FF6952H   LINE      ---      ---       #337
      00FF6956H   LINE      ---      ---       #340
      00FF695BH   LINE      ---      ---       #341
      00FF695FH   LINE      ---      ---       #342
      00FF6965H   LINE      ---      ---       #351
      00FF6969H   LINE      ---      ---       #352
      00FF696DH   LINE      ---      ---       #353
      00FF6971H   LINE      ---      ---       #354
      00FF6973H   LINE      ---      ---       #356
      00FF6984H   LINE      ---      ---       #357
      00FF6994H   LINE      ---      ---       #358
      00FF69A4H   LINE      ---      ---       #359
      00FF69B5H   LINE      ---      ---       #360
      00FF69C1H   LINE      ---      ---       #361
      00FF69D3H   LINE      ---      ---       #364
      00FF69DBH   LINE      ---      ---       #365
      00FF69E1H   LINE      ---      ---       #366
L251 LINKER/LOCATER V4.66.93.0                                                        12/18/2023  14:26:43  PAGE 68


      00FF69E7H   LINE      ---      ---       #367
      00FF69EBH   LINE      ---      ---       #369
      00FF69F0H   LINE      ---      ---       #370
      00FF69F4H   LINE      ---      ---       #371
      00FF69FAH   LINE      ---      ---       #373
      00FF6A02H   LINE      ---      ---       #375
      00FF6A15H   LINE      ---      ---       #378
      00FF6A15H   LINE      ---      ---       #379
      00FF6A1BH   LINE      ---      ---       #380
      00FF6A20H   LINE      ---      ---       #381
      00FF6A28H   LINE      ---      ---       #382
      00FF6A2CH   LINE      ---      ---       #383
      00FF6A30H   LINE      ---      ---       #384
      00FF6A30H   LINE      ---      ---       #385
      00FF6A30H   LINE      ---      ---       #386
      00FF6A32H   LINE      ---      ---       #390
      00FF6A32H   LINE      ---      ---       #391
      00FF6A3AH   LINE      ---      ---       #392
      00FF6A40H   LINE      ---      ---       #393
      00FF6A48H   LINE      ---      ---       #394
      00FF6A4CH   LINE      ---      ---       #395
      00FF6A5CH   LINE      ---      ---       #396
      00FF6A6EH   LINE      ---      ---       #397
      00FF6A7CH   LINE      ---      ---       #398
      00FF6A7EH   LINE      ---      ---       #402
      00FF6A7EH   LINE      ---      ---       #403
      00FF6A86H   LINE      ---      ---       #404
      00FF6A8CH   LINE      ---      ---       #405
      00FF6A98H   LINE      ---      ---       #406
      00FF6A9CH   LINE      ---      ---       #407
      00FF6AACH   LINE      ---      ---       #408
      00FF6ABEH   LINE      ---      ---       #409
      00FF6AC8H   LINE      ---      ---       #410
      00FF6AC8H   LINE      ---      ---       #425
      00FF6AC8H   LINE      ---      ---       #426
      00FF6ACEH   LINE      ---      ---       #431
      00FF6AD3H   LINE      ---      ---       #435
      00FF6AD7H   LINE      ---      ---       #436
      00FF6ADBH   LINE      ---      ---       #437
      00FF6ADFH   LINE      ---      ---       #440
      0000AF92H   SYMBOL    EDATA    BYTE      i
      WR4         REGSYM    ---      WORD      bufferAddress_LOCAL
      REG=3       REGSYM    ---      ---       pOutput
      ---         BLOCKEND  CODE     ---       LVL=1
      00FF6AE5H   LINE      ---      ---       #447
      00FF6AE5H   LINE      CODE     ---       #447

      00FF687BH   BLOCK     CODE     ---       LVL=0
      00FF687BH   LINE      ---      ---       #450
      00FF687BH   LINE      ---      ---       #453
      00FF6882H   LINE      ---      ---       #454
      00FF6885H   LINE      ---      ---       #455
      ---         BLOCKEND  ---      ---       LVL=0

      00FF1314H   BLOCK     CODE     ---       LVL=0
      00FF1314H   LINE      ---      ---       #457
      00FF1314H   LINE      ---      ---       #461
      00FF131CH   LINE      ---      ---       #465
      00FF131FH   LINE      ---      ---       #469
      00FF1321H   LINE      ---      ---       #473
      00FF1324H   LINE      ---      ---       #476
      00FF1327H   LINE      ---      ---       #479
      00FF132AH   LINE      ---      ---       #484
      00FF1331H   LINE      ---      ---       #494
      ---         BLOCKEND  ---      ---       LVL=0
L251 LINKER/LOCATER V4.66.93.0                                                        12/18/2023  14:26:43  PAGE 69



      00FF6AE6H   BLOCK     CODE     ---       LVL=0
      00FF6AE6H   LINE      ---      ---       #522
      00FF6AE6H   LINE      ---      ---       #523
      00FF6AE6H   BLOCK     CODE     NEAR LAB  LVL=1
      00FF6AE6H   LINE      ---      ---       #525
      00FF6AF4H   LINE      ---      ---       #526
      R11         REGSYM    ---      BYTE      retValue
      ---         BLOCKEND  CODE     ---       LVL=1
      00FF6AF4H   LINE      ---      ---       #527
      00FF6AF4H   LINE      CODE     ---       #527

      00FF31FAH   BLOCK     CODE     ---       LVL=0
      00FF31FAH   LINE      ---      ---       #560
      00FF31FAH   LINE      ---      ---       #566
      00FF3201H   LINE      ---      ---       #569
      00FF3206H   LINE      ---      ---       #570
      00FF3208H   LINE      ---      ---       #586
      00FF320DH   LINE      ---      ---       #587
      00FF320FH   LINE      ---      ---       #612
      00FF3215H   LINE      ---      ---       #614
      00FF3217H   LINE      ---      ---       #615
      00FF3217H   LINE      ---      ---       #617
      00FF3223H   LINE      ---      ---       #619
      00FF3225H   LINE      ---      ---       #620
      00FF3225H   LINE      ---      ---       #622
      00FF322BH   LINE      ---      ---       #624
      00FF323BH   LINE      ---      ---       #626
      00FF3241H   LINE      ---      ---       #628
      00FF3249H   LINE      ---      ---       #629
      00FF324BH   LINE      ---      ---       #630
      00FF324BH   LINE      ---      ---       #633
      00FF324EH   LINE      ---      ---       #634
      00FF324EH   LINE      ---      ---       #635
      00FF324FH   LINE      ---      ---       #638
      ---         BLOCKEND  ---      ---       LVL=0

      00FF2A74H   BLOCK     CODE     ---       LVL=0
      00FF2A74H   LINE      ---      ---       #657
      00FF2A74H   LINE      ---      ---       #662
      00FF2A94H   LINE      ---      ---       #665
      00FF2A97H   LINE      ---      ---       #666
      00FF2A97H   LINE      ---      ---       #668
      00FF2A98H   LINE      ---      ---       #669
      ---         BLOCKEND  ---      ---       LVL=0

      00FF2856H   BLOCK     CODE     ---       LVL=0
      00FF2856H   LINE      ---      ---       #672
      00FF2856H   LINE      ---      ---       #675
      00FF2857H   LINE      ---      ---       #676
      00FF2858H   LINE      ---      ---       #677
      00FF2862H   LINE      ---      ---       #678
      00FF2865H   LINE      ---      ---       #679
      00FF2865H   LINE      ---      ---       #681
      00FF2866H   LINE      ---      ---       #682
      ---         BLOCKEND  ---      ---       LVL=0

      00FF17F2H   BLOCK     CODE     ---       LVL=0
      00FF17F2H   LINE      ---      ---       #685
      00FF17F2H   LINE      ---      ---       #688
      00FF17F8H   LINE      ---      ---       #690
      ---         BLOCKEND  ---      ---       LVL=0

      00FF6886H   BLOCK     CODE     ---       LVL=0
      00FF6886H   LINE      ---      ---       #708
L251 LINKER/LOCATER V4.66.93.0                                                        12/18/2023  14:26:43  PAGE 70


      00FF6886H   LINE      ---      ---       #722
      00FF6898H   LINE      ---      ---       #725
      00FF6898H   LINE      ---      ---       #726
      00FF689AH   LINE      ---      ---       #727
      00FF689CH   LINE      ---      ---       #730
      00FF689CH   LINE      ---      ---       #731
      00FF689EH   LINE      ---      ---       #732
      00FF68A0H   LINE      ---      ---       #734
      00FF68A0H   LINE      ---      ---       #736
      00FF68A3H   LINE      ---      ---       #740
      00FF68A5H   LINE      ---      ---       #741
      00FF68A5H   LINE      ---      ---       #743
      00FF68A8H   LINE      ---      ---       #747
      00FF68A8H   LINE      ---      ---       #771
      00FF68A8H   LINE      ---      ---       #772
      00FF68AAH   LINE      ---      ---       #773
      ---         BLOCKEND  ---      ---       LVL=0

      ---         MODULE    ---      ---       mac_frame_parse
      00FF6AF5H   PUBLIC    CODE     ---       mac_parseHdr

      00FF6AF5H   BLOCK     CODE     ---       LVL=0
      00FF6AF5H   LINE      ---      ---       #86
      00FF6AF9H   LINE      ---      ---       #92
      00FF6B0BH   LINE      ---      ---       #93
      00FF6B0DH   LINE      ---      ---       #94
      00FF6B16H   LINE      ---      ---       #95
      00FF6B26H   LINE      ---      ---       #96
      00FF6B38H   LINE      ---      ---       #97
      00FF6B4CH   LINE      ---      ---       #98
      00FF6B62H   LINE      ---      ---       #99
      00FF6B72H   LINE      ---      ---       #100
      00FF6B81H   LINE      ---      ---       #101
      00FF6B91H   LINE      ---      ---       #103
      00FF6B9AH   LINE      ---      ---       #162
      00FF6BA3H   LINE      ---      ---       #164
      00FF6BAAH   LINE      ---      ---       #165
      00FF6BACH   LINE      ---      ---       #166
      00FF6BB3H   LINE      ---      ---       #168
      00FF6BBAH   LINE      ---      ---       #169
      00FF6BBCH   LINE      ---      ---       #170
      00FF6BBEH   LINE      ---      ---       #173
      00FF6BCDH   LINE      ---      ---       #174
      00FF6BCFH   LINE      ---      ---       #175
      00FF6BDEH   LINE      ---      ---       #176
      00FF6BE0H   LINE      ---      ---       #177
      00FF6BE0H   LINE      ---      ---       #178
      00FF6BE0H   LINE      ---      ---       #180
      00FF6BE9H   LINE      ---      ---       #182
      00FF6BEFH   LINE      ---      ---       #184
      00FF6BF6H   LINE      ---      ---       #185
      00FF6BF8H   LINE      ---      ---       #186
      00FF6BF8H   LINE      ---      ---       #188
      00FF6BFFH   LINE      ---      ---       #193
      00FF6C06H   LINE      ---      ---       #194
      00FF6C06H   LINE      ---      ---       #195
      00FF6C07H   LINE      ---      ---       #201
      00FF6C16H   LINE      ---      ---       #202
      00FF6C18H   LINE      ---      ---       #203
      00FF6C27H   LINE      ---      ---       #207
      00FF6C27H   LINE      ---      ---       #208
      REG=4       REGSYM    ---      ---       dptr
      REG=0       REGSYM    ---      ---       hdr
      ---         BLOCKEND  ---      ---       LVL=0

L251 LINKER/LOCATER V4.66.93.0                                                        12/18/2023  14:26:43  PAGE 71


      ---         MODULE    ---      ---       mac_isr
      00FF6D15H   PUBLIC    CODE     ---       mac_IsrHandler
      00FF17E1H   PUBLIC    CODE     ---       mac_IsrInit
      00FF6D90H   PUBLIC    CODE     ---       mac_BmuIsrInit
      00FF2FB5H   PUBLIC    CODE     ---       mac_isr_reg_cb
      0000AEF6H   PUBLIC    EDATA    ---       g_mac_isr_cb_handle
      00000080H   SFRSYM    DATA     BYTE      P0

      00FF6D15H   BLOCK     CODE     ---       LVL=0
      00FF6D15H   LINE      ---      ---       #44
      00FF6D19H   LINE      ---      ---       #46
      00FF6D1CH   LINE      ---      ---       #48
      00FF6D24H   LINE      ---      ---       #49
      00FF6D2AH   LINE      ---      ---       #50
      00FF6D2AH   LINE      ---      ---       #52
      00FF6D2DH   LINE      ---      ---       #53
      00FF6D30H   LINE      ---      ---       #55
      00FF6D30H   LINE      ---      ---       #57
      00FF6D35H   LINE      ---      ---       #59
      00FF6D3DH   LINE      ---      ---       #60
      00FF6D43H   LINE      ---      ---       #61
      00FF6D43H   LINE      ---      ---       #63
      00FF6D46H   LINE      ---      ---       #64
      00FF6D49H   LINE      ---      ---       #65
      00FF6D49H   LINE      ---      ---       #67
      00FF6D4EH   LINE      ---      ---       #69
      00FF6D56H   LINE      ---      ---       #70
      00FF6D5CH   LINE      ---      ---       #71
      00FF6D5CH   LINE      ---      ---       #73
      00FF6D5FH   LINE      ---      ---       #74
      00FF6D62H   LINE      ---      ---       #75
      00FF6D62H   LINE      ---      ---       #78
      00FF6D67H   LINE      ---      ---       #93
      00FF6D6AH   LINE      ---      ---       #94
      00FF6D6DH   LINE      ---      ---       #95
      00FF6D74H   LINE      ---      ---       #96
      00FF6D74H   LINE      ---      ---       #98
      00FF6D79H   LINE      ---      ---       #100
      00FF6D81H   LINE      ---      ---       #101
      00FF6D87H   LINE      ---      ---       #102
      00FF6D87H   LINE      ---      ---       #104
      00FF6D8AH   LINE      ---      ---       #105
      00FF6D8DH   LINE      ---      ---       #106
      R15         REGSYM    ---      BYTE      intSts
      ---         BLOCKEND  ---      ---       LVL=0

      00FF17E1H   BLOCK     CODE     ---       LVL=0
      00FF17E1H   LINE      ---      ---       #132
      00FF17E1H   LINE      ---      ---       #134
      ---         BLOCKEND  ---      ---       LVL=0

      00FF6D90H   BLOCK     CODE     ---       LVL=0
      00FF6D90H   LINE      ---      ---       #141
      00FF6D90H   LINE      ---      ---       #150
      ---         BLOCKEND  ---      ---       LVL=0

      00FF2FB5H   BLOCK     CODE     ---       LVL=0
      00FF2FB5H   LINE      ---      ---       #153
      00FF2FB7H   LINE      ---      ---       #155
      REG=2       REGSYM    ---      ---       cb
      ---         BLOCKEND  ---      ---       LVL=0

      ---         MODULE    ---      ---       mac_cmd_hdlr
      00FF6D9CH   PUBLIC    CODE     ---       Pci_SetRfFreq
      00FF3713H   PUBLIC    CODE     ---       Pci_SetRxTaskPara
L251 LINKER/LOCATER V4.66.93.0                                                        12/18/2023  14:26:43  PAGE 72


      00FF36D6H   PUBLIC    CODE     ---       Pci_EnableSingleTone
      00FF37D5H   PUBLIC    CODE     ---       Pci_SetRfeSecurityCmd
      00FF6E8BH   PUBLIC    CODE     ---       Pci_SetRfeTxEnableCmd
      00FF6FF0H   PUBLIC    CODE     ---       Pci_SetRfeTxDisableCmd
      00FF4ED7H   PUBLIC    CODE     ---       Pci_SetRfeRxEnableCmd
      00FF36BCH   PUBLIC    CODE     ---       Pci_SetRfeRxDisableCmd
      00FF336AH   PUBLIC    CODE     ---       Pci_GetCrcCount
      00FF7006H   PUBLIC    CODE     ---       Pci_SetRfSleep
      00FF7025H   PUBLIC    CODE     ---       Pci_SetRfIdle
      00FF349DH   PUBLIC    CODE     ---       Pci_GetRssi
      00FF350FH   PUBLIC    CODE     ---       Pci_GetPhyStatus
      00FF703BH   PUBLIC    CODE     ---       Pci_SetClockMode
      00FF719FH   PUBLIC    CODE     ---       Pci_SetRfbAutoState
      00FF37B5H   PUBLIC    CODE     ---       Pci_SetRfeMode
      00FF36ABH   PUBLIC    CODE     ---       Pci_SetGaussianFilterType
      00FF325DH   PUBLIC    CODE     ---       Pci_SetWakeOnRadio
      00FF70B4H   PUBLIC    CODE     ---       Pci_InitFsk
      00FF71FAH   PUBLIC    CODE     ---       Pci_SetFskModem
      00FF54E7H   PUBLIC    CODE     ---       Pci_SetFskMac
      00FF3EE5H   PUBLIC    CODE     ---       Pci_SetFskPreamble
      00FF50BDH   PUBLIC    CODE     ---       Pci_SetFskSfd
      00FF37E1H   PUBLIC    CODE     ---       Pci_SetFskType
      00FF3E08H   PUBLIC    CODE     ---       Pci_BleCmdInitBle
      00FF723CH   PUBLIC    CODE     ---       Pci_BleCmdSetBleModem
      00FF5179H   PUBLIC    CODE     ---       Pci_BleCmdSetBleMac
      00FF712AH   PUBLIC    CODE     ---       Pci_InitZigbee
      00FF72EAH   PUBLIC    CODE     ---       Pci_Parse15p4AddressFilter
      00FF73A0H   PUBLIC    CODE     ---       Pci_Parse15p4MacPib
      00FF73E1H   PUBLIC    CODE     ---       Pci_Parse15p4PhyPib
      00FF3FD1H   PUBLIC    CODE     ---       Pci_Parse15p4AutoAck
      00FF3E95H   PUBLIC    CODE     ---       Pci_Parse15p4PendingBit
      00FF70EEH   PUBLIC    CODE     ---       Pci_OqpskCmdInitOqpsk
      00FF741AH   PUBLIC    CODE     ---       Pci_OqpskCmdSetOqpskModem
      00FF5540H   PUBLIC    CODE     ---       Pci_OqpskCmdSetOqpskMac
      00FF39A5H   PUBLIC    CODE     ---       MAC_CmdQueueParse
      00FF2D1FH   PUBLIC    CODE     ---       Pci_SetPhr
      00FF4F93H   PUBLIC    CODE     ---       Pci_RfeRxParaCheck
      00FF166EH   PUBLIC    CODE     ---       SetRfIdle
      00FF7369H   PUBLIC    CODE     ---       get_pan_number
      00FF7086H   PUBLIC    CODE     ---       Pci_ParaReset
      00FF7458H   PUBLIC    CODE     ---       Pci_RfeTxParaCheck
      00FF7513H   PUBLIC    CODE     ---       Reverse_Uint32cpy
      00FF33D3H   PUBLIC    CODE     ---       Pci_ParseCommonCmd
      00FF3E64H   PUBLIC    CODE     ---       Pci_Parse15p4SwMacCmd
      00FF3BBBH   PUBLIC    CODE     ---       Pci_ParseBleCmd
      00FF3EB3H   PUBLIC    CODE     ---       Pci_ParseFskCmd
      00FF3BD7H   PUBLIC    CODE     ---       Pci_ParseOqpskCmd
      00FF3B2FH   PUBLIC    CODE     ---       Pci_ParseCmnSysCmd
      00FF3C7FH   PUBLIC    CODE     ---       Pci_ParseCmnHalCmd
      0000ADCFH   PUBLIC    EDATA    BYTE      gSleepEnable
      0000ADD0H   PUBLIC    EDATA    ---       g15p4Mac
      0000ADE3H   PUBLIC    EDATA    ---       g15p4Phy
      00FF1086H   PUBLIC    HCONST   ---       gPciCommonCmdLen
      00FF10A5H   PUBLIC    HCONST   ---       gPciFskCmdLen
      00FF10ABH   PUBLIC    HCONST   ---       gPciBleCmdLen
      00FF10B6H   PUBLIC    HCONST   ---       gPci15p4MacCmdLen
      00FF10C3H   PUBLIC    HCONST   ---       gPciOqpskCmdLen
      00FF10C7H   PUBLIC    HCONST   ---       gCmnSysCmdLen
      00FF10C9H   PUBLIC    HCONST   ---       gCmnHalCmdLen
      000000A8H.7 SFRSYM    DATA     BIT       EA
      00000080H   SFRSYM    DATA     BYTE      P0

      00FF7369H   BLOCK     CODE     ---       LVL=0
      00FF7369H   LINE      ---      ---       #304
      00FF7369H   LINE      ---      ---       #305
L251 LINKER/LOCATER V4.66.93.0                                                        12/18/2023  14:26:43  PAGE 73


      00FF7369H   BLOCK     CODE     NEAR LAB  LVL=1
      00FF7369H   LINE      ---      ---       #307
      00FF7372H   LINE      ---      ---       #310
      00FF7390H   LINE      ---      ---       #311
      00FF739BH   LINE      ---      ---       #313
      0000AF93H   SYMBOL    EDATA    BYTE      Pannum
      WR6         REGSYM    ---      WORD      bufferAddress_LOCAL
      REG=2       REGSYM    ---      ---       pInput
      ---         BLOCKEND  CODE     ---       LVL=1
      00FF739FH   LINE      ---      ---       #314
      00FF739FH   LINE      CODE     ---       #314

      00FF2D1AH   BLOCK     CODE     ---       LVL=0
      00FF2D1FH   LINE      ---      ---       #317
      00FF2D27H   LINE      ---      ---       #318
      00FF2D1AH   SYMBOL    CODE     NEAR LAB  ?L?COM0029
      WR14        REGSYM    ---      WORD      pktLen
      R13         REGSYM    ---      BYTE      dateType
      00FF2D27H   BLOCK     CODE     NEAR LAB  LVL=1
      00FF2D27H   LINE      ---      ---       #322
      00FF2D35H   LINE      ---      ---       #325
      00FF2D35H   LINE      ---      ---       #326
      00FF2D3DH   LINE      ---      ---       #327
      00FF2D47H   LINE      ---      ---       #328
      00FF2D47H   LINE      ---      ---       #329
      00FF2D49H   LINE      ---      ---       #332
      00FF2D49H   LINE      ---      ---       #333
      00FF2D55H   LINE      ---      ---       #334
      00FF2D5CH   LINE      ---      ---       #335
      00FF2D5CH   LINE      ---      ---       #336
      00FF2D5EH   LINE      ---      ---       #339
      00FF2D5EH   LINE      ---      ---       #340
      0000AF85H   SYMBOL    EDATA    WORD      phrContent
      00FF2D5EH   BLOCK     CODE     NEAR LAB  LVL=2
      00FF2D5EH   LINE      ---      ---       #343
      00FF2D6DH   LINE      ---      ---       #345
      00FF2D7AH   LINE      ---      ---       #346
      00FF2D7FH   LINE      ---      ---       #347
      00FF2D8AH   LINE      ---      ---       #348
      00FF2D8EH   LINE      ---      ---       #349
      00FF2D99H   LINE      ---      ---       #350
      R10         REGSYM    ---      BYTE      crcType
      ---         BLOCKEND  CODE     ---       LVL=2
      00FF2DA5H   LINE      ---      ---       #352
      00FF2DA5H   LINE      ---      ---       #378
      00FF2DA5H   LINE      ---      ---       #379
      00FF2DA5H   LINE      ---      ---       #380
      00FF2DA5H   LINE      CODE     ---       #380
      ---         BLOCKEND  CODE     ---       LVL=0

      00FF7086H   BLOCK     CODE     ---       LVL=0
      00FF7086H   LINE      ---      ---       #383
      00FF7086H   LINE      ---      ---       #385
      00FF708AH   LINE      ---      ---       #386
      00FF7090H   LINE      ---      ---       #388
      00FF709CH   LINE      ---      ---       #389
      00FF70A0H   LINE      ---      ---       #390
      00FF70A6H   LINE      ---      ---       #391
      00FF70ABH   LINE      ---      ---       #392
      00FF70AFH   LINE      ---      ---       #393
      00FF70B3H   LINE      ---      ---       #394
      WR6         REGSYM    ---      INT       rfkBand
      ---         BLOCKEND  ---      ---       LVL=0

      00FF37D5H   BLOCK     CODE     ---       LVL=0
L251 LINKER/LOCATER V4.66.93.0                                                        12/18/2023  14:26:43  PAGE 74


      00FF37D5H   LINE      ---      ---       #397
      00FF37D5H   LINE      ---      ---       #410
      00FF37D8H   LINE      ---      ---       #422
      00FF37D8H   LINE      ---      ---       #445
      ---         BLOCKEND  ---      ---       LVL=0

      00FF7458H   BLOCK     CODE     ---       LVL=0
      00FF7458H   LINE      ---      ---       #450
      00FF745EH   LINE      ---      ---       #453
      00FF7468H   LINE      ---      ---       #454
      00FF746BH   LINE      ---      ---       #457
      00FF7474H   LINE      ---      ---       #458
      00FF7477H   LINE      ---      ---       #461
      00FF7493H   LINE      ---      ---       #462
      00FF7496H   LINE      ---      ---       #465
      00FF749AH   LINE      ---      ---       #466
      00FF749DH   LINE      ---      ---       #469
      00FF74ABH   LINE      ---      ---       #470
      00FF74AEH   LINE      ---      ---       #473
      00FF74B9H   LINE      ---      ---       #475
      00FF74CDH   LINE      ---      ---       #476
      00FF74D0H   LINE      ---      ---       #477
      00FF74D6H   LINE      ---      ---       #479
      00FF74E0H   LINE      ---      ---       #480
      00FF74E3H   LINE      ---      ---       #481
      00FF74E3H   LINE      ---      ---       #482
      00FF74EDH   LINE      ---      ---       #484
      00FF74F7H   LINE      ---      ---       #485
      00FF74FAH   LINE      ---      ---       #486
      00FF74FAH   LINE      ---      ---       #487
      00FF74FEH   LINE      ---      ---       #488
      00FF7501H   LINE      ---      ---       #489
      00FF750BH   LINE      ---      ---       #490
      00FF750EH   LINE      ---      ---       #491
      00FF750EH   LINE      ---      ---       #493
      00FF7510H   LINE      ---      ---       #494
      WR12        REGSYM    ---      WORD      txCounter
      WR14        REGSYM    ---      WORD      txStepSize
      ---         BLOCKEND  ---      ---       LVL=0

      00FF4F93H   BLOCK     CODE     ---       LVL=0
      00FF4F93H   LINE      ---      ---       #496
      00FF4F99H   LINE      ---      ---       #499
      00FF4FA3H   LINE      ---      ---       #500
      00FF4FA6H   LINE      ---      ---       #503
      00FF4FAEH   LINE      ---      ---       #504
      00FF4FB1H   LINE      ---      ---       #507
      00FF4FBBH   LINE      ---      ---       #510
      00FF4FBFH   LINE      ---      ---       #511
      00FF4FC2H   LINE      ---      ---       #514
      00FF4FD6H   LINE      ---      ---       #515
      00FF4FD9H   LINE      ---      ---       #516
      00FF4FD9H   LINE      ---      ---       #518
      00FF4FDBH   LINE      ---      ---       #519
      R11         REGSYM    ---      BYTE      rxType
      R15         REGSYM    ---      BYTE      queueType
      R10         REGSYM    ---      BYTE      ackEnable
      DR0         REGSYM    ---      DWORD     ackInterval
      ---         BLOCKEND  ---      ---       LVL=0

      00FF6E8BH   BLOCK     CODE     ---       LVL=0
      00FF6E8BH   LINE      ---      ---       #523
      00FF6E8FH   LINE      ---      ---       #524
      REG=7       REGSYM    ---      ---       pCmdAddress
      00FF6E8FH   BLOCK     CODE     NEAR LAB  LVL=1
L251 LINKER/LOCATER V4.66.93.0                                                        12/18/2023  14:26:43  PAGE 75


      00FF6E8FH   LINE      ---      ---       #538
      00FF6E92H   LINE      ---      ---       #542
      00FF6EADH   LINE      ---      ---       #545
      00FF6EADH   LINE      ---      ---       #549
      00FF6EB5H   LINE      ---      ---       #550
      00FF6EBDH   LINE      ---      ---       #551
      00FF6EC5H   LINE      ---      ---       #552
      00FF6ED1H   LINE      ---      ---       #553
      00FF6ED9H   LINE      ---      ---       #554
      00FF6EE1H   LINE      ---      ---       #555
      00FF6EE9H   LINE      ---      ---       #558
      00FF6EF6H   LINE      ---      ---       #560
      00FF6EFEH   LINE      ---      ---       #561
      00FF6F00H   LINE      ---      ---       #562
      00FF6F00H   LINE      ---      ---       #565
      00FF6F12H   LINE      ---      ---       #568
      00FF6F18H   LINE      ---      ---       #569
      00FF6F20H   LINE      ---      ---       #592
      REG=7       REGSYM    ---      ---       pCmdIn
      ---         BLOCKEND  CODE     ---       LVL=1
      00FF6F28H   LINE      ---      ---       #593
      00FF6F28H   LINE      CODE     ---       #593

      00FF6FF0H   BLOCK     CODE     ---       LVL=0
      00FF6FF0H   LINE      ---      ---       #595
      00FF6FF0H   LINE      ---      ---       #597
      00FF6FF0H   LINE      ---      ---       #609
      00FF6FF3H   LINE      ---      ---       #614
      00FF6FF9H   LINE      ---      ---       #620
      00FF6FFEH   LINE      ---      ---       #623
      ---         BLOCKEND  ---      ---       LVL=0

      00FF4ED7H   BLOCK     CODE     ---       LVL=0
      00FF4ED7H   LINE      ---      ---       #626
      00FF4EDBH   LINE      ---      ---       #627
      REG=7       REGSYM    ---      ---       pCmdAddress
      00FF4EDBH   BLOCK     CODE     NEAR LAB  LVL=1
      00FF4EDBH   LINE      ---      ---       #642
      00FF4EDEH   LINE      ---      ---       #646
      00FF4EF9H   LINE      ---      ---       #649
      00FF4EF9H   LINE      ---      ---       #653
      00FF4F05H   LINE      ---      ---       #654
      00FF4F0DH   LINE      ---      ---       #655
      00FF4F15H   LINE      ---      ---       #656
      00FF4F1DH   LINE      ---      ---       #659
      00FF4F33H   LINE      ---      ---       #661
      00FF4F3BH   LINE      ---      ---       #662
      00FF4F3DH   LINE      ---      ---       #663
      00FF4F3DH   LINE      ---      ---       #666
      00FF4F54H   LINE      ---      ---       #669
      00FF4F5AH   LINE      ---      ---       #670
      00FF4F62H   LINE      ---      ---       #682
      00FF4F6AH   LINE      ---      ---       #684
      00FF4F7BH   LINE      ---      ---       #688
      00FF4F86H   LINE      ---      ---       #690
      00FF4F86H   LINE      ---      ---       #693
      REG=7       REGSYM    ---      ---       pCmdIn
      DR12        REGSYM    ---      DWORD     periodicReportCycle
      ---         BLOCKEND  CODE     ---       LVL=1
      00FF4F90H   LINE      ---      ---       #694
      00FF4F90H   LINE      CODE     ---       #694

      00FF36BCH   BLOCK     CODE     ---       LVL=0
      00FF36BCH   LINE      ---      ---       #696
      00FF36BCH   LINE      ---      ---       #698
L251 LINKER/LOCATER V4.66.93.0                                                        12/18/2023  14:26:43  PAGE 76


      00FF36BCH   LINE      ---      ---       #710
      00FF36BFH   LINE      ---      ---       #715
      00FF36C5H   LINE      ---      ---       #724
      00FF36C8H   LINE      ---      ---       #734
      00FF36CDH   LINE      ---      ---       #741
      ---         BLOCKEND  ---      ---       LVL=0

      00FF336AH   BLOCK     CODE     ---       LVL=0
      00FF336AH   LINE      ---      ---       #744
      00FF336AH   LINE      ---      ---       #746
      00FF336AH   LINE      ---      ---       #747
      00FF3373H   LINE      ---      ---       #748
      ---         BLOCKEND  ---      ---       LVL=0

      00FF350FH   BLOCK     CODE     ---       LVL=0
      00FF350FH   LINE      ---      ---       #751
      00FF350FH   LINE      ---      ---       #753
      00FF350FH   LINE      ---      ---       #754
      00FF3518H   LINE      ---      ---       #755
      ---         BLOCKEND  ---      ---       LVL=0

      00FF7006H   BLOCK     CODE     ---       LVL=0
      00FF7006H   LINE      ---      ---       #761
      00FF700AH   LINE      ---      ---       #766
      00FF700DH   LINE      ---      ---       #772
      00FF7011H   LINE      ---      ---       #774
      00FF7018H   LINE      ---      ---       #776
      00FF7022H   LINE      ---      ---       #777
      REG=7       REGSYM    ---      ---       pCmdAddress
      ---         BLOCKEND  ---      ---       LVL=0

      00FF7025H   BLOCK     CODE     ---       LVL=0
      00FF7025H   LINE      ---      ---       #779
      00FF7025H   LINE      ---      ---       #781
      00FF7025H   LINE      ---      ---       #786
      00FF7028H   LINE      ---      ---       #795
      00FF702DH   LINE      ---      ---       #797
      00FF7031H   LINE      ---      ---       #799
      ---         BLOCKEND  ---      ---       LVL=0

      00FF349DH   BLOCK     CODE     ---       LVL=0
      00FF349DH   LINE      ---      ---       #804
      00FF349DH   LINE      ---      ---       #806
      00FF349DH   LINE      ---      ---       #807
      00FF34A6H   LINE      ---      ---       #811
      ---         BLOCKEND  ---      ---       LVL=0

      00FF703BH   BLOCK     CODE     ---       LVL=0
      00FF703BH   LINE      ---      ---       #817
      00FF703FH   LINE      ---      ---       #818
      REG=7       REGSYM    ---      ---       pCmdAddress
      00FF703FH   BLOCK     CODE     NEAR LAB  LVL=1
      00FF703FH   LINE      ---      ---       #827
      00FF7042H   LINE      ---      ---       #831
      00FF7046H   LINE      ---      ---       #832
      00FF704DH   LINE      ---      ---       #833
      00FF7051H   LINE      ---      ---       #835
      00FF7056H   LINE      ---      ---       #838
      00FF7059H   LINE      ---      ---       #839
      00FF7059H   LINE      ---      ---       #840
      00FF705DH   LINE      ---      ---       #843
      00FF7061H   LINE      ---      ---       #846
      00FF7079H   LINE      ---      ---       #848
      0000AF94H   SYMBOL    EDATA    BYTE      ModemType
      R13         REGSYM    ---      BYTE      rfkBandType
L251 LINKER/LOCATER V4.66.93.0                                                        12/18/2023  14:26:43  PAGE 77


      R12         REGSYM    ---      BYTE      ClockMode
      ---         BLOCKEND  CODE     ---       LVL=1
      00FF7083H   LINE      ---      ---       #849
      00FF7083H   LINE      CODE     ---       #849

      00FF719FH   BLOCK     CODE     ---       LVL=0
      00FF719FH   LINE      ---      ---       #852
      00FF71A3H   LINE      ---      ---       #858
      00FF71A6H   LINE      ---      ---       #865
      00FF71AAH   LINE      ---      ---       #867
      00FF71B3H   LINE      ---      ---       #869
      00FF71B7H   LINE      ---      ---       #870
      00FF71BAH   LINE      ---      ---       #872
      00FF71C8H   LINE      ---      ---       #874
      00FF71CEH   LINE      ---      ---       #875
      00FF71D6H   LINE      ---      ---       #876
      00FF71D6H   LINE      ---      ---       #877
      00FF71DEH   LINE      ---      ---       #878
      00FF71DFH   LINE      ---      ---       #879
      00FF71E1H   LINE      ---      ---       #882
      00FF71E7H   LINE      ---      ---       #883
      00FF71EDH   LINE      ---      ---       #890
      00FF71EDH   LINE      ---      ---       #891
      00FF71EDH   LINE      ---      ---       #893
      00FF71F7H   LINE      ---      ---       #894
      REG=7       REGSYM    ---      ---       pCmdAddress
      ---         BLOCKEND  ---      ---       LVL=0

      00FF37B5H   BLOCK     CODE     ---       LVL=0
      00FF37B5H   LINE      ---      ---       #896
      00FF37B5H   LINE      ---      ---       #924
      00FF37B5H   LINE      ---      ---       #928
      ---         BLOCKEND  ---      ---       LVL=0

      00FF36ABH   BLOCK     CODE     ---       LVL=0
      00FF36ABH   LINE      ---      ---       #931
      00FF36ABH   LINE      ---      ---       #932
      REG=3       REGSYM    ---      ---       pCmdAddress
      00FF36ABH   BLOCK     CODE     NEAR LAB  LVL=1
      00FF36ABH   LINE      ---      ---       #947
      00FF36ABH   LINE      ---      ---       #949
      00FF36B3H   LINE      ---      ---       #951
      REG=3       REGSYM    ---      ---       pCmdIn
      ---         BLOCKEND  CODE     ---       LVL=1
      ---         BLOCKEND  CODE     ---       LVL=0

      00FF325DH   BLOCK     CODE     ---       LVL=0
      00FF325DH   LINE      ---      ---       #957
      00FF3261H   LINE      ---      ---       #958
      REG=7       REGSYM    ---      ---       pCmdAddress
      00FF3261H   BLOCK     CODE     NEAR LAB  LVL=1
      00FF3261H   LINE      ---      ---       #969
      00FF3264H   LINE      ---      ---       #973
      00FF327EH   LINE      ---      ---       #976
      00FF3282H   LINE      ---      ---       #977
      00FF328EH   LINE      ---      ---       #980
      00FF3294H   LINE      ---      ---       #981
      00FF32A1H   LINE      ---      ---       #984
      00FF32A1H   LINE      ---      ---       #985
      00FF32B1H   LINE      ---      ---       #987
      00FF32B1H   LINE      ---      ---       #988
      00FF32B1H   LINE      ---      ---       #989
      00FF32BDH   LINE      ---      ---       #990
      00FF32BFH   LINE      ---      ---       #993
      00FF32BFH   LINE      ---      ---       #994
L251 LINKER/LOCATER V4.66.93.0                                                        12/18/2023  14:26:43  PAGE 78


      00FF32D7H   LINE      ---      ---       #996
      00FF32D7H   LINE      ---      ---       #997
      00FF32D7H   LINE      ---      ---       #998
      00FF32DFH   LINE      ---      ---       #999
      00FF32DFH   LINE      ---      ---       #1001
      00FF32DFH   LINE      ---      ---       #1002
      00FF32DFH   LINE      ---      ---       #1004
      00FF32DFH   LINE      ---      ---       #1005
      00FF32F5H   LINE      ---      ---       #1007
      00FF32F5H   LINE      ---      ---       #1008
      00FF32F5H   LINE      ---      ---       #1009
      00FF32FAH   LINE      ---      ---       #1011
      00FF32FEH   LINE      ---      ---       #1012
      00FF3304H   LINE      ---      ---       #1013
      00FF3312H   LINE      ---      ---       #1014
      00FF3319H   LINE      ---      ---       #1015
      00FF331FH   LINE      ---      ---       #1016
      00FF3323H   LINE      ---      ---       #1017
      00FF3327H   LINE      ---      ---       #1018
      00FF332DH   LINE      ---      ---       #1022
      00FF3335H   LINE      ---      ---       #1024
      00FF3335H   LINE      ---      ---       #1025
      00FF3335H   SYMBOL    CODE     NEAR LAB  DONE?1940?mac_cmd_hdlr
      0000AF78H   SYMBOL    EDATA    ---       pCmdIn
      DR12        REGSYM    ---      DWORD     freqTmp
      0000AF7AH   SYMBOL    EDATA    BYTE      result
      00FF334BH   SYMBOL    CODE     NEAR LAB  DONE?1940
      ---         BLOCKEND  CODE     ---       LVL=1
      00FF3340H   LINE      ---      ---       #1026
      00FF3340H   LINE      CODE     ---       #1026

      00FF712AH   BLOCK     CODE     ---       LVL=0
      00FF712AH   LINE      ---      ---       #1055
      00FF712CH   LINE      ---      ---       #1064
      00FF712CH   LINE      ---      ---       #1067
      00FF7130H   LINE      ---      ---       #1069
      00FF7138H   LINE      ---      ---       #1070
      00FF713CH   LINE      ---      ---       #1071
      00FF7142H   LINE      ---      ---       #1072
      00FF7147H   LINE      ---      ---       #1082
      00FF714AH   LINE      ---      ---       #1085
      00FF7162H   LINE      ---      ---       #1086
      00FF7172H   LINE      ---      ---       #1087
      00FF7184H   LINE      ---      ---       #1088
      00FF7192H   LINE      ---      ---       #1091
      00FF719CH   LINE      ---      ---       #1092
      ---         BLOCKEND  ---      ---       LVL=0

      00FF7513H   BLOCK     CODE     ---       LVL=0
      00FF7513H   LINE      ---      ---       #1094
      00FF7517H   LINE      ---      ---       #1096
      00FF751EH   LINE      ---      ---       #1097
      00FF7526H   LINE      ---      ---       #1098
      00FF752EH   LINE      ---      ---       #1099
      00FF7535H   LINE      ---      ---       #1100
      REG=0       REGSYM    ---      ---       aValue
      REG=1       REGSYM    ---      ---       aBuffer
      ---         BLOCKEND  ---      ---       LVL=0

      00FF72EAH   BLOCK     CODE     ---       LVL=0
      00FF72EAH   LINE      ---      ---       #1103
      00FF72EEH   LINE      ---      ---       #1104
      REG=7       REGSYM    ---      ---       pCmdAddress
      00FF72EEH   BLOCK     CODE     NEAR LAB  LVL=1
      00FF72EEH   LINE      ---      ---       #1106
L251 LINKER/LOCATER V4.66.93.0                                                        12/18/2023  14:26:43  PAGE 79


      00FF72F2H   LINE      ---      ---       #1111
      00FF72F6H   LINE      ---      ---       #1113
      00FF72FDH   LINE      ---      ---       #1114
      00FF72FFH   LINE      ---      ---       #1117
      00FF7314H   LINE      ---      ---       #1119
      00FF731FH   LINE      ---      ---       #1120
      00FF7321H   LINE      ---      ---       #1122
      00FF7334H   LINE      ---      ---       #1123
      00FF7336H   LINE      ---      ---       #1125
      00FF7349H   LINE      ---      ---       #1126
      00FF734BH   LINE      ---      ---       #1128
      00FF7356H   LINE      ---      ---       #1129
      00FF7358H   LINE      ---      ---       #1131
      00FF7361H   LINE      ---      ---       #1160
      R6          REGSYM    ---      BYTE      Pannum
      ---         BLOCKEND  CODE     ---       LVL=1
      00FF7366H   LINE      ---      ---       #1161
      00FF7366H   LINE      CODE     ---       #1161

      00FF73A0H   BLOCK     CODE     ---       LVL=0
      00FF73A0H   LINE      ---      ---       #1164
      00FF73A4H   LINE      ---      ---       #1166
      00FF73BFH   LINE      ---      ---       #1169
      00FF73CCH   LINE      ---      ---       #1172
      00FF73D4H   LINE      ---      ---       #1175
      00FF73DEH   LINE      ---      ---       #1176
      REG=7       REGSYM    ---      ---       pCmdAddress
      ---         BLOCKEND  ---      ---       LVL=0

      00FF73E1H   BLOCK     CODE     ---       LVL=0
      00FF73E1H   LINE      ---      ---       #1178
      00FF73E5H   LINE      ---      ---       #1180
      00FF7400H   LINE      ---      ---       #1183
      00FF740DH   LINE      ---      ---       #1185
      00FF7417H   LINE      ---      ---       #1186
      REG=7       REGSYM    ---      ---       pCmdAddress
      ---         BLOCKEND  ---      ---       LVL=0

      00FF3FD1H   BLOCK     CODE     ---       LVL=0
      00FF3FD1H   LINE      ---      ---       #1188
      00FF3FD1H   LINE      ---      ---       #1190
      00FF3FD9H   LINE      ---      ---       #1191
      REG=3       REGSYM    ---      ---       pCmdAddress
      ---         BLOCKEND  ---      ---       LVL=0

      00FF3E95H   BLOCK     CODE     ---       LVL=0
      00FF3E95H   LINE      ---      ---       #1194
      00FF3E99H   LINE      ---      ---       #1195
      REG=7       REGSYM    ---      ---       pCmdAddress
      00FF3E99H   BLOCK     CODE     NEAR LAB  LVL=1
      00FF3E99H   LINE      ---      ---       #1200
      00FF3E9CH   LINE      ---      ---       #1202
      00FF3EA6H   LINE      ---      ---       #1212
      R6          REGSYM    ---      BYTE      Pannum
      ---         BLOCKEND  CODE     ---       LVL=1
      00FF3EB0H   LINE      ---      ---       #1214
      00FF3EB0H   LINE      CODE     ---       #1214

      00FF70EEH   BLOCK     CODE     ---       LVL=0
      00FF70EEH   LINE      ---      ---       #1346
      00FF70F2H   LINE      ---      ---       #1347
      REG=7       REGSYM    ---      ---       pCmdAddress
      00FF70F2H   BLOCK     CODE     NEAR LAB  LVL=1
      00FF70F2H   LINE      ---      ---       #1360
      00FF70F5H   LINE      ---      ---       #1364
L251 LINKER/LOCATER V4.66.93.0                                                        12/18/2023  14:26:43  PAGE 80


      00FF70F7H   LINE      ---      ---       #1365
      00FF70FFH   LINE      ---      ---       #1368
      00FF7105H   LINE      ---      ---       #1370
      00FF711DH   LINE      ---      ---       #1377
      REG=3       REGSYM    ---      ---       pCmdIn
      R15         REGSYM    ---      BYTE      rfkBandType
      ---         BLOCKEND  CODE     ---       LVL=1
      00FF7127H   LINE      ---      ---       #1378
      00FF7127H   LINE      CODE     ---       #1378

      00FF741AH   BLOCK     CODE     ---       LVL=0
      00FF741AH   LINE      ---      ---       #1380
      00FF741EH   LINE      ---      ---       #1386
      00FF7421H   LINE      ---      ---       #1393
      00FF7425H   LINE      ---      ---       #1395
      00FF742CH   LINE      ---      ---       #1396
      00FF7432H   LINE      ---      ---       #1399
      00FF743EH   LINE      ---      ---       #1400
      00FF7450H   LINE      ---      ---       #1403
      00FF7455H   LINE      ---      ---       #1404
      REG=7       REGSYM    ---      ---       pCmdAddress
      ---         BLOCKEND  ---      ---       LVL=0

      00FF5540H   BLOCK     CODE     ---       LVL=0
      00FF5540H   LINE      ---      ---       #1405
      REG=7       REGSYM    ---      ---       pCmdAddress
      00FF5544H   BLOCK     CODE     NEAR LAB  LVL=1
      00FF5547H   LINE      ---      ---       #1421
      00FF554BH   LINE      ---      ---       #1423
      00FF554EH   LINE      ---      ---       #1440
      00FF5550H   LINE      ---      ---       #1441
      00FF555AH   LINE      ---      ---       #1442
      00FF555DH   LINE      ---      ---       #1443
      00FF5569H   LINE      ---      ---       #1445
      00FF556CH   LINE      ---      ---       #1446
      00FF5570H   LINE      ---      ---       #1447
      00FF5573H   LINE      ---      ---       #1448
      00FF5579H   LINE      ---      ---       #1450
      00FF5581H   LINE      ---      ---       #1453
      R11         REGSYM    ---      BYTE      crcType
      R11         REGSYM    ---      BYTE      whiteningEn
      R13         REGSYM    ---      BYTE      result
      ---         BLOCKEND  CODE     ---       LVL=1
      00FF558BH   LINE      ---      ---       #1454
      00FF558BH   LINE      CODE     ---       #1454

      00FF3E08H   BLOCK     CODE     ---       LVL=0
      00FF3E08H   LINE      ---      ---       #1506
      00FF3E08H   LINE      ---      ---       #1517
      00FF3E0BH   LINE      ---      ---       #1521
      00FF3E0BH   LINE      ---      ---       #1524
      00FF3E10H   LINE      ---      ---       #1526
      00FF3E26H   LINE      ---      ---       #1533
      ---         BLOCKEND  ---      ---       LVL=0

      00FF723CH   BLOCK     CODE     ---       LVL=0
      00FF723CH   LINE      ---      ---       #1536
      00FF7240H   LINE      ---      ---       #1537
      REG=7       REGSYM    ---      ---       pCmdAddress
      00FF7240H   BLOCK     CODE     NEAR LAB  LVL=1
      00FF7240H   LINE      ---      ---       #1544
      00FF7243H   LINE      ---      ---       #1551
      00FF7245H   LINE      ---      ---       #1553
      00FF724EH   LINE      ---      ---       #1555
      00FF725AH   LINE      ---      ---       #1556
L251 LINKER/LOCATER V4.66.93.0                                                        12/18/2023  14:26:43  PAGE 81


      00FF7264H   LINE      ---      ---       #1558
      00FF7272H   LINE      ---      ---       #1559
      00FF7286H   LINE      ---      ---       #1560
      00FF729AH   LINE      ---      ---       #1565
      00FF729CH   LINE      ---      ---       #1568
      00FF72A0H   LINE      ---      ---       #1570
      00FF72A6H   LINE      ---      ---       #1572
      00FF72ABH   LINE      ---      ---       #1573
      00FF72B2H   LINE      ---      ---       #1575
      00FF72BAH   LINE      ---      ---       #1576
      00FF72BAH   LINE      ---      ---       #1578
      00FF72C4H   LINE      ---      ---       #1580
      00FF72D0H   LINE      ---      ---       #1581
      00FF72E2H   LINE      ---      ---       #1586
      00FF72E2H   LINE      ---      ---       #1588
      REG=6       REGSYM    ---      ---       pCmdIn
      ---         BLOCKEND  CODE     ---       LVL=1
      00FF72E7H   LINE      ---      ---       #1589
      00FF72E7H   LINE      CODE     ---       #1589

      00FF5179H   BLOCK     CODE     ---       LVL=0
      00FF5179H   LINE      ---      ---       #1591
      00FF517DH   LINE      ---      ---       #1592
      REG=7       REGSYM    ---      ---       pCmdAddress
      00FF517DH   BLOCK     CODE     NEAR LAB  LVL=1
      00FF517DH   LINE      ---      ---       #1599
      00FF5180H   LINE      ---      ---       #1603
      00FF519BH   LINE      ---      ---       #1606
      00FF519BH   LINE      ---      ---       #1609
      00FF51A1H   LINE      ---      ---       #1610
      00FF51A5H   LINE      ---      ---       #1612
      00FF51AFH   LINE      ---      ---       #1614
      00FF51BDH   LINE      ---      ---       #1615
      00FF51D6H   LINE      ---      ---       #1616
      00FF51EFH   LINE      ---      ---       #1624
      REG=7       REGSYM    ---      ---       pCmdIn
      ---         BLOCKEND  CODE     ---       LVL=1
      00FF51F9H   LINE      ---      ---       #1625
      00FF51F9H   LINE      CODE     ---       #1625

      00FF70B4H   BLOCK     CODE     ---       LVL=0
      00FF70B4H   LINE      ---      ---       #1800
      00FF70B8H   LINE      ---      ---       #1801
      REG=7       REGSYM    ---      ---       pCmdAddress
      00FF70B8H   BLOCK     CODE     NEAR LAB  LVL=1
      00FF70B8H   LINE      ---      ---       #1813
      00FF70BBH   LINE      ---      ---       #1820
      00FF70BFH   LINE      ---      ---       #1822
      00FF70C4H   LINE      ---      ---       #1825
      00FF70C7H   LINE      ---      ---       #1826
      00FF70C7H   LINE      ---      ---       #1829
      00FF70CBH   LINE      ---      ---       #1831
      00FF70E1H   LINE      ---      ---       #1837
      R15         REGSYM    ---      BYTE      rfkBandType
      ---         BLOCKEND  CODE     ---       LVL=1
      00FF70EBH   LINE      ---      ---       #1838
      00FF70EBH   LINE      CODE     ---       #1838

      00FF71FAH   BLOCK     CODE     ---       LVL=0
      00FF71FAH   LINE      ---      ---       #1840
      00FF71FEH   LINE      ---      ---       #1841
      REG=7       REGSYM    ---      ---       pCmdAddress
      00FF71FEH   BLOCK     CODE     NEAR LAB  LVL=1
      00FF71FEH   LINE      ---      ---       #1848
      00FF7201H   LINE      ---      ---       #1855
L251 LINKER/LOCATER V4.66.93.0                                                        12/18/2023  14:26:43  PAGE 82


      00FF7205H   LINE      ---      ---       #1857
      00FF720CH   LINE      ---      ---       #1858
      00FF7212H   LINE      ---      ---       #1859
      00FF7216H   LINE      ---      ---       #1860
      00FF7222H   LINE      ---      ---       #1861
      00FF7234H   LINE      ---      ---       #1863
      R15         REGSYM    ---      BYTE      modIdx
      ---         BLOCKEND  CODE     ---       LVL=1
      00FF7239H   LINE      ---      ---       #1864
      00FF7239H   LINE      CODE     ---       #1864

      00FF54E7H   BLOCK     CODE     ---       LVL=0
      00FF54E7H   LINE      ---      ---       #1866
      REG=7       REGSYM    ---      ---       pCmdAddress
      00FF54EBH   BLOCK     CODE     NEAR LAB  LVL=1
      00FF54EEH   LINE      ---      ---       #1882
      00FF54F2H   LINE      ---      ---       #1884
      00FF54F5H   LINE      ---      ---       #1885
      00FF54F7H   LINE      ---      ---       #1886
      00FF5501H   LINE      ---      ---       #1887
      00FF5504H   LINE      ---      ---       #1888
      00FF5510H   LINE      ---      ---       #1890
      00FF5513H   LINE      ---      ---       #1892
      00FF5517H   LINE      ---      ---       #1893
      00FF551AH   LINE      ---      ---       #1894
      00FF5520H   LINE      ---      ---       #1896
      00FF5528H   LINE      ---      ---       #1902
      R11         REGSYM    ---      BYTE      crcType
      R11         REGSYM    ---      BYTE      whiteningEn
      R13         REGSYM    ---      BYTE      result
      ---         BLOCKEND  CODE     ---       LVL=1
      00FF5532H   LINE      ---      ---       #1903
      00FF5532H   LINE      CODE     ---       #1903

      00FF3EE5H   BLOCK     CODE     ---       LVL=0
      00FF3EE5H   LINE      ---      ---       #1905
      00FF3EE9H   LINE      ---      ---       #1906
      REG=7       REGSYM    ---      ---       pCmdAddress
      00FF3EE9H   BLOCK     CODE     NEAR LAB  LVL=1
      00FF3EE9H   LINE      ---      ---       #1913
      00FF3EECH   LINE      ---      ---       #1920
      00FF3EF0H   LINE      ---      ---       #1922
      00FF3EF3H   LINE      ---      ---       #1923
      00FF3EF5H   LINE      ---      ---       #1929
      R11         REGSYM    ---      BYTE      preambleLen
      ---         BLOCKEND  CODE     ---       LVL=1
      00FF3EFFH   LINE      ---      ---       #1930
      00FF3EFFH   LINE      CODE     ---       #1930

      00FF50BDH   BLOCK     CODE     ---       LVL=0
      00FF50BDH   LINE      ---      ---       #1932
      00FF50C1H   LINE      ---      ---       #1933
      REG=7       REGSYM    ---      ---       pCmdAddress
      00FF50C1H   BLOCK     CODE     NEAR LAB  LVL=1
      00FF50C1H   LINE      ---      ---       #1940
      00FF50C4H   LINE      ---      ---       #1944
      00FF50DFH   LINE      ---      ---       #1945
      00FF50E3H   LINE      ---      ---       #1947
      00FF50ECH   LINE      ---      ---       #1948
      00FF50F4H   LINE      ---      ---       #1949
      00FF50FCH   LINE      ---      ---       #1955
      DR12        REGSYM    ---      DWORD     sfdContent
      ---         BLOCKEND  CODE     ---       LVL=1
      00FF5106H   LINE      ---      ---       #1956
      00FF5106H   LINE      CODE     ---       #1956
L251 LINKER/LOCATER V4.66.93.0                                                        12/18/2023  14:26:43  PAGE 83



      00FF37E1H   BLOCK     CODE     ---       LVL=0
      00FF37E1H   LINE      ---      ---       #1958
      00FF37E1H   LINE      ---      ---       #1959
      REG=3       REGSYM    ---      ---       pCmdAddress
      00FF37E1H   BLOCK     CODE     NEAR LAB  LVL=1
      00FF37E1H   LINE      ---      ---       #1968
      00FF37E1H   LINE      ---      ---       #1970
      00FF37E9H   LINE      ---      ---       #1976
      REG=3       REGSYM    ---      ---       pCmdIn
      ---         BLOCKEND  CODE     ---       LVL=1
      ---         BLOCKEND  CODE     ---       LVL=0

      00FF6D9CH   BLOCK     CODE     ---       LVL=0
      00FF6D9CH   LINE      ---      ---       #2065
      00FF6DA0H   LINE      ---      ---       #2066
      REG=7       REGSYM    ---      ---       pCmdAddress
      00FF6DA0H   BLOCK     CODE     NEAR LAB  LVL=1
      00FF6DA0H   LINE      ---      ---       #2077
      00FF6DADH   LINE      ---      ---       #2087
      00FF6DB0H   LINE      ---      ---       #2092
      00FF6DCBH   LINE      ---      ---       #2095
      00FF6DCDH   LINE      ---      ---       #2096
      00FF6DD5H   LINE      ---      ---       #2099
      00FF6DDBH   LINE      ---      ---       #2100
      00FF6DE8H   LINE      ---      ---       #2103
      00FF6DE8H   LINE      ---      ---       #2104
      00FF6DF8H   LINE      ---      ---       #2106
      00FF6DF8H   LINE      ---      ---       #2107
      00FF6DF8H   LINE      ---      ---       #2109
      00FF6E04H   LINE      ---      ---       #2111
      00FF6E06H   LINE      ---      ---       #2114
      00FF6E06H   LINE      ---      ---       #2115
      00FF6E1EH   LINE      ---      ---       #2117
      00FF6E1EH   LINE      ---      ---       #2118
      00FF6E1EH   LINE      ---      ---       #2120
      00FF6E26H   LINE      ---      ---       #2122
      00FF6E26H   LINE      ---      ---       #2124
      00FF6E26H   LINE      ---      ---       #2125
      00FF6E26H   LINE      ---      ---       #2127
      00FF6E26H   LINE      ---      ---       #2128
      00FF6E2BH   LINE      ---      ---       #2130
      00FF6E2FH   LINE      ---      ---       #2131
      00FF6E33H   LINE      ---      ---       #2133
      00FF6E3AH   LINE      ---      ---       #2135
      00FF6E4FH   LINE      ---      ---       #2137
      00FF6E71H   LINE      ---      ---       #2138
      00FF6E7CH   LINE      ---      ---       #2139
      00FF6E7CH   LINE      ---      ---       #2145
      00FF6E7CH   LINE      ---      ---       #2146
      00FF6E7CH   SYMBOL    CODE     NEAR LAB  DONE?3941?mac_cmd_hdlr
      REG=3       REGSYM    ---      ---       pCmdIn
      DR12        REGSYM    ---      DWORD     freqTmp
      0000AF51H   SYMBOL    EDATA    BYTE      result
      0000AF52H   SYMBOL    EDATA    WORD      bufferAddress_LOCAL
      REG=3       REGSYM    ---      ---       pOutput
      0000AF54H   SYMBOL    EDATA    BYTE      channelTmp
      00FF6E8EH   SYMBOL    CODE     NEAR LAB  DONE?3941
      ---         BLOCKEND  CODE     ---       LVL=1
      00FF6E88H   LINE      ---      ---       #2147
      00FF6E88H   LINE      CODE     ---       #2147

      00FF3713H   BLOCK     CODE     ---       LVL=0
      00FF3713H   LINE      ---      ---       #2151
      00FF3717H   LINE      ---      ---       #2156
L251 LINKER/LOCATER V4.66.93.0                                                        12/18/2023  14:26:43  PAGE 84


      00FF371AH   LINE      ---      ---       #2159
      00FF3734H   LINE      ---      ---       #2160
      00FF3738H   LINE      ---      ---       #2162
      00FF3743H   LINE      ---      ---       #2169
      00FF3749H   LINE      ---      ---       #2170
      00FF3751H   LINE      ---      ---       #2172
      00FF3758H   LINE      ---      ---       #2173
      REG=7       REGSYM    ---      ---       pCmdAddress
      ---         BLOCKEND  ---      ---       LVL=0

      00FF36D6H   BLOCK     CODE     ---       LVL=0
      00FF36D6H   LINE      ---      ---       #2177
      00FF36DAH   LINE      ---      ---       #2182
      00FF36DEH   LINE      ---      ---       #2185
      00FF36EEH   LINE      ---      ---       #2186
      00FF36F3H   LINE      ---      ---       #2189
      00FF36FAH   LINE      ---      ---       #2190
      00FF3700H   LINE      ---      ---       #2194
      00FF3709H   LINE      ---      ---       #2195
      00FF3710H   LINE      ---      ---       #2196
      REG=7       REGSYM    ---      ---       pCmdAddress
      ---         BLOCKEND  ---      ---       LVL=0

      00FF166AH   BLOCK     CODE     ---       LVL=0
      00FF166EH   LINE      ---      ---       #2215
      00FF1672H   LINE      ---      ---       #2216
      00FF166AH   SYMBOL    CODE     NEAR LAB  ?L?COM0033
      00FF1672H   BLOCK     CODE     NEAR LAB  LVL=1
      00FF1672H   LINE      ---      ---       #2220
      00FF1672H   LINE      ---      ---       #2222
      00FF1674H   LINE      ---      ---       #2223
      00FF167AH   LINE      ---      ---       #2227
      00FF167EH   LINE      ---      ---       #2230
      00FF1680H   LINE      ---      ---       #2232
      00FF1691H   LINE      ---      ---       #2234
      00FF1691H   LINE      ---      ---       #2235
      00FF1691H   LINE      ---      ---       #2237
      00FF1691H   LINE      ---      ---       #2238
      00FF1694H   LINE      ---      ---       #2239
      00FF1696H   LINE      ---      ---       #2240
      00FF1698H   LINE      ---      ---       #2243
      00FF1698H   LINE      ---      ---       #2247
      00FF169AH   LINE      ---      ---       #2250
      00FF169DH   LINE      ---      ---       #2251
      00FF16A8H   LINE      ---      ---       #2252
      00FF16ABH   LINE      ---      ---       #2253
      00FF16B0H   LINE      ---      ---       #2254
      00FF16B5H   LINE      ---      ---       #2255
      00FF16BBH   LINE      ---      ---       #2256
      00FF16D9H   LINE      ---      ---       #2258
      00FF16DCH   LINE      ---      ---       #2259
      00FF16E7H   LINE      ---      ---       #2260
      00FF16E7H   LINE      ---      ---       #2261
      00FF16EDH   LINE      ---      ---       #2263
      00FF16EFH   LINE      ---      ---       #2272
      00FF16F1H   LINE      ---      ---       #2275
      00FF16F1H   LINE      ---      ---       #2276
      00FF16F6H   LINE      ---      ---       #2277
      00FF16F6H   LINE      ---      ---       #2278
      00FF16FBH   LINE      ---      ---       #2279
      00FF16FBH   LINE      ---      ---       #2320
      00FF16FBH   LINE      ---      ---       #2321
      00FF16FBH   LINE      ---      ---       #2322
      00FF16FBH   LINE      ---      ---       #2328
      00FF16FEH   LINE      ---      ---       #2334
L251 LINKER/LOCATER V4.66.93.0                                                        12/18/2023  14:26:43  PAGE 85


      00FF1700H   LINE      ---      ---       #2341
      00FF1705H   LINE      ---      ---       #2343
      00FF1707H   LINE      ---      ---       #2344
      00FF1709H   LINE      ---      ---       #2347
      00FF170CH   LINE      ---      ---       #2348
      00FF1710H   LINE      ---      ---       #2349
      00FF1714H   LINE      ---      ---       #2351
      00FF172AH   LINE      ---      ---       #2356
      00FF172DH   LINE      ---      ---       #2358
      00FF1733H   LINE      ---      ---       #2359
      R10         REGSYM    ---      BYTE      MacState
      R13         REGSYM    ---      BYTE      queueClr
      WR14        REGSYM    ---      WORD      macFunEventQueue
      ---         BLOCKEND  CODE     ---       LVL=1
      00FF1737H   LINE      ---      ---       #2370
      00FF1737H   LINE      CODE     ---       #2370

      00FF33D3H   BLOCK     CODE     ---       LVL=0
      00FF33D3H   LINE      ---      ---       #2373
      00FF33D5H   LINE      ---      ---       #2375
      00FF3442H   LINE      ---      ---       #2377
      00FF3442H   LINE      ---      ---       #2378
      00FF3447H   LINE      ---      ---       #2379
      00FF3447H   LINE      ---      ---       #2381
      00FF3447H   LINE      ---      ---       #2382
      00FF344BH   LINE      ---      ---       #2383
      00FF344BH   LINE      ---      ---       #2385
      00FF344BH   LINE      ---      ---       #2386
      00FF344FH   LINE      ---      ---       #2387
      00FF344FH   LINE      ---      ---       #2389
      00FF344FH   LINE      ---      ---       #2390
      00FF3453H   LINE      ---      ---       #2391
      00FF3453H   LINE      ---      ---       #2394
      00FF3453H   LINE      ---      ---       #2395
      00FF3458H   LINE      ---      ---       #2396
      00FF3458H   LINE      ---      ---       #2397
      00FF3458H   LINE      ---      ---       #2398
      00FF345DH   LINE      ---      ---       #2399
      00FF345DH   LINE      ---      ---       #2400
      00FF345DH   LINE      ---      ---       #2401
      00FF3462H   LINE      ---      ---       #2402
      00FF3462H   LINE      ---      ---       #2403
      00FF3462H   LINE      ---      ---       #2404
      00FF3466H   LINE      ---      ---       #2405
      00FF3466H   LINE      ---      ---       #2406
      00FF3466H   LINE      ---      ---       #2407
      00FF346AH   LINE      ---      ---       #2408
      00FF346AH   LINE      ---      ---       #2409
      00FF346AH   LINE      ---      ---       #2410
      00FF346EH   LINE      ---      ---       #2411
      00FF346EH   LINE      ---      ---       #2414
      00FF346EH   LINE      ---      ---       #2415
      00FF3473H   LINE      ---      ---       #2416
      00FF3473H   LINE      ---      ---       #2417
      00FF3473H   LINE      ---      ---       #2418
      00FF3478H   LINE      ---      ---       #2419
      00FF3478H   LINE      ---      ---       #2420
      00FF3478H   LINE      ---      ---       #2421
      00FF3478H   LINE      ---      ---       #2422
      00FF347AH   LINE      ---      ---       #2424
      00FF347AH   LINE      ---      ---       #2425
      00FF347EH   LINE      ---      ---       #2426
      00FF347EH   LINE      ---      ---       #2427
      00FF347EH   LINE      ---      ---       #2428
      00FF3483H   LINE      ---      ---       #2429
L251 LINKER/LOCATER V4.66.93.0                                                        12/18/2023  14:26:43  PAGE 86


      00FF3483H   LINE      ---      ---       #2431
      00FF3483H   LINE      ---      ---       #2432
      00FF3488H   LINE      ---      ---       #2433
      00FF3488H   LINE      ---      ---       #2434
      00FF3488H   LINE      ---      ---       #2435
      00FF348CH   LINE      ---      ---       #2436
      00FF348CH   LINE      ---      ---       #2437
      00FF348CH   LINE      ---      ---       #2438
      00FF3490H   LINE      ---      ---       #2439
      00FF3490H   LINE      ---      ---       #2442
      00FF3490H   LINE      ---      ---       #2443
      00FF3493H   LINE      ---      ---       #2444
      00FF3497H   LINE      ---      ---       #2445
      00FF3497H   LINE      ---      ---       #2447
      00FF3497H   LINE      ---      ---       #2448
      00FF349CH   LINE      ---      ---       #2449
      00FF349CH   LINE      ---      ---       #2450
      00FF349CH   LINE      ---      ---       #2451
      R11         REGSYM    ---      BYTE      cmdId
      REG=4       REGSYM    ---      ---       pCmdAddress
      REG=2       REGSYM    ---      ---       pCmdCnfStatus
      ---         BLOCKEND  ---      ---       LVL=0

      00FF3E64H   BLOCK     CODE     ---       LVL=0
      00FF3E64H   LINE      ---      ---       #2454
      00FF3E66H   LINE      ---      ---       #2456
      00FF3E7FH   LINE      ---      ---       #2458
      00FF3E7FH   LINE      ---      ---       #2459
      00FF3E82H   LINE      ---      ---       #2460
      00FF3E82H   LINE      ---      ---       #2461
      00FF3E82H   LINE      ---      ---       #2462
      00FF3E85H   LINE      ---      ---       #2463
      00FF3E85H   LINE      ---      ---       #2464
      00FF3E85H   LINE      ---      ---       #2465
      00FF3E88H   LINE      ---      ---       #2466
      00FF3E88H   LINE      ---      ---       #2467
      00FF3E88H   LINE      ---      ---       #2468
      00FF3E8BH   LINE      ---      ---       #2469
      00FF3E8BH   LINE      ---      ---       #2470
      00FF3E8BH   LINE      ---      ---       #2471
      00FF3E8DH   LINE      ---      ---       #2472
      00FF3E8DH   LINE      ---      ---       #2473
      00FF3E8DH   LINE      ---      ---       #2474
      00FF3E8FH   LINE      ---      ---       #2475
      00FF3E8FH   LINE      ---      ---       #2503
      00FF3E8FH   LINE      ---      ---       #2504
      00FF3E94H   LINE      ---      ---       #2505
      00FF3E94H   LINE      ---      ---       #2506
      00FF3E94H   LINE      ---      ---       #2507
      R3          REGSYM    ---      BYTE      cmdId
      REG=3       REGSYM    ---      ---       pCmdAddress
      REG=2       REGSYM    ---      ---       pCmdCnfStatus
      ---         BLOCKEND  ---      ---       LVL=0

      00FF3BBBH   BLOCK     CODE     ---       LVL=0
      00FF3BBBH   LINE      ---      ---       #2511
      00FF3BBDH   LINE      ---      ---       #2513
      00FF3BC9H   LINE      ---      ---       #2515
      00FF3BC9H   LINE      ---      ---       #2516
      00FF3BCBH   LINE      ---      ---       #2517
      00FF3BCBH   LINE      ---      ---       #2518
      00FF3BCBH   LINE      ---      ---       #2519
      00FF3BCEH   LINE      ---      ---       #2520
      00FF3BCEH   LINE      ---      ---       #2521
      00FF3BCEH   LINE      ---      ---       #2522
L251 LINKER/LOCATER V4.66.93.0                                                        12/18/2023  14:26:43  PAGE 87


      00FF3BD1H   LINE      ---      ---       #2523
      00FF3BD1H   LINE      ---      ---       #2594
      00FF3BD1H   LINE      ---      ---       #2595
      00FF3BD6H   LINE      ---      ---       #2596
      00FF3BD6H   LINE      ---      ---       #2597
      00FF3BD6H   LINE      ---      ---       #2599
      R3          REGSYM    ---      BYTE      cmdId
      REG=3       REGSYM    ---      ---       pCmdAddress
      REG=2       REGSYM    ---      ---       pCmdCnfStatus
      ---         BLOCKEND  ---      ---       LVL=0

      00FF3EB3H   BLOCK     CODE     ---       LVL=0
      00FF3EB3H   LINE      ---      ---       #2603
      00FF3EB5H   LINE      ---      ---       #2605
      00FF3ECEH   LINE      ---      ---       #2607
      00FF3ECEH   LINE      ---      ---       #2608
      00FF3ED1H   LINE      ---      ---       #2609
      00FF3ED1H   LINE      ---      ---       #2610
      00FF3ED1H   LINE      ---      ---       #2611
      00FF3ED4H   LINE      ---      ---       #2612
      00FF3ED4H   LINE      ---      ---       #2613
      00FF3ED4H   LINE      ---      ---       #2614
      00FF3ED7H   LINE      ---      ---       #2615
      00FF3ED7H   LINE      ---      ---       #2616
      00FF3ED7H   LINE      ---      ---       #2617
      00FF3ED9H   LINE      ---      ---       #2618
      00FF3ED9H   LINE      ---      ---       #2619
      00FF3ED9H   LINE      ---      ---       #2620
      00FF3EDCH   LINE      ---      ---       #2621
      00FF3EDCH   LINE      ---      ---       #2622
      00FF3EDCH   LINE      ---      ---       #2623
      00FF3EDFH   LINE      ---      ---       #2624
      00FF3EDFH   LINE      ---      ---       #2625
      00FF3EDFH   LINE      ---      ---       #2626
      00FF3EE4H   LINE      ---      ---       #2627
      00FF3EE4H   LINE      ---      ---       #2628
      00FF3EE4H   LINE      ---      ---       #2630
      R3          REGSYM    ---      BYTE      cmdId
      REG=3       REGSYM    ---      ---       pCmdAddress
      REG=2       REGSYM    ---      ---       pCmdCnfStatus
      ---         BLOCKEND  ---      ---       LVL=0

      00FF3BD7H   BLOCK     CODE     ---       LVL=0
      00FF3BD7H   LINE      ---      ---       #2634
      00FF3BD9H   LINE      ---      ---       #2636
      00FF3BE5H   LINE      ---      ---       #2638
      00FF3BE5H   LINE      ---      ---       #2639
      00FF3BE8H   LINE      ---      ---       #2640
      00FF3BE8H   LINE      ---      ---       #2641
      00FF3BE8H   LINE      ---      ---       #2642
      00FF3BEBH   LINE      ---      ---       #2643
      00FF3BEBH   LINE      ---      ---       #2644
      00FF3BEBH   LINE      ---      ---       #2645
      00FF3BEEH   LINE      ---      ---       #2646
      00FF3BEEH   LINE      ---      ---       #2647
      00FF3BEEH   LINE      ---      ---       #2648
      00FF3BF3H   LINE      ---      ---       #2649
      00FF3BF3H   LINE      ---      ---       #2650
      00FF3BF3H   LINE      ---      ---       #2652
      R3          REGSYM    ---      BYTE      cmdId
      REG=3       REGSYM    ---      ---       pCmdAddress
      REG=2       REGSYM    ---      ---       pCmdCnfStatus
      ---         BLOCKEND  ---      ---       LVL=0

      00FF3B2FH   BLOCK     CODE     ---       LVL=0
L251 LINKER/LOCATER V4.66.93.0                                                        12/18/2023  14:26:43  PAGE 88


      00FF3B2FH   LINE      ---      ---       #2682
      00FF3B31H   LINE      ---      ---       #2684
      00FF3B35H   LINE      ---      ---       #2686
      00FF3B35H   LINE      ---      ---       #2687
      00FF3B37H   LINE      ---      ---       #2688
      00FF3B37H   LINE      ---      ---       #2694
      00FF3B37H   LINE      ---      ---       #2695
      00FF3B3CH   LINE      ---      ---       #2696
      00FF3B3CH   LINE      ---      ---       #2697
      00FF3B3CH   LINE      ---      ---       #2698
      R3          REGSYM    ---      BYTE      cmdId
      REG=3       REGSYM    ---      ---       pCmdAddress
      REG=2       REGSYM    ---      ---       pCmdCnfStatus
      ---         BLOCKEND  ---      ---       LVL=0

      00FF3C7FH   BLOCK     CODE     ---       LVL=0
      00FF3C7FH   LINE      ---      ---       #2701
      00FF3C81H   LINE      ---      ---       #2703
      00FF3CB9H   LINE      ---      ---       #2705
      00FF3CB9H   LINE      ---      ---       #2706
      00FF3CBDH   LINE      ---      ---       #2707
      00FF3CBDH   LINE      ---      ---       #2708
      00FF3CBDH   LINE      ---      ---       #2709
      00FF3CC1H   LINE      ---      ---       #2710
      00FF3CC1H   LINE      ---      ---       #2712
      00FF3CC1H   LINE      ---      ---       #2713
      00FF3CC5H   LINE      ---      ---       #2714
      00FF3CC5H   LINE      ---      ---       #2715
      00FF3CC5H   LINE      ---      ---       #2716
      00FF3CC9H   LINE      ---      ---       #2717
      00FF3CC9H   LINE      ---      ---       #2718
      00FF3CC9H   LINE      ---      ---       #2719
      00FF3CCDH   LINE      ---      ---       #2720
      00FF3CCDH   LINE      ---      ---       #2721
      00FF3CCDH   LINE      ---      ---       #2722
      00FF3CD1H   LINE      ---      ---       #2723
      00FF3CD1H   LINE      ---      ---       #2724
      00FF3CD1H   LINE      ---      ---       #2725
      00FF3CD5H   LINE      ---      ---       #2726
      00FF3CD5H   LINE      ---      ---       #2727
      00FF3CD5H   LINE      ---      ---       #2728
      00FF3CD9H   LINE      ---      ---       #2729
      00FF3CD9H   LINE      ---      ---       #2730
      00FF3CD9H   LINE      ---      ---       #2731
      00FF3CDDH   LINE      ---      ---       #2732
      00FF3CDDH   LINE      ---      ---       #2733
      00FF3CDDH   LINE      ---      ---       #2734
      00FF3CE1H   LINE      ---      ---       #2735
      00FF3CE1H   LINE      ---      ---       #2737
      00FF3CE1H   LINE      ---      ---       #2738
      00FF3CE5H   LINE      ---      ---       #2739
      00FF3CE5H   LINE      ---      ---       #2741
      00FF3CE5H   LINE      ---      ---       #2742
      00FF3CE9H   LINE      ---      ---       #2743
      00FF3CE9H   LINE      ---      ---       #2744
      00FF3CE9H   LINE      ---      ---       #2745
      00FF3CEDH   LINE      ---      ---       #2746
      00FF3CEDH   LINE      ---      ---       #2747
      00FF3CEDH   LINE      ---      ---       #2748
      00FF3CF1H   LINE      ---      ---       #2749
      00FF3CF1H   LINE      ---      ---       #2751
      00FF3CF1H   LINE      ---      ---       #2752
      00FF3CF6H   LINE      ---      ---       #2753
      00FF3CF6H   LINE      ---      ---       #2754
      00FF3CF6H   LINE      ---      ---       #2755
L251 LINKER/LOCATER V4.66.93.0                                                        12/18/2023  14:26:43  PAGE 89


      R11         REGSYM    ---      BYTE      cmdId
      REG=4       REGSYM    ---      ---       pCmdAddress
      REG=2       REGSYM    ---      ---       pCmdCnfStatus
      ---         BLOCKEND  ---      ---       LVL=0

      00FF39A5H   BLOCK     CODE     ---       LVL=0
      00FF39A5H   LINE      ---      ---       #2757
      00FF39A9H   LINE      ---      ---       #2758
      00FF39A9H   BLOCK     CODE     NEAR LAB  LVL=1
      00FF39A9H   LINE      ---      ---       #2763
      00FF39AEH   LINE      ---      ---       #2768
      00FF39B1H   LINE      ---      ---       #2769
      00FF39B4H   LINE      ---      ---       #2772
      00FF39BBH   LINE      ---      ---       #2773
      00FF39BBH   LINE      ---      ---       #2774
      00FF39C1H   LINE      ---      ---       #2782
      00FF39C3H   LINE      ---      ---       #2783
      00FF39C6H   LINE      ---      ---       #2784
      00FF39CAH   LINE      ---      ---       #2785
      00FF39CEH   LINE      ---      ---       #2786
      00FF39E2H   LINE      ---      ---       #2788
      00FF39E2H   LINE      ---      ---       #2790
      00FF39FAH   LINE      ---      ---       #2792
      00FF39FAH   LINE      ---      ---       #2793
      00FF3A0FH   LINE      ---      ---       #2794
      00FF3A1AH   LINE      ---      ---       #2796
      00FF3A1AH   LINE      ---      ---       #2797
      00FF3A1CH   LINE      ---      ---       #2800
      00FF3A1CH   LINE      ---      ---       #2801
      00FF3A31H   LINE      ---      ---       #2802
      00FF3A3BH   LINE      ---      ---       #2804
      00FF3A3BH   LINE      ---      ---       #2805
      00FF3A3DH   LINE      ---      ---       #2809
      00FF3A3DH   LINE      ---      ---       #2810
      00FF3A52H   LINE      ---      ---       #2811
      00FF3A5CH   LINE      ---      ---       #2813
      00FF3A5CH   LINE      ---      ---       #2814
      00FF3A5EH   LINE      ---      ---       #2818
      00FF3A5EH   LINE      ---      ---       #2819
      00FF3A71H   LINE      ---      ---       #2820
      00FF3A7BH   LINE      ---      ---       #2822
      00FF3A7BH   LINE      ---      ---       #2823
      00FF3A7DH   LINE      ---      ---       #2827
      00FF3A7DH   LINE      ---      ---       #2828
      00FF3A90H   LINE      ---      ---       #2829
      00FF3A9AH   LINE      ---      ---       #2831
      00FF3A9AH   LINE      ---      ---       #2832
      00FF3A9CH   LINE      ---      ---       #2844
      00FF3A9CH   LINE      ---      ---       #2845
      00FF3A9CH   LINE      ---      ---       #2846
      00FF3A9CH   LINE      ---      ---       #2847
      00FF3A9CH   LINE      ---      ---       #2848
      00FF3A9EH   LINE      ---      ---       #2851
      00FF3A9EH   LINE      ---      ---       #2853
      00FF3AA8H   LINE      ---      ---       #2856
      00FF3AA8H   LINE      ---      ---       #2857
      00FF3ABBH   LINE      ---      ---       #2858
      00FF3AC5H   LINE      ---      ---       #2860
      00FF3AC5H   LINE      ---      ---       #2861
      00FF3AC7H   LINE      ---      ---       #2864
      00FF3AC7H   LINE      ---      ---       #2865
      00FF3ADAH   LINE      ---      ---       #2866
      00FF3AE4H   LINE      ---      ---       #2868
      00FF3AE6H   LINE      ---      ---       #2869
      00FF3AE8H   LINE      ---      ---       #2871
L251 LINKER/LOCATER V4.66.93.0                                                        12/18/2023  14:26:43  PAGE 90


      00FF3AE8H   LINE      ---      ---       #2872
      00FF3AEAH   LINE      ---      ---       #2873
      00FF3AEAH   LINE      ---      ---       #2874
      00FF3AEAH   LINE      ---      ---       #2875
      00FF3AECH   LINE      ---      ---       #2878
      00FF3AECH   LINE      ---      ---       #2879
      00FF3AF2H   LINE      ---      ---       #2880
      00FF3AF2H   LINE      ---      ---       #2881
      00FF3AF2H   LINE      ---      ---       #2884
      00FF3AFAH   LINE      ---      ---       #2886
      00FF3AFDH   LINE      ---      ---       #2887
      00FF3B00H   LINE      ---      ---       #2888
      00FF3B03H   LINE      ---      ---       #2890
      00FF3B09H   LINE      ---      ---       #2891
      00FF3B09H   LINE      ---      ---       #2893
      00FF3B0FH   LINE      ---      ---       #2898
      00FF3B1CH   LINE      ---      ---       #2900
      00FF3B22H   LINE      ---      ---       #2901
      00FF3B2AH   LINE      ---      ---       #2902
      R4          REGSYM    ---      BYTE      cmdLen
      REG=3       REGSYM    ---      ---       pCmdAddress
      REG=1       REGSYM    ---      ---       pRuciHeader
      R14         REGSYM    ---      BYTE      ruciHeader
      R15         REGSYM    ---      BYTE      ruciSubheader
      0000AF95H   SYMBOL    EDATA    BYTE      cmdCnfStatus
      ---         BLOCKEND  CODE     ---       LVL=1
      ---         BLOCKEND  CODE     ---       LVL=0
      00FF2DA5H   LINE      ---      ---       #381

      ---         MODULE    ---      ---       mac_task_ctrl
      00FF1A99H   PUBLIC    CODE     ---       RxTask_AlwaysOn_Set
      00FF7536H   PUBLIC    CODE     ---       RxTask_RxTimer_Set
      00FF1F61H   PUBLIC    CODE     ---       RxTask_Timeout_Set
      00FF1A1AH   PUBLIC    CODE     ---       TxContTask_Set
      00FF6CD0H   PUBLIC    CODE     ---       TxTask_Set
      00FF1848H   PUBLIC    CODE     ---       T2RTask_Set
      00FF6C98H   PUBLIC    CODE     ---       TxRtcTask_Set
      00FF0008H   PUBLIC    CODE     ---       AllTask_Stop
      0000AF55H   PUBLIC    EDATA    DWORD     gMac_Frame_Pending_Rx_Time
      0000AE02H   PUBLIC    EDATA    BYTE      ?T2RTask_Set?BYTE

      00FF1A99H   BLOCK     CODE     ---       LVL=0
      00FF1A99H   LINE      ---      ---       #23
      00FF1A99H   LINE      ---      ---       #24
      00FF1A99H   BLOCK     CODE     NEAR LAB  LVL=1
      00FF1A99H   LINE      ---      ---       #28
      00FF1A9FH   LINE      ---      ---       #29
      00FF1AA5H   LINE      ---      ---       #30
      00FF1AABH   LINE      ---      ---       #31
      00FF1AB0H   LINE      ---      ---       #32
      00FF1AB6H   LINE      ---      ---       #33
      00FF1ABAH   LINE      ---      ---       #34
      00FF1ABEH   LINE      ---      ---       #36
      00FF1AC6H   LINE      ---      ---       #38
      0000AE73H   SYMBOL    EDATA    ---       taskControl
      ---         BLOCKEND  CODE     ---       LVL=1
      ---         BLOCKEND  CODE     ---       LVL=0

      00FF7536H   BLOCK     CODE     ---       LVL=0
      00FF7536H   LINE      ---      ---       #111
      00FF7538H   LINE      ---      ---       #114
      00FF7543H   LINE      ---      ---       #116
      DR8         REGSYM    ---      DWORD     ccaDuration
      ---         BLOCKEND  ---      ---       LVL=0

L251 LINKER/LOCATER V4.66.93.0                                                        12/18/2023  14:26:43  PAGE 91


      00FF1F61H   BLOCK     CODE     ---       LVL=0
      00FF1F61H   LINE      ---      ---       #118
      00FF1F63H   LINE      ---      ---       #119
      DR28        REGSYM    ---      DWORD     rxOnTime
      00FF1F63H   BLOCK     CODE     NEAR LAB  LVL=1
      00FF1F63H   LINE      ---      ---       #123
      00FF1F69H   LINE      ---      ---       #124
      00FF1F6EH   LINE      ---      ---       #125
      00FF1F74H   LINE      ---      ---       #126
      00FF1F79H   LINE      ---      ---       #127
      00FF1F91H   LINE      ---      ---       #128
      00FF1F97H   LINE      ---      ---       #129
      00FF1F9DH   LINE      ---      ---       #131
      00FF1FA5H   LINE      ---      ---       #133
      0000AE81H   SYMBOL    EDATA    ---       taskControl
      ---         BLOCKEND  CODE     ---       LVL=1
      ---         BLOCKEND  CODE     ---       LVL=0

      00FF1A1AH   BLOCK     CODE     ---       LVL=0
      00FF1A1AH   LINE      ---      ---       #139
      00FF1A24H   LINE      ---      ---       #140
      WR6         REGSYM    ---      WORD      pktInterval
      R15         REGSYM    ---      BYTE      mode
      0000AE2FH   SYMBOL    EDATA    DWORD     rtcAnchor
      00FF1A24H   BLOCK     CODE     NEAR LAB  LVL=1
      00FF1A24H   LINE      ---      ---       #144
      00FF1A32H   LINE      ---      ---       #145
      00FF1A36H   LINE      ---      ---       #146
      00FF1A3CH   LINE      ---      ---       #149
      00FF1A42H   LINE      ---      ---       #150
      00FF1A46H   LINE      ---      ---       #151
      00FF1A4AH   LINE      ---      ---       #153
      00FF1A52H   LINE      ---      ---       #155
      00FF1A58H   LINE      ---      ---       #156
      00FF1A5EH   LINE      ---      ---       #159
      00FF1A64H   LINE      ---      ---       #160
      00FF1A68H   LINE      ---      ---       #161
      00FF1A6DH   LINE      ---      ---       #162
      00FF1A71H   LINE      ---      ---       #164
      00FF1A79H   LINE      ---      ---       #166
      00FF1A81H   LINE      ---      ---       #167
      0000AE33H   SYMBOL    EDATA    ---       taskControl
      WR12        REGSYM    ---      WORD      pktIntervalTemp
      ---         BLOCKEND  CODE     ---       LVL=1
      00FF1A88H   LINE      ---      ---       #168
      00FF1A88H   LINE      CODE     ---       #168

      00FF6CCCH   BLOCK     CODE     ---       LVL=0
      00FF6CD0H   LINE      ---      ---       #172
      00FF6CD6H   LINE      ---      ---       #173
      00FF6CCCH   SYMBOL    CODE     NEAR LAB  ?L?COM002F
      R15         REGSYM    ---      BYTE      mode
      DR0         REGSYM    ---      DWORD     rtcAnchor
      00FF6CD6H   BLOCK     CODE     NEAR LAB  LVL=1
      00FF6CD6H   LINE      ---      ---       #176
      00FF6CDAH   LINE      ---      ---       #177
      00FF6CDFH   LINE      ---      ---       #178
      00FF6CE3H   LINE      ---      ---       #179
      00FF6CE7H   LINE      ---      ---       #180
      00FF6CEDH   LINE      ---      ---       #181
      00FF6CF1H   LINE      ---      ---       #182
      00FF6CF6H   LINE      ---      ---       #183
      00FF6CFEH   LINE      ---      ---       #185
      00FF6D02H   LINE      ---      ---       #187
      00FF6D0BH   LINE      ---      ---       #188
L251 LINKER/LOCATER V4.66.93.0                                                        12/18/2023  14:26:43  PAGE 92


      0000AE8FH   SYMBOL    EDATA    ---       taskControl
      ---         BLOCKEND  CODE     ---       LVL=1
      00FF6D12H   LINE      ---      ---       #189
      00FF6D12H   LINE      CODE     ---       #189

      00FF1848H   BLOCK     CODE     ---       LVL=0
      00FF1848H   LINE      ---      ---       #193
      00FF1854H   LINE      ---      ---       #194
      WR12        REGSYM    ---      WORD      interFrameSpace
      0000AE05H   SYMBOL    EDATA    DWORD     rxWaitDuration
      R14         REGSYM    ---      BYTE      bRtcAutoEn
      0000AE09H   SYMBOL    EDATA    DWORD     rtcValue
      R15         REGSYM    ---      BYTE      bRxFramePending
      00FF1854H   BLOCK     CODE     NEAR LAB  LVL=1
      00FF1854H   LINE      ---      ---       #198
      00FF185AH   LINE      ---      ---       #199
      00FF185FH   LINE      ---      ---       #200
      00FF1865H   LINE      ---      ---       #202
      00FF1869H   LINE      ---      ---       #204
      00FF187BH   LINE      ---      ---       #205
      00FF187DH   LINE      ---      ---       #206
      00FF187FH   LINE      ---      ---       #210
      00FF1885H   LINE      ---      ---       #211
      00FF188AH   LINE      ---      ---       #212
      00FF188AH   LINE      ---      ---       #213
      00FF1892H   LINE      ---      ---       #214
      00FF1898H   LINE      ---      ---       #215
      00FF18A0H   LINE      ---      ---       #218
      00FF18A4H   LINE      ---      ---       #220
      00FF18AAH   LINE      ---      ---       #221
      00FF18AFH   LINE      ---      ---       #222
      00FF18B5H   LINE      ---      ---       #223
      00FF18BBH   LINE      ---      ---       #224
      00FF18C0H   LINE      ---      ---       #225
      00FF18C8H   LINE      ---      ---       #226
      00FF18CEH   LINE      ---      ---       #227
      00FF18D6H   LINE      ---      ---       #228
      00FF18D6H   LINE      ---      ---       #231
      00FF18DBH   LINE      ---      ---       #232
      00FF18DFH   LINE      ---      ---       #233
      00FF18E5H   LINE      ---      ---       #234
      00FF18EBH   LINE      ---      ---       #235
      00FF18FDH   LINE      ---      ---       #236
      00FF1921H   LINE      ---      ---       #238
      00FF1927H   LINE      ---      ---       #239
      00FF1941H   LINE      ---      ---       #240
      00FF1949H   LINE      ---      ---       #241
      00FF194EH   LINE      ---      ---       #242
      00FF1950H   LINE      ---      ---       #245
      00FF1956H   LINE      ---      ---       #246
      00FF195CH   LINE      ---      ---       #247
      00FF1962H   LINE      ---      ---       #248
      00FF1969H   LINE      ---      ---       #249
      0000AE0EH   SYMBOL    EDATA    ---       taskControl
      ---         BLOCKEND  CODE     ---       LVL=1
      00FF1969H   LINE      ---      ---       #253
      00FF1969H   LINE      CODE     ---       #253

      00FF6C98H   BLOCK     CODE     ---       LVL=0
      00FF6C98H   LINE      ---      ---       #255
      00FF6C9AH   LINE      ---      ---       #256
      DR0         REGSYM    ---      DWORD     rtcValue
      00FF6C9AH   BLOCK     CODE     NEAR LAB  LVL=1
      00FF6C9AH   LINE      ---      ---       #260
      00FF6CA0H   LINE      ---      ---       #261
L251 LINKER/LOCATER V4.66.93.0                                                        12/18/2023  14:26:43  PAGE 93


      00FF6CA5H   LINE      ---      ---       #262
      00FF6CA9H   LINE      ---      ---       #263
      00FF6CADH   LINE      ---      ---       #264
      00FF6CB3H   LINE      ---      ---       #265
      00FF6CB7H   LINE      ---      ---       #266
      00FF6CBBH   LINE      ---      ---       #268
      00FF6CC4H   LINE      ---      ---       #270
      0000AE9DH   SYMBOL    EDATA    ---       taskControl
      ---         BLOCKEND  CODE     ---       LVL=1
      ---         BLOCKEND  CODE     ---       LVL=0

      00FF0008H   BLOCK     CODE     ---       LVL=0
      00FF0008H   LINE      ---      ---       #283
      00FF0008H   LINE      ---      ---       #286
      ---         BLOCKEND  ---      ---       LVL=0

      ---         MODULE    ---      ---       ruci_data_parse
      00FF7544H   PUBLIC    CODE     ---       PciDataControlFieldParse

      00FF7544H   BLOCK     CODE     ---       LVL=0
      00FF7544H   LINE      ---      ---       #39
      00FF7546H   LINE      ---      ---       #40
      REG=2       REGSYM    ---      ---       pCmdAddress
      00FF7546H   BLOCK     CODE     NEAR LAB  LVL=1
      00FF7546H   LINE      ---      ---       #43
      00FF754DH   LINE      ---      ---       #44
      00FF7553H   LINE      ---      ---       #45
      00FF7556H   LINE      ---      ---       #46
      00FF7556H   LINE      ---      ---       #47
      00FF7560H   LINE      ---      ---       #48
      00FF7562H   LINE      ---      ---       #50
      00FF7565H   LINE      ---      ---       #51
      00FF7567H   LINE      ---      ---       #53
      00FF7571H   LINE      ---      ---       #54
      00FF7579H   LINE      ---      ---       #55
      00FF7580H   LINE      ---      ---       #73
      R10         REGSYM    ---      BYTE      tmp
      ---         BLOCKEND  CODE     ---       LVL=1
      00FF7581H   LINE      ---      ---       #75
      00FF7581H   LINE      CODE     ---       #75

      ---         MODULE    ---      ---       mac_event_gen
      00FF3348H   PUBLIC    CODE     ---       PciCnfEventSendtoMsgQueue
      00FF3375H   PUBLIC    CODE     ---       PciGetCrcEventSendtoMsgQueue
      00FF351AH   PUBLIC    CODE     ---       PciGetPhyStatusEventSendtoMsgQueue
      00FF7582H   PUBLIC    CODE     ---       PciBurstTxdoneEventSendtoMsgQueue
      00FF34A8H   PUBLIC    CODE     ---       PciGetRssiEventSendtoMsgQueue

      00FF3343H   BLOCK     CODE     ---       LVL=0
      00FF3348H   LINE      ---      ---       #60
      00FF3350H   LINE      ---      ---       #61
      00FF3343H   SYMBOL    CODE     NEAR LAB  ?L?COM001C
      R13         REGSYM    ---      BYTE      cmdHeader
      R14         REGSYM    ---      BYTE      cmdSubheader
      R15         REGSYM    ---      BYTE      cmdCnfStatus
      00FF3350H   BLOCK     CODE     NEAR LAB  LVL=1
      00FF3350H   LINE      ---      ---       #63
      00FF3354H   LINE      ---      ---       #64
      00FF3357H   LINE      ---      ---       #66
      00FF3361H   LINE      ---      ---       #67
      REG=3       REGSYM    ---      ---       pEventPayload
      R12         REGSYM    ---      BYTE      qIdx
      ---         BLOCKEND  CODE     ---       LVL=1
      00FF3367H   LINE      ---      ---       #80
      00FF3367H   LINE      CODE     ---       #80
L251 LINKER/LOCATER V4.66.93.0                                                        12/18/2023  14:26:43  PAGE 94



      00FF3375H   BLOCK     CODE     ---       LVL=0
      00FF3375H   LINE      ---      ---       #84
      00FF3379H   LINE      ---      ---       #85
      00FF3379H   BLOCK     CODE     NEAR LAB  LVL=1
      00FF3379H   LINE      ---      ---       #87
      00FF337EH   LINE      ---      ---       #90
      00FF3388H   LINE      ---      ---       #91
      00FF338FH   LINE      ---      ---       #92
      00FF3395H   LINE      ---      ---       #93
      00FF339BH   LINE      ---      ---       #95
      00FF33A8H   LINE      ---      ---       #101
      00FF33C2H   LINE      ---      ---       #103
      REG=6       REGSYM    ---      ---       pEventPayload
      R15         REGSYM    ---      BYTE      qIdx
      ---         BLOCKEND  CODE     ---       LVL=1
      00FF33CEH   LINE      ---      ---       #105
      00FF33CEH   LINE      CODE     ---       #105

      00FF351AH   BLOCK     CODE     ---       LVL=0
      00FF351AH   LINE      ---      ---       #107
      00FF351EH   LINE      ---      ---       #108
      00FF351EH   BLOCK     CODE     NEAR LAB  LVL=1
      00FF351EH   LINE      ---      ---       #111
      00FF3523H   LINE      ---      ---       #114
      00FF352DH   LINE      ---      ---       #115
      00FF3534H   LINE      ---      ---       #116
      00FF353AH   LINE      ---      ---       #117
      00FF353EH   LINE      ---      ---       #118
      00FF3546H   LINE      ---      ---       #119
      00FF354EH   LINE      ---      ---       #120
      00FF3558H   LINE      ---      ---       #121
      00FF3563H   LINE      ---      ---       #122
      00FF356DH   LINE      ---      ---       #123
      00FF3575H   LINE      ---      ---       #124
      00FF358BH   LINE      ---      ---       #126
      00FF358FH   LINE      ---      ---       #132
      REG=6       REGSYM    ---      ---       pEventPayload
      R7          REGSYM    ---      BYTE      cpmputeRssi
      R15         REGSYM    ---      BYTE      qIdx
      ---         BLOCKEND  CODE     ---       LVL=1
      00FF359BH   LINE      ---      ---       #134
      00FF359BH   LINE      CODE     ---       #134

      00FF7582H   BLOCK     CODE     ---       LVL=0
      00FF7582H   LINE      ---      ---       #136
      00FF7584H   LINE      ---      ---       #137
      00FF7584H   BLOCK     CODE     NEAR LAB  LVL=1
      00FF7584H   LINE      ---      ---       #139
      00FF7587H   LINE      ---      ---       #142
      00FF7591H   LINE      ---      ---       #143
      00FF7598H   LINE      ---      ---       #144
      00FF759EH   LINE      ---      ---       #145
      00FF75A3H   LINE      ---      ---       #150
      REG=3       REGSYM    ---      ---       pEventPayload
      R15         REGSYM    ---      BYTE      qIdx
      ---         BLOCKEND  CODE     ---       LVL=1
      00FF75B0H   LINE      ---      ---       #152
      00FF75B0H   LINE      CODE     ---       #152

      00FF34A8H   BLOCK     CODE     ---       LVL=0
      00FF34A8H   LINE      ---      ---       #154
      00FF34ACH   LINE      ---      ---       #155
      00FF34ACH   BLOCK     CODE     NEAR LAB  LVL=1
      00FF34ACH   LINE      ---      ---       #159
L251 LINKER/LOCATER V4.66.93.0                                                        12/18/2023  14:26:43  PAGE 95


      00FF34B1H   LINE      ---      ---       #162
      00FF34B8H   LINE      ---      ---       #163
      00FF34C4H   LINE      ---      ---       #164
      00FF34CCH   LINE      ---      ---       #165
      00FF34D3H   LINE      ---      ---       #166
      00FF34DDH   LINE      ---      ---       #168
      00FF34E7H   LINE      ---      ---       #169
      00FF34EEH   LINE      ---      ---       #170
      00FF34F4H   LINE      ---      ---       #171
      00FF34FAH   LINE      ---      ---       #172
      00FF34FEH   LINE      ---      ---       #178
      REG=6       REGSYM    ---      ---       pEventPayload
      R5          REGSYM    ---      CHAR      ibRssi
      R10         REGSYM    ---      BYTE      cpmputeRssi
      R4          REGSYM    ---      BYTE      lnaGain
      R7          REGSYM    ---      BYTE      tiaGain
      R6          REGSYM    ---      BYTE      vgaGain
      R15         REGSYM    ---      BYTE      qIdx
      ---         BLOCKEND  CODE     ---       LVL=1
      00FF350AH   LINE      ---      ---       #180
      00FF350AH   LINE      CODE     ---       #180

      ---         MODULE    ---      ---       mac_RaaSchedule
      00FF75B3H   PUBLIC    CODE     ---       mac_Raa_SchInitHdlr
      00FF6394H   PUBLIC    CODE     ---       mac_Raa_SchConfigHdlr
      00FF75B4H   PUBLIC    CODE     ---       mac_Raa_SchWaitMHRHdlr
      00FF1792H   PUBLIC    CODE     ---       mac_Raa_SchWaitRxDoneHdlr
      00FF7637H   PUBLIC    CODE     ---       mac_Raa_SchWaitTxDoneHdlr
      00FF7668H   PUBLIC    CODE     ---       mac_Raa_SchWaitResumeHdlr
      00FF7669H   PUBLIC    CODE     ---       mac_Raa_SchEndHdlr
      00FF768DH   PUBLIC    CODE     ---       mac_Raa_SchReservedHdlr
      00FF2139H   PUBLIC    CODE     ---       Mac_RaaRxDoneHandle?_
      00FF2498H   PUBLIC    CODE     ---       Mac_RaaClearAckQandGenRxData
      00FF68ABH   PUBLIC    CODE     ---       MAC_RaaSchedule
      00FF24B2H   PUBLIC    CODE     ---       mac_org_mhr_done_handler
      00FF6C32H   PUBLIC    CODE     ---       mac_org_rx_done_handler
      00FF6C28H   PUBLIC    CODE     ---       MAC_MhrParse
      00FF2350H   PUBLIC    CODE     ---       MAC_RxDoneEventGen?_
      00FF768EH   PUBLIC    CODE     ---       mac_genAck
      00FF2552H   PUBLIC    CODE     ---       MAC_AckSet
      00FF76D3H   PUBLIC    CODE     ---       mac_Filter?_
      0000AD57H   PUBLIC    EDATA    INT       gMacRaaState
      0000AD59H   PUBLIC    EDATA    ---       gMacPib
      0000AD78H   PUBLIC    EDATA    ---       gRaa_Sch_Handler_Entry
      00000080H   SFRSYM    DATA     BYTE      P0
      00008000H   SYMBOL    NCONST   ---       ?tpl?0001

      00FF6C28H   BLOCK     CODE     ---       LVL=0
      00FF6C28H   LINE      ---      ---       #80
      00FF6C28H   LINE      ---      ---       #81
      00FF6C28H   BLOCK     CODE     NEAR LAB  LVL=1
      00FF6C28H   LINE      ---      ---       #82
      00FF6C2CH   LINE      ---      ---       #83
      REG=3       REGSYM    ---      ---       pMhr
      ---         BLOCKEND  CODE     ---       LVL=1
      ---         BLOCKEND  CODE     ---       LVL=0

      00FF2350H   BLOCK     CODE     ---       LVL=0
      00FF2350H   LINE      ---      ---       #121
      00FF2356H   LINE      ---      ---       #122
      R10         REGSYM    ---      BYTE      isCrcPass
      00FF2356H   BLOCK     CODE     NEAR LAB  LVL=1
      00FF2356H   LINE      ---      ---       #132
      00FF2362H   LINE      ---      ---       #133
      00FF236AH   LINE      ---      ---       #134
L251 LINKER/LOCATER V4.66.93.0                                                        12/18/2023  14:26:43  PAGE 96


      00FF2370H   LINE      ---      ---       #135
      00FF2388H   LINE      ---      ---       #136
      00FF2397H   LINE      ---      ---       #141
      00FF239AH   LINE      ---      ---       #153
      00FF23C3H   LINE      ---      ---       #154
      00FF23CDH   LINE      ---      ---       #155
      00FF23CDH   LINE      ---      ---       #156
      00FF23ECH   LINE      ---      ---       #159
      00FF23FAH   LINE      ---      ---       #173
      00FF2401H   LINE      ---      ---       #180
      00FF2403H   LINE      ---      ---       #182
      00FF2406H   LINE      ---      ---       #183
      00FF2406H   LINE      ---      ---       #187
      00FF2406H   LINE      ---      ---       #189
      R11         REGSYM    ---      BYTE      retValue
      FFFFFFFAH   STKSYM    ---      ---       sRxControlField
      ---         BLOCKEND  CODE     ---       LVL=1
      00FF2406H   LINE      ---      ---       #190
      00FF2406H   LINE      CODE     ---       #190

      00FF768EH   BLOCK     CODE     ---       LVL=0
      00FF768EH   LINE      ---      ---       #248
      00FF7698H   LINE      ---      ---       #249
      REG=7       REGSYM    ---      ---       pbuf
      R5          REGSYM    ---      BYTE      framePending
      R13         REGSYM    ---      BYTE      dsn
      00FF7698H   BLOCK     CODE     NEAR LAB  LVL=1
      00FF7698H   LINE      ---      ---       #250
      00FF76AAH   LINE      ---      ---       #251
      00FF76B6H   LINE      ---      ---       #252
      00FF76BDH   LINE      ---      ---       #254
      00FF76C7H   LINE      ---      ---       #255
      0000AF87H   SYMBOL    EDATA    WORD      fcf
      ---         BLOCKEND  CODE     ---       LVL=1
      00FF76CEH   LINE      ---      ---       #256
      00FF76CEH   LINE      CODE     ---       #256

      00FF2552H   BLOCK     CODE     ---       LVL=0
      00FF2552H   LINE      ---      ---       #583
      00FF2552H   LINE      ---      ---       #584
      00FF2552H   BLOCK     CODE     NEAR LAB  LVL=1
      00FF2552H   LINE      ---      ---       #587
      00FF2559H   LINE      ---      ---       #589
      00FF2560H   LINE      ---      ---       #591
      00FF2563H   LINE      ---      ---       #594
      00FF256CH   LINE      ---      ---       #597
      00FF2581H   LINE      ---      ---       #601
      00FF2589H   LINE      ---      ---       #602
      00FF2589H   LINE      ---      ---       #624
      00FF2591H   LINE      ---      ---       #627
      00FF25A7H   LINE      ---      ---       #628
      00FF25AAH   LINE      ---      ---       #629
      00FF25ACH   LINE      ---      ---       #630
      00FF25AFH   LINE      ---      ---       #631
      00FF25AFH   LINE      ---      ---       #632
      R11         REGSYM    ---      BYTE      retValue
      ---         BLOCKEND  CODE     ---       LVL=1
      00FF25AFH   LINE      ---      ---       #633
      00FF25AFH   LINE      CODE     ---       #633

      00FF76D3H   BLOCK     CODE     ---       LVL=0
      00FF76D3H   LINE      ---      ---       #661
      00FF76D7H   LINE      ---      ---       #662
      00FF76D7H   BLOCK     CODE     NEAR LAB  LVL=1
      00FF76D7H   LINE      ---      ---       #664
L251 LINKER/LOCATER V4.66.93.0                                                        12/18/2023  14:26:43  PAGE 97


      00FF76DEH   LINE      ---      ---       #667
      00FF76E9H   LINE      ---      ---       #668
      00FF76EBH   LINE      ---      ---       #672
      00FF76F8H   LINE      ---      ---       #673
      00FF7702H   LINE      ---      ---       #677
      00FF770FH   LINE      ---      ---       #681
      00FF771AH   LINE      ---      ---       #688
      00FF7724H   LINE      ---      ---       #690
      00FF7727H   LINE      ---      ---       #691
      00FF7729H   LINE      ---      ---       #694
      00FF772BH   LINE      ---      ---       #696
      00FF7752H   LINE      ---      ---       #698
      00FF775FH   LINE      ---      ---       #699
      00FF7762H   LINE      ---      ---       #700
      00FF7769H   LINE      ---      ---       #702
      00FF7769H   LINE      ---      ---       #703
      00FF776DH   LINE      ---      ---       #705
      00FF7770H   LINE      ---      ---       #706
      00FF7774H   LINE      ---      ---       #707
      00FF7774H   LINE      ---      ---       #736
      00FF7778H   LINE      ---      ---       #739
      00FF777AH   LINE      ---      ---       #740
      00FF7784H   LINE      ---      ---       #742
      00FF7787H   LINE      ---      ---       #743
      00FF7789H   LINE      ---      ---       #746
      00FF778BH   LINE      ---      ---       #748
      00FF77A6H   LINE      ---      ---       #750
      00FF77A9H   LINE      ---      ---       #751
      00FF77ADH   LINE      ---      ---       #752
      00FF77B0H   LINE      ---      ---       #753
      00FF77B7H   LINE      ---      ---       #755
      00FF77B7H   LINE      ---      ---       #756
      00FF77BEH   LINE      ---      ---       #758
      00FF77C1H   LINE      ---      ---       #759
      00FF77C5H   LINE      ---      ---       #760
      00FF77C5H   LINE      ---      ---       #776
      00FF77C9H   LINE      ---      ---       #779
      00FF77CBH   LINE      ---      ---       #780
      00FF77DFH   LINE      ---      ---       #782
      00FF77E2H   LINE      ---      ---       #783
      00FF77E4H   LINE      ---      ---       #786
      00FF77E6H   LINE      ---      ---       #788
      00FF7813H   LINE      ---      ---       #791
      00FF7817H   LINE      ---      ---       #792
      00FF781AH   LINE      ---      ---       #793
      00FF7821H   LINE      ---      ---       #795
      00FF7821H   LINE      ---      ---       #796
      00FF7825H   LINE      ---      ---       #798
      00FF7828H   LINE      ---      ---       #799
      00FF782BH   LINE      ---      ---       #800
      00FF782BH   LINE      ---      ---       #832
      00FF782EH   LINE      ---      ---       #834
      00FF782EH   LINE      ---      ---       #838
      00FF7830H   LINE      ---      ---       #839
      00FF7832H   LINE      ---      ---       #841
      00FF783AH   LINE      ---      ---       #843
      00FF783DH   LINE      ---      ---       #844
      00FF7844H   LINE      ---      ---       #846
      00FF784CH   LINE      ---      ---       #848
      00FF784FH   LINE      ---      ---       #849
      00FF7852H   LINE      ---      ---       #850
      00FF7852H   LINE      ---      ---       #861
      00FF7858H   LINE      ---      ---       #864
      00FF785CH   LINE      ---      ---       #865
      00FF7860H   LINE      ---      ---       #866
L251 LINKER/LOCATER V4.66.93.0                                                        12/18/2023  14:26:43  PAGE 98


      00FF7866H   LINE      ---      ---       #867
      00FF786AH   LINE      ---      ---       #872
      00FF786CH   LINE      ---      ---       #873
      00FF787AH   LINE      ---      ---       #875
      00FF787CH   LINE      ---      ---       #877
      00FF7893H   LINE      ---      ---       #879
      00FF7896H   LINE      ---      ---       #880
      00FF789DH   LINE      ---      ---       #882
      00FF78A1H   LINE      ---      ---       #884
      00FF78A4H   LINE      ---      ---       #885
      00FF78A7H   LINE      ---      ---       #886
      00FF78A7H   LINE      ---      ---       #906
      00FF78A7H   LINE      ---      ---       #907
      00FF78A7H   LINE      ---      ---       #909
      00000000H   STKSYM    ---      BYTE      frameType
      R9          REGSYM    ---      BYTE      i
      FFFFFFFEH   STKSYM    ---      ---       is_pan_num
      R8          REGSYM    ---      BYTE      match_found
      ---         BLOCKEND  CODE     ---       LVL=1
      00FF78A9H   LINE      ---      ---       #910
      00FF78A9H   LINE      CODE     ---       #910

      00FF2139H   BLOCK     CODE     ---       LVL=0
      00FF2139H   LINE      ---      ---       #943
      00FF213BH   LINE      ---      ---       #944
      00FF213BH   BLOCK     CODE     NEAR LAB  LVL=1
      00FF213BH   LINE      ---      ---       #945
      00FF213BH   LINE      ---      ---       #946
      00FF213EH   LINE      ---      ---       #951
      00FF2141H   LINE      ---      ---       #952
      00FF2144H   LINE      ---      ---       #960
      00FF2150H   LINE      ---      ---       #961
      00FF2154H   LINE      ---      ---       #962
      00FF2156H   LINE      ---      ---       #963
      00FF2156H   LINE      ---      ---       #968
      00FF2158H   LINE      ---      ---       #971
      00FF2171H   LINE      ---      ---       #973
      00FF2178H   LINE      ---      ---       #978
      00FF217CH   LINE      ---      ---       #979
      00FF217EH   LINE      ---      ---       #980
      00FF217EH   LINE      ---      ---       #989
      00FF2188H   LINE      ---      ---       #990
      00FF21A6H   LINE      ---      ---       #991
      00FF21A8H   LINE      ---      ---       #992
      00FF21B8H   LINE      ---      ---       #993
      00FF21BBH   LINE      ---      ---       #994
      00FF21BBH   LINE      ---      ---       #1000
      00FF21C7H   LINE      ---      ---       #1003
      00FF21CCH   LINE      ---      ---       #1009
      00FF21D6H   LINE      ---      ---       #1011
      00FF21DAH   LINE      ---      ---       #1012
      00FF21DCH   LINE      ---      ---       #1014
      00FF21E0H   LINE      ---      ---       #1015
      00FF21E2H   LINE      ---      ---       #1018
      00FF21E9H   LINE      ---      ---       #1020
      00FF21ECH   LINE      ---      ---       #1021
      00FF21F6H   LINE      ---      ---       #1023
      00FF21F9H   LINE      ---      ---       #1025
      00FF2207H   LINE      ---      ---       #1027
      00FF220AH   LINE      ---      ---       #1076
      00FF220CH   LINE      ---      ---       #1082
      00FF2215H   LINE      ---      ---       #1092
      00FF221BH   LINE      ---      ---       #1094
      00FF221EH   LINE      ---      ---       #1096
      00FF2222H   LINE      ---      ---       #1097
L251 LINKER/LOCATER V4.66.93.0                                                        12/18/2023  14:26:43  PAGE 99


      00FF2222H   LINE      ---      ---       #1100
      00FF2225H   LINE      ---      ---       #1102
      00FF2228H   LINE      ---      ---       #1105
      00FF2243H   LINE      ---      ---       #1106
      00FF224CH   LINE      ---      ---       #1109
      00FF2256H   LINE      ---      ---       #1111
      00FF225AH   LINE      ---      ---       #1112
      00FF225CH   LINE      ---      ---       #1114
      00FF2260H   LINE      ---      ---       #1116
      00FF2262H   LINE      ---      ---       #1120
      00FF2267H   LINE      ---      ---       #1123
      00FF2271H   LINE      ---      ---       #1125
      00FF2275H   LINE      ---      ---       #1126
      00FF2277H   LINE      ---      ---       #1128
      00FF227BH   LINE      ---      ---       #1129
      00FF227BH   LINE      ---      ---       #1131
      00FF227BH   LINE      ---      ---       #1132
      00FF227DH   LINE      ---      ---       #1135
      00FF2280H   LINE      ---      ---       #1137
      00FF2284H   LINE      ---      ---       #1141
      00FF2287H   LINE      ---      ---       #1144
      00FF2291H   LINE      ---      ---       #1146
      00FF2295H   LINE      ---      ---       #1147
      00FF2297H   LINE      ---      ---       #1149
      00FF229BH   LINE      ---      ---       #1151
      00FF229BH   LINE      ---      ---       #1152
      00FF229DH   LINE      ---      ---       #1155
      00FF22A0H   LINE      ---      ---       #1157
      00FF22A4H   LINE      ---      ---       #1161
      00FF22A7H   LINE      ---      ---       #1164
      00FF22B1H   LINE      ---      ---       #1166
      00FF22B5H   LINE      ---      ---       #1167
      00FF22B7H   LINE      ---      ---       #1169
      00FF22BDH   LINE      ---      ---       #1170
      00FF22BDH   LINE      ---      ---       #1171
      00FF22BDH   LINE      ---      ---       #1173
      R10         REGSYM    ---      BYTE      macRxInfo
      R15         REGSYM    ---      BYTE      isCrcPass
      ---         BLOCKEND  CODE     ---       LVL=1
      00FF22BEH   LINE      ---      ---       #1174
      00FF22BEH   LINE      CODE     ---       #1174

      00FF2498H   BLOCK     CODE     ---       LVL=0
      00FF2498H   LINE      ---      ---       #1176
      00FF2498H   LINE      ---      ---       #1179
      00FF249EH   LINE      ---      ---       #1182
      ---         BLOCKEND  ---      ---       LVL=0

      00FF75B3H   BLOCK     CODE     ---       LVL=0
      00FF75B3H   LINE      ---      ---       #1187
      00FF75B3H   LINE      ---      ---       #1189
      ---         BLOCKEND  ---      ---       LVL=0

      00FF6394H   BLOCK     CODE     ---       LVL=0
      00FF6394H   LINE      ---      ---       #1191
      00FF6394H   LINE      ---      ---       #1193
      00FF6397H   LINE      ---      ---       #1194
      00FF639AH   LINE      ---      ---       #1197
      00FF63A8H   LINE      ---      ---       #1199
      00FF63B4H   LINE      ---      ---       #1201
      00FF63B4H   LINE      ---      ---       #1202
      00FF63B4H   LINE      ---      ---       #1232
      00FF63B4H   BLOCK     CODE     NEAR LAB  LVL=1
      00FF63B4H   LINE      ---      ---       #1234
      00FF63BCH   LINE      ---      ---       #1235
L251 LINKER/LOCATER V4.66.93.0                                                        12/18/2023  14:26:43  PAGE 100


      00FF63C4H   LINE      ---      ---       #1236
      00FF63CCH   LINE      ---      ---       #1237
      00FF63D4H   LINE      ---      ---       #1238
      0000AEFEH   SYMBOL    EDATA    ---       cb
      ---         BLOCKEND  CODE     ---       LVL=1
      00FF63DBH   LINE      ---      ---       #1239
      00FF63DBH   LINE      ---      ---       #1249
      00FF63DFH   LINE      ---      ---       #1251
      00FF63E2H   LINE      ---      ---       #1254
      00FF63E2H   LINE      ---      ---       #1256
      00FF63ECH   LINE      ---      ---       #1258
      00FF63EFH   LINE      ---      ---       #1259
      00FF63F2H   LINE      ---      ---       #1270
      00FF63F2H   LINE      ---      ---       #1274
      00FF63F8H   LINE      ---      ---       #1278
      00FF63FEH   LINE      ---      ---       #1280
      00FF640EH   LINE      ---      ---       #1287
      00FF6411H   LINE      ---      ---       #1288
      00FF6413H   LINE      ---      ---       #1294
      00FF6413H   LINE      ---      ---       #1296
      00FF6413H   LINE      ---      ---       #1297
      00FF6415H   LINE      ---      ---       #1300
      00FF6418H   LINE      ---      ---       #1301
      00FF6418H   LINE      ---      ---       #1303
      00FF6424H   LINE      ---      ---       #1305
      00FF642CH   LINE      ---      ---       #1306
      00FF642CH   LINE      CODE     ---       #1306

      00FF75B4H   BLOCK     CODE     ---       LVL=0
      00FF75B4H   LINE      ---      ---       #1308
      00FF75B4H   LINE      ---      ---       #1309
      00FF75B4H   BLOCK     CODE     NEAR LAB  LVL=1
      00FF75B4H   LINE      ---      ---       #1310
      00FF75B4H   LINE      ---      ---       #1315
      00FF75B7H   LINE      ---      ---       #1330
      00FF75BDH   LINE      ---      ---       #1332
      00FF75C0H   LINE      ---      ---       #1334
      00FF75C6H   LINE      ---      ---       #1336
      00FF75CBH   LINE      ---      ---       #1337
      00FF75D1H   LINE      ---      ---       #1338
      00FF75D1H   LINE      ---      ---       #1354
      00FF75D4H   LINE      ---      ---       #1366
      00FF75DCH   LINE      ---      ---       #1367
      00FF75DDH   LINE      ---      ---       #1369
      00FF75E3H   LINE      ---      ---       #1371
      00FF75E6H   LINE      ---      ---       #1372
      00FF75F0H   LINE      ---      ---       #1374
      00FF75F3H   LINE      ---      ---       #1375
      00FF75F4H   LINE      ---      ---       #1376
      00FF75F4H   LINE      ---      ---       #1385
      00FF75FAH   LINE      ---      ---       #1387
      00FF7609H   LINE      ---      ---       #1388
      00FF761BH   LINE      ---      ---       #1389
      00FF7625H   LINE      ---      ---       #1390
      00FF7625H   LINE      ---      ---       #1392
      00FF762DH   LINE      ---      ---       #1393
      00FF7636H   LINE      ---      ---       #1394
      WR6         REGSYM    ---      WORD      macFunEventQueue
      ---         BLOCKEND  CODE     ---       LVL=1
      ---         BLOCKEND  CODE     ---       LVL=0

      00FF1792H   BLOCK     CODE     ---       LVL=0
      00FF1792H   LINE      ---      ---       #1438
      00FF1792H   LINE      ---      ---       #1439
      00FF1792H   BLOCK     CODE     NEAR LAB  LVL=1
L251 LINKER/LOCATER V4.66.93.0                                                        12/18/2023  14:26:43  PAGE 101


      00FF1792H   LINE      ---      ---       #1440
      00FF1792H   LINE      ---      ---       #1442
      00FF1794H   LINE      ---      ---       #1443
      00FF17B2H   LINE      ---      ---       #1445
      00FF17B2H   LINE      ---      ---       #1446
      00FF17B2H   LINE      ---      ---       #1448
      00FF17B4H   LINE      ---      ---       #1453
      00FF17B8H   LINE      ---      ---       #1454
      00FF17BAH   LINE      ---      ---       #1455
      00FF17BAH   LINE      ---      ---       #1457
      00FF17BCH   LINE      ---      ---       #1462
      00FF17C0H   LINE      ---      ---       #1463
      00FF17C2H   LINE      ---      ---       #1464
      00FF17C2H   LINE      ---      ---       #1465
      00FF17C6H   LINE      ---      ---       #1466
      00FF17C8H   LINE      ---      ---       #1467
      00FF17C8H   LINE      ---      ---       #1468
      00FF17C8H   LINE      ---      ---       #1469
      00FF17D0H   LINE      ---      ---       #1470
      00FF17D2H   LINE      ---      ---       #1471
      00FF17D2H   LINE      ---      ---       #1472
      00FF17D5H   LINE      ---      ---       #1473
      00FF17D5H   LINE      ---      ---       #1474
      00FF17D5H   LINE      ---      ---       #1475
      WR6         REGSYM    ---      WORD      macFunEventQueue
      ---         BLOCKEND  CODE     ---       LVL=1
      ---         BLOCKEND  CODE     ---       LVL=0

      00FF7637H   BLOCK     CODE     ---       LVL=0
      00FF7637H   LINE      ---      ---       #1479
      00FF7637H   LINE      ---      ---       #1480
      00FF7637H   BLOCK     CODE     NEAR LAB  LVL=1
      00FF7637H   LINE      ---      ---       #1498
      00FF763AH   LINE      ---      ---       #1499
      00FF7640H   LINE      ---      ---       #1501
      00FF7643H   LINE      ---      ---       #1502
      00FF7646H   LINE      ---      ---       #1509
      00FF7649H   LINE      ---      ---       #1512
      00FF7653H   LINE      ---      ---       #1514
      00FF765BH   LINE      ---      ---       #1516
      00FF765FH   LINE      ---      ---       #1522
      00FF765FH   LINE      ---      ---       #1524
      00FF7667H   LINE      ---      ---       #1525
      WR6         REGSYM    ---      WORD      macFunEventQueue
      ---         BLOCKEND  CODE     ---       LVL=1
      ---         BLOCKEND  CODE     ---       LVL=0

      00FF7668H   BLOCK     CODE     ---       LVL=0
      00FF7668H   LINE      ---      ---       #1529
      00FF7668H   LINE      ---      ---       #1553
      ---         BLOCKEND  ---      ---       LVL=0

      00FF7669H   BLOCK     CODE     ---       LVL=0
      00FF7669H   LINE      ---      ---       #1555
      00FF7669H   LINE      ---      ---       #1557
      00FF766CH   LINE      ---      ---       #1558
      00FF766FH   LINE      ---      ---       #1566
      00FF7672H   LINE      ---      ---       #1571
      00FF7678H   LINE      ---      ---       #1572
      00FF767EH   LINE      ---      ---       #1576
      00FF7684H   LINE      ---      ---       #1579
      00FF7687H   LINE      ---      ---       #1587
      00FF768CH   LINE      ---      ---       #1590
      ---         BLOCKEND  ---      ---       LVL=0

L251 LINKER/LOCATER V4.66.93.0                                                        12/18/2023  14:26:43  PAGE 102


      00FF768DH   BLOCK     CODE     ---       LVL=0
      00FF768DH   LINE      ---      ---       #1592
      00FF768DH   LINE      ---      ---       #1594
      ---         BLOCKEND  ---      ---       LVL=0

      00FF68ABH   BLOCK     CODE     ---       LVL=0
      00FF68ABH   LINE      ---      ---       #1596
      00FF68ABH   LINE      ---      ---       #1599
      00FF68B2H   LINE      ---      ---       #1601
      00FF68B2H   LINE      ---      ---       #1602
      00FF68B2H   LINE      ---      ---       #1607
      00FF68BEH   LINE      ---      ---       #1608
      ---         BLOCKEND  ---      ---       LVL=0

      00FF24B2H   BLOCK     CODE     ---       LVL=0
      00FF24B2H   LINE      ---      ---       #1612
      00FF24B2H   LINE      ---      ---       #1614
      00FF24B8H   LINE      ---      ---       #1616
      00FF24C6H   LINE      ---      ---       #1621
      00FF24CCH   LINE      ---      ---       #1622
      ---         BLOCKEND  ---      ---       LVL=0

      00FF6C32H   BLOCK     CODE     ---       LVL=0
      00FF6C32H   LINE      ---      ---       #1640
      00FF6C34H   LINE      ---      ---       #1641
      00FF6C34H   BLOCK     CODE     NEAR LAB  LVL=1
      00FF6C34H   LINE      ---      ---       #1645
      00FF6C4DH   LINE      ---      ---       #1652
      00FF6C5DH   LINE      ---      ---       #1657
      00FF6C5FH   LINE      ---      ---       #1660
      00FF6C65H   LINE      ---      ---       #1667
      00FF6C6AH   LINE      ---      ---       #1672
      00FF6C6DH   LINE      ---      ---       #1674
      00FF6C7CH   LINE      ---      ---       #1676
      00FF6C80H   LINE      ---      ---       #1677
      00FF6C82H   LINE      ---      ---       #1680
      00FF6C84H   LINE      ---      ---       #1681
      00FF6C84H   LINE      ---      ---       #1682
      00FF6C8AH   LINE      ---      ---       #1684
      00FF6C8CH   LINE      ---      ---       #1688
      00FF6C95H   LINE      ---      ---       #1689
      DR12        REGSYM    ---      DWORD     rtcValueforTxAck
      ---         BLOCKEND  CODE     ---       LVL=1
      00FF6C95H   LINE      ---      ---       #1690
      00FF6C95H   LINE      CODE     ---       #1690

      ---         MODULE    ---      ---       mac_TarSchedule
      00FF78AEH   PUBLIC    CODE     ---       mac_Tar_SchInitHdlr
      00FF2DAAH   PUBLIC    CODE     ---       mac_Tar_SchConfigHdlr
      00FF2A99H   PUBLIC    CODE     ---       mac_Tar_SchWaitCCADoneHdlr
      00FF6323H   PUBLIC    CODE     ---       mac_Tar_SchWaitTxDoneHdlr
      00FF78AFH   PUBLIC    CODE     ---       mac_Tar_SchWaitAckRxMHRHdlr
      00FF2694H   PUBLIC    CODE     ---       mac_Tar_SchWaitAckRxDoneHdlr
      00FF1DEEH   PUBLIC    CODE     ---       mac_Tar_SchWaitNormalRxMsgHdlr
      00FF1FC8H   PUBLIC    CODE     ---       mac_Tar_SchWaitNormalAckDoneHdlr
      00FF7902H   PUBLIC    CODE     ---       mac_Tar_SchEndHdlr
      00FF7932H   PUBLIC    CODE     ---       mac_Tar_SchReservedHdlr
      00FF68BFH   PUBLIC    CODE     ---       MAC_TarSchedule
      00FF2987H   PUBLIC    CODE     ---       MAC_TarParInit
      00FF278EH   PUBLIC    CODE     ---       MacTxFreeBmuData
      00FF28E3H   PUBLIC    CODE     ---       Mac_TxGetBmuData
      00FF27A6H   PUBLIC    CODE     ---       mac_org_tx_done_handler
      00FF27D1H   PUBLIC    CODE     ---       mac_org_cca_done_handler
      00FF2C2FH   PUBLIC    CODE     ---       MAC_TxHwSet
      00FF62B1H   PUBLIC    CODE     ---       MAC_RxHwSet
L251 LINKER/LOCATER V4.66.93.0                                                        12/18/2023  14:26:43  PAGE 103


      00FF310BH   PUBLIC    CODE     ---       MAC_BackoffTimeCal
      00FF27BAH   PUBLIC    CODE     ---       MAC_AckFrameCheck
      00FF261BH   PUBLIC    CODE     ---       MAC_TxDoneEventGen
      00FF2B7FH   PUBLIC    CODE     ---       MAC_TxTaskSet
      00FF7933H   PUBLIC    CODE     ---       mac_tar_check_data_requst
      00FF2E42H   PUBLIC    CODE     ---       MAC_SecLbHwSet
      00FF2B6EH   PUBLIC    CODE     ---       MAC_TxStart
      00FF79C7H   PUBLIC    CODE     ---       MAC_WaitforRxTaskReady
      00FF1F0EH   PUBLIC    CODE     ---       MAC_CcaStart
      00FF2867H   PUBLIC    CODE     ---       MAC_CcaStatusGet
      00FF1F04H   PUBLIC    CODE     ---       mac_tar_cca_setup
      0000A000H   PUBLIC    EDATA    INT       gMacTarState
      0000A002H   PUBLIC    EDATA    ---       gMacTxPar
      0000A028H   PUBLIC    EDATA    ---       gMacRxPar
      0000A044H   PUBLIC    EDATA    ---       gMacHdr
      0000A069H   PUBLIC    EDATA    ---       gMacBuf
      0000A8A1H   PUBLIC    EDATA    ---       gPhyStatus
      0000A8A6H   PUBLIC    EDATA    BYTE      gRetransmissionCount
      0000A8A7H   PUBLIC    EDATA    BYTE      gCsmacaRetry
      0000A8A8H   PUBLIC    EDATA    BYTE      gBackoffExpIdx
      0000A8A9H   PUBLIC    EDATA    ---       gTar_ScheHandler_Entry
      000000A8H.7 SFRSYM    DATA     BIT       EA
      00000080H   SFRSYM    DATA     BYTE      P0

      00FF2C1BH   BLOCK     CODE     ---       LVL=0
      00FF2C2FH   LINE      ---      ---       #83
      00FF2C3BH   LINE      ---      ---       #84
      00FF2C1BH   SYMBOL    CODE     NEAR LAB  ?L?COM0017
      R11         REGSYM    ---      BYTE      bLocalTxQueue
      R10         REGSYM    ---      BYTE      txQueueIdx
      0000AF7BH   SYMBOL    EDATA    INT       aesLv
      WR12        REGSYM    ---      WORD      aDataLen
      WR14        REGSYM    ---      WORD      mDataLen
      00FF2C3BH   BLOCK     CODE     NEAR LAB  LVL=1
      00FF2C3BH   LINE      ---      ---       #88
      00FF2C3DH   LINE      ---      ---       #90
      00FF2C43H   LINE      ---      ---       #91
      00FF2C44H   LINE      ---      ---       #92
      00FF2C46H   LINE      ---      ---       #95
      00FF2C52H   LINE      ---      ---       #101
      00FF2C5BH   LINE      ---      ---       #102
      00FF2C5BH   LINE      ---      ---       #111
      00FF2C61H   LINE      ---      ---       #113
      00FF2C64H   LINE      ---      ---       #114
      00FF2C64H   LINE      ---      ---       #117
      00FF2C7BH   LINE      ---      ---       #125
      0000AF7DH   SYMBOL    EDATA    BYTE      retValue
      ---         BLOCKEND  CODE     ---       LVL=1
      00FF2C7DH   LINE      ---      ---       #126
      00FF2C7DH   LINE      CODE     ---       #126

      00FF62AEH   BLOCK     CODE     ---       LVL=0
      00FF62B1H   LINE      ---      ---       #128
      00FF62B9H   LINE      ---      ---       #129
      00FF62AEH   SYMBOL    CODE     NEAR LAB  ?L?COM0021
      R7          REGSYM    ---      BYTE      bLocalRxQueue
      WR14        REGSYM    ---      INT       aesLv
      00FF62B9H   BLOCK     CODE     NEAR LAB  LVL=1
      00FF62B9H   LINE      ---      ---       #133
      00FF62BDH   LINE      ---      ---       #135
      00FF62C6H   LINE      ---      ---       #136
      00FF62C7H   LINE      ---      ---       #137
      00FF62C9H   LINE      ---      ---       #140
      00FF62D0H   LINE      ---      ---       #141
      00FF62D9H   LINE      ---      ---       #142
L251 LINKER/LOCATER V4.66.93.0                                                        12/18/2023  14:26:43  PAGE 104


      00FF62D9H   LINE      ---      ---       #150
      00FF62DDH   LINE      ---      ---       #152
      00FF62E0H   LINE      ---      ---       #153
      00FF62E0H   LINE      ---      ---       #156
      00FF62E5H   LINE      ---      ---       #160
      00FF62FCH   LINE      ---      ---       #161
      00FF62FEH   LINE      ---      ---       #166
      00FF631CH   LINE      ---      ---       #167
      00FF631CH   LINE      ---      ---       #175
      R13         REGSYM    ---      BYTE      retValue
      ---         BLOCKEND  CODE     ---       LVL=1
      00FF631EH   LINE      ---      ---       #176
      00FF631EH   LINE      CODE     ---       #176

      00FF310BH   BLOCK     CODE     ---       LVL=0
      00FF310BH   LINE      ---      ---       #179
      00FF310FH   LINE      ---      ---       #180
      REG=7       REGSYM    ---      ---       backoffDuration
      00FF310FH   BLOCK     CODE     NEAR LAB  LVL=1
      00FF310FH   LINE      ---      ---       #183
      00FF3119H   LINE      ---      ---       #184
      00FF312EH   LINE      ---      ---       #185
      0000AF96H   SYMBOL    EDATA    BYTE      randValue
      R7          REGSYM    ---      BYTE      backoffExp
      ---         BLOCKEND  CODE     ---       LVL=1
      00FF3140H   LINE      ---      ---       #186
      00FF3140H   LINE      CODE     ---       #186

      00FF27BAH   BLOCK     CODE     ---       LVL=0
      00FF27BAH   LINE      ---      ---       #191
      00FF27BCH   LINE      ---      ---       #192
      R10         REGSYM    ---      BYTE      dsn
      00FF27BCH   BLOCK     CODE     NEAR LAB  LVL=1
      00FF27BCH   LINE      ---      ---       #193
      00FF27BEH   LINE      ---      ---       #201
      00FF27C5H   LINE      ---      ---       #203
      00FF27CBH   LINE      ---      ---       #205
      00FF27CEH   LINE      ---      ---       #206
      00FF27CEH   LINE      ---      ---       #299
      R7          REGSYM    ---      BYTE      retValue
      ---         BLOCKEND  CODE     ---       LVL=1
      00FF27D0H   LINE      ---      ---       #300
      00FF27D0H   LINE      CODE     ---       #300

      00FF2613H   BLOCK     CODE     ---       LVL=0
      00FF261BH   LINE      ---      ---       #304
      00FF261FH   LINE      ---      ---       #305
      00FF2613H   SYMBOL    CODE     NEAR LAB  ?L?COM0001
      R15         REGSYM    ---      BYTE      txState
      R7          REGSYM    ---      BYTE      localTxQueue
      R6          REGSYM    ---      BYTE      txQueueIdx
      00FF261FH   BLOCK     CODE     NEAR LAB  LVL=1
      00FF261FH   LINE      ---      ---       #307
      00FF261FH   LINE      ---      ---       #308
      00FF2622H   LINE      ---      ---       #310
      00FF2626H   LINE      ---      ---       #312
      00FF262AH   LINE      ---      ---       #313
      00FF262CH   LINE      ---      ---       #316
      00FF2633H   LINE      ---      ---       #317
      00FF2633H   LINE      ---      ---       #320
      00FF264CH   LINE      ---      ---       #322
      00FF264CH   LINE      ---      ---       #323
      00FF2655H   LINE      ---      ---       #324
      00FF2657H   LINE      ---      ---       #325
      00FF2657H   LINE      ---      ---       #326
L251 LINKER/LOCATER V4.66.93.0                                                        12/18/2023  14:26:43  PAGE 105


      00FF2660H   LINE      ---      ---       #327
      00FF2662H   LINE      ---      ---       #328
      00FF2662H   LINE      ---      ---       #329
      00FF266BH   LINE      ---      ---       #330
      00FF266DH   LINE      ---      ---       #331
      00FF266DH   LINE      ---      ---       #332
      00FF2676H   LINE      ---      ---       #333
      00FF2678H   LINE      ---      ---       #334
      00FF2678H   LINE      ---      ---       #335
      00FF2684H   LINE      ---      ---       #336
      00FF2684H   LINE      ---      ---       #338
      00FF2684H   LINE      ---      ---       #340
      00FF268DH   LINE      ---      ---       #344
      00FF268FH   LINE      ---      ---       #347
      R14         REGSYM    ---      BYTE      retValue
      ---         BLOCKEND  CODE     ---       LVL=1
      00FF2691H   LINE      ---      ---       #348
      00FF2691H   LINE      CODE     ---       #348

      00FF2B7FH   BLOCK     CODE     ---       LVL=0
      00FF2B7FH   LINE      ---      ---       #354
      00FF2B85H   LINE      ---      ---       #357
      00FF2B89H   LINE      ---      ---       #363
      00FF2BA6H   LINE      ---      ---       #369
      00FF2BA8H   LINE      ---      ---       #373
      00FF2BABH   LINE      ---      ---       #374
      00FF2BABH   LINE      ---      ---       #376
      R7          REGSYM    ---      BYTE      ackRequest
      WR2         REGSYM    ---      WORD      interFrameSpace
      DR28        REGSYM    ---      DWORD     ackWaitDuration
      ---         BLOCKEND  ---      ---       LVL=0

      00FF7933H   BLOCK     CODE     ---       LVL=0
      00FF7933H   LINE      ---      ---       #380
      00FF7937H   LINE      ---      ---       #381
      R10         REGSYM    ---      BYTE      qId
      00FF7937H   BLOCK     CODE     NEAR LAB  LVL=1
      00FF7937H   LINE      ---      ---       #383
      00FF793AH   LINE      ---      ---       #385
      00FF7940H   LINE      ---      ---       #386
      00FF794CH   LINE      ---      ---       #388
      00FF795DH   LINE      ---      ---       #390
      00FF796AH   LINE      ---      ---       #391
      00FF7974H   LINE      ---      ---       #393
      00FF7981H   LINE      ---      ---       #394
      00FF7984H   LINE      ---      ---       #395
      00FF7984H   LINE      ---      ---       #397
      00FF7988H   LINE      ---      ---       #398
      00FF798BH   LINE      ---      ---       #399
      00FF7991H   LINE      ---      ---       #400
      00FF7994H   LINE      ---      ---       #401
      00FF7994H   LINE      ---      ---       #403
      00FF7998H   LINE      ---      ---       #404
      00FF799DH   LINE      ---      ---       #405
      00FF799FH   LINE      ---      ---       #406
      00FF79A1H   LINE      ---      ---       #407
      00FF79A3H   LINE      ---      ---       #408
      00FF79A3H   LINE      ---      ---       #409
      00FF79A9H   LINE      ---      ---       #410
      00FF79AEH   LINE      ---      ---       #411
      00FF79B1H   LINE      ---      ---       #412
      00FF79B3H   LINE      ---      ---       #413
      00FF79B6H   LINE      ---      ---       #414
      00FF79B6H   LINE      ---      ---       #415
      00FF79B6H   LINE      ---      ---       #439
L251 LINKER/LOCATER V4.66.93.0                                                        12/18/2023  14:26:43  PAGE 106


      0000AD88H   SYMBOL    EDATA    ---       mhr
      R15         REGSYM    ---      BYTE      offset
      R6          REGSYM    ---      BYTE      dest_mode
      R7          REGSYM    ---      BYTE      src_mode
      ---         BLOCKEND  CODE     ---       LVL=1
      00FF79C4H   LINE      ---      ---       #440
      00FF79C4H   LINE      CODE     ---       #440

      00FF2E42H   BLOCK     CODE     ---       LVL=0
      00FF2E42H   LINE      ---      ---       #444
      00FF2E4EH   LINE      ---      ---       #445
      0000AF59H   SYMBOL    EDATA    INT       aesLv
      0000AF5BH   SYMBOL    EDATA    WORD      aDataLen
      WR12        REGSYM    ---      WORD      mDataLen
      00FF2E4EH   BLOCK     CODE     NEAR LAB  LVL=1
      00FF2E4EH   LINE      ---      ---       #449
      00FF2E54H   LINE      ---      ---       #450
      00FF2E5EH   LINE      ---      ---       #451
      00FF2E60H   LINE      ---      ---       #454
      00FF2E68H   LINE      ---      ---       #455
      00FF2E6FH   LINE      ---      ---       #459
      00FF2E9AH   LINE      ---      ---       #460
      00FF2E9EH   LINE      ---      ---       #461
      00FF2E9EH   LINE      ---      ---       #463
      R15         REGSYM    ---      BYTE      retValue
      ---         BLOCKEND  CODE     ---       LVL=1
      00FF2E9FH   LINE      ---      ---       #464
      00FF2E9FH   LINE      CODE     ---       #464

      00FF2B6EH   BLOCK     CODE     ---       LVL=0
      00FF2B6EH   LINE      ---      ---       #467
      00FF2B6EH   LINE      ---      ---       #469
      00FF2B71H   LINE      ---      ---       #486
      ---         BLOCKEND  ---      ---       LVL=0

      00FF79C7H   BLOCK     CODE     ---       LVL=0
      00FF79C7H   LINE      ---      ---       #490
      00FF79C7H   LINE      ---      ---       #491
      00FF79C7H   BLOCK     CODE     NEAR LAB  LVL=1
      00FF79C7H   LINE      ---      ---       #495
      00FF79C7H   LINE      ---      ---       #496
      00FF79D1H   LINE      ---      ---       #498
      R10         REGSYM    ---      BYTE      rfStateTmp
      ---         BLOCKEND  CODE     ---       LVL=1
      00FF79D6H   LINE      ---      ---       #500
      00FF79D6H   LINE      CODE     ---       #500

      00FF1F0EH   BLOCK     CODE     ---       LVL=0
      00FF1F0EH   LINE      ---      ---       #503
      00FF1F0EH   LINE      ---      ---       #504
      00FF1F0EH   BLOCK     CODE     NEAR LAB  LVL=1
      00FF1F0EH   LINE      ---      ---       #506
      00FF1F14H   LINE      ---      ---       #508
      00FF1F17H   LINE      ---      ---       #510
      00FF1F1DH   LINE      ---      ---       #513
      00FF1F24H   LINE      ---      ---       #515
      00FF1F2DH   LINE      ---      ---       #516
      00FF1F45H   LINE      ---      ---       #519
      00FF1F51H   LINE      ---      ---       #525
      00FF1F54H   LINE      ---      ---       #528
      DR4         REGSYM    ---      DWORD     ccaTime
      0000AF5DH   SYMBOL    EDATA    DWORD     backoffDuration
      ---         BLOCKEND  CODE     ---       LVL=1
      00FF1F60H   LINE      ---      ---       #530
      00FF1F60H   LINE      CODE     ---       #530
L251 LINKER/LOCATER V4.66.93.0                                                        12/18/2023  14:26:43  PAGE 107



      00FF2867H   BLOCK     CODE     ---       LVL=0
      00FF2867H   LINE      ---      ---       #532
      00FF286BH   LINE      ---      ---       #533
      00FF286BH   BLOCK     CODE     NEAR LAB  LVL=1
      00FF286BH   LINE      ---      ---       #537
      00FF286DH   LINE      ---      ---       #538
      00FF286FH   LINE      ---      ---       #539
      00FF2871H   LINE      ---      ---       #541
      00FF2878H   LINE      ---      ---       #542
      00FF2884H   LINE      ---      ---       #543
      00FF288CH   LINE      ---      ---       #544
      00FF2893H   LINE      ---      ---       #545
      00FF289DH   LINE      ---      ---       #550
      00FF28A3H   LINE      ---      ---       #551
      00FF28A6H   LINE      ---      ---       #556
      00FF28B6H   LINE      ---      ---       #559
      00FF28B9H   LINE      ---      ---       #560
      00FF28B9H   LINE      ---      ---       #564
      00FF28CAH   LINE      ---      ---       #566
      00FF28CAH   LINE      ---      ---       #567
      00FF28CCH   LINE      ---      ---       #568
      00FF28CEH   LINE      ---      ---       #569
      00FF28CEH   LINE      ---      ---       #570
      00FF28D0H   LINE      ---      ---       #571
      00FF28D2H   LINE      ---      ---       #572
      00FF28D2H   LINE      ---      ---       #573
      00FF28D6H   LINE      ---      ---       #574
      00FF28D8H   LINE      ---      ---       #575
      00FF28D8H   LINE      ---      ---       #576
      00FF28DCH   LINE      ---      ---       #577
      00FF28DCH   LINE      ---      ---       #578
      00FF28DCH   LINE      ---      ---       #579
      R5          REGSYM    ---      CHAR      ibRssi
      R7          REGSYM    ---      BYTE      cpmputeRssi
      R4          REGSYM    ---      BYTE      lnaGain
      R7          REGSYM    ---      BYTE      tiaGain
      R6          REGSYM    ---      BYTE      vgaGain
      R13         REGSYM    ---      BYTE      edState
      R14         REGSYM    ---      BYTE      csState
      R15         REGSYM    ---      BYTE      ccaStatus
      ---         BLOCKEND  CODE     ---       LVL=1
      00FF28DEH   LINE      ---      ---       #580
      00FF28DEH   LINE      CODE     ---       #580

      00FF2987H   BLOCK     CODE     ---       LVL=0
      00FF2987H   LINE      ---      ---       #584
      00FF2987H   LINE      ---      ---       #586
      00FF298FH   LINE      ---      ---       #587
      00FF2994H   LINE      ---      ---       #588
      00FF2998H   LINE      ---      ---       #589
      ---         BLOCKEND  ---      ---       LVL=0

      00FF278EH   BLOCK     CODE     ---       LVL=0
      00FF278EH   LINE      ---      ---       #630
      00FF278EH   LINE      ---      ---       #635
      00FF2795H   LINE      ---      ---       #637
      00FF279BH   LINE      ---      ---       #638
      00FF27A1H   LINE      ---      ---       #639
      00FF27A5H   LINE      ---      ---       #640
      ---         BLOCKEND  ---      ---       LVL=0

      00FF28E3H   BLOCK     CODE     ---       LVL=0
      00FF28E3H   LINE      ---      ---       #642
      00FF28E3H   LINE      ---      ---       #643
L251 LINKER/LOCATER V4.66.93.0                                                        12/18/2023  14:26:43  PAGE 108


      00FF28E3H   BLOCK     CODE     NEAR LAB  LVL=1
      00FF28E3H   LINE      ---      ---       #646
      00FF28EBH   LINE      ---      ---       #647
      00FF28F1H   LINE      ---      ---       #651
      00FF28F1H   LINE      ---      ---       #653
      00FF28F1H   LINE      ---      ---       #655
      00FF28F3H   LINE      ---      ---       #656
      00FF28F9H   LINE      ---      ---       #657
      00FF290AH   LINE      ---      ---       #658
      00FF2910H   LINE      ---      ---       #662
      00FF2929H   LINE      ---      ---       #665
      00FF292BH   LINE      ---      ---       #666
      00FF292EH   LINE      ---      ---       #667
      00FF2930H   LINE      ---      ---       #668
      00FF2933H   LINE      ---      ---       #669
      00FF2934H   LINE      ---      ---       #670
      00FF2934H   LINE      ---      ---       #676
      00FF2937H   LINE      ---      ---       #681
      00FF293AH   LINE      ---      ---       #683
      00FF293AH   LINE      ---      ---       #689
      00FF294BH   LINE      ---      ---       #693
      00FF294EH   LINE      ---      ---       #694
      00FF294EH   LINE      ---      ---       #696
      00FF2959H   LINE      ---      ---       #698
      00FF295CH   LINE      ---      ---       #699
      00FF2961H   LINE      ---      ---       #700
      00FF2963H   LINE      ---      ---       #701
      00FF2964H   LINE      ---      ---       #702
      00FF2964H   LINE      ---      ---       #705
      00FF296FH   LINE      ---      ---       #707
      00FF2971H   LINE      ---      ---       #709
      00FF2974H   LINE      ---      ---       #710
      00FF2977H   LINE      ---      ---       #716
      00FF297DH   LINE      ---      ---       #719
      00FF2985H   LINE      ---      ---       #722
      R10         REGSYM    ---      BYTE      raaState
      ---         BLOCKEND  CODE     ---       LVL=1
      ---         BLOCKEND  CODE     ---       LVL=0

      00FF1F04H   BLOCK     CODE     ---       LVL=0
      00FF1F04H   LINE      ---      ---       #728
      00FF1F04H   LINE      ---      ---       #731
      00FF1F07H   LINE      ---      ---       #735
      00FF1F09H   LINE      ---      ---       #738
      00FF1F0CH   LINE      ---      ---       #742
      ---         BLOCKEND  ---      ---       LVL=0

      00FF78AEH   BLOCK     CODE     ---       LVL=0
      00FF78AEH   LINE      ---      ---       #754
      00FF78AEH   LINE      ---      ---       #756
      ---         BLOCKEND  ---      ---       LVL=0

      00FF2DAAH   BLOCK     CODE     ---       LVL=0
      00FF2DAAH   LINE      ---      ---       #758
      00FF2DAAH   LINE      ---      ---       #765
      00FF2DADH   LINE      ---      ---       #766
      00FF2DB0H   LINE      ---      ---       #784
      00FF2DB0H   BLOCK     CODE     NEAR LAB  LVL=1
      00FF2DB0H   LINE      ---      ---       #786
      00FF2DB8H   LINE      ---      ---       #787
      00FF2DC0H   LINE      ---      ---       #788
      00FF2DC8H   LINE      ---      ---       #789
      00FF2DD0H   LINE      ---      ---       #790
      0000AF06H   SYMBOL    EDATA    ---       cb
      ---         BLOCKEND  CODE     ---       LVL=1
L251 LINKER/LOCATER V4.66.93.0                                                        12/18/2023  14:26:43  PAGE 109


      00FF2DD6H   LINE      ---      ---       #791
      00FF2DD6H   LINE      ---      ---       #802
      00FF2DDCH   LINE      ---      ---       #805
      00FF2DE0H   LINE      ---      ---       #812
      00FF2DE3H   LINE      ---      ---       #815
      00FF2DE5H   LINE      ---      ---       #818
      00FF2DE9H   LINE      ---      ---       #819
      00FF2DEBH   LINE      ---      ---       #823
      00FF2DF2H   LINE      ---      ---       #826
      00FF2DF5H   LINE      ---      ---       #829
      00FF2DFAH   LINE      ---      ---       #830
      00FF2E07H   LINE      ---      ---       #834
      00FF2E0BH   LINE      ---      ---       #836
      00FF2E0DH   LINE      ---      ---       #839
      00FF2E10H   LINE      ---      ---       #842
      00FF2E17H   LINE      ---      ---       #847
      00FF2E1AH   LINE      ---      ---       #848
      00FF2E1AH   LINE      ---      ---       #850
      00FF2E22H   LINE      ---      ---       #851
      00FF2E22H   LINE      ---      ---       #854
      00FF2E22H   LINE      CODE     ---       #854

      00FF2A99H   BLOCK     CODE     ---       LVL=0
      00FF2A99H   LINE      ---      ---       #861
      00FF2A9DH   LINE      ---      ---       #862
      00FF2A9DH   BLOCK     CODE     NEAR LAB  LVL=1
      00FF2A9DH   LINE      ---      ---       #863
      00FF2A9DH   LINE      ---      ---       #864
      00FF2A9DH   LINE      ---      ---       #867
      00FF2AA2H   LINE      ---      ---       #868
      00FF2AAAH   LINE      ---      ---       #870
      00FF2AACH   LINE      ---      ---       #874
      00FF2ABBH   LINE      ---      ---       #876
      00FF2ABDH   LINE      ---      ---       #878
      00FF2AC3H   LINE      ---      ---       #880
      00FF2AC6H   LINE      ---      ---       #882
      00FF2ACDH   LINE      ---      ---       #883
      00FF2ACFH   LINE      ---      ---       #884
      00FF2ACFH   LINE      ---      ---       #887
      00FF2AD3H   LINE      ---      ---       #888
      00FF2AD8H   LINE      ---      ---       #890
      00FF2ADBH   LINE      ---      ---       #891
      00FF2AE5H   LINE      ---      ---       #893
      00FF2AE8H   LINE      ---      ---       #897
      00FF2AEDH   LINE      ---      ---       #902
      00FF2AF0H   LINE      ---      ---       #903
      00FF2AF0H   LINE      ---      ---       #906
      00FF2AF3H   LINE      ---      ---       #907
      00FF2AF7H   LINE      ---      ---       #908
      00FF2AF9H   LINE      ---      ---       #909
      00FF2AF9H   LINE      ---      ---       #914
      00FF2AFCH   LINE      ---      ---       #917
      00FF2B04H   LINE      ---      ---       #919
      00FF2B0DH   LINE      ---      ---       #920
      00FF2B0FH   LINE      ---      ---       #921
      00FF2B13H   LINE      ---      ---       #923
      00FF2B16H   LINE      ---      ---       #926
      00FF2B19H   LINE      ---      ---       #927
      00FF2B1DH   LINE      ---      ---       #934
      00FF2B20H   LINE      ---      ---       #937
      00FF2B22H   LINE      ---      ---       #939
      00FF2B2AH   LINE      ---      ---       #940
      00FF2B2FH   LINE      ---      ---       #943
      00FF2B37H   LINE      ---      ---       #944
      00FF2B39H   LINE      ---      ---       #946
L251 LINKER/LOCATER V4.66.93.0                                                        12/18/2023  14:26:43  PAGE 110


      00FF2B3FH   LINE      ---      ---       #948
      00FF2B42H   LINE      ---      ---       #949
      00FF2B45H   LINE      ---      ---       #952
      00FF2B4BH   LINE      ---      ---       #953
      00FF2B54H   LINE      ---      ---       #966
      00FF2B5AH   LINE      ---      ---       #967
      00FF2B5FH   LINE      ---      ---       #970
      00FF2B67H   LINE      ---      ---       #971
      00FF2B69H   LINE      ---      ---       #972
      WR14        REGSYM    ---      WORD      macFunEventQueue
      R13         REGSYM    ---      BYTE      ccaStatus
      0000AF97H   SYMBOL    EDATA    BYTE      checkCCADrop
      ---         BLOCKEND  CODE     ---       LVL=1
      ---         BLOCKEND  CODE     ---       LVL=0

      00FF6323H   BLOCK     CODE     ---       LVL=0
      00FF6323H   LINE      ---      ---       #976
      00FF6323H   LINE      ---      ---       #977
      00FF6323H   BLOCK     CODE     NEAR LAB  LVL=1
      00FF6323H   LINE      ---      ---       #989
      00FF6326H   LINE      ---      ---       #990
      00FF632CH   LINE      ---      ---       #992
      00FF632FH   LINE      ---      ---       #993
      00FF6332H   LINE      ---      ---       #995
      00FF634AH   LINE      ---      ---       #1002
      00FF6351H   LINE      ---      ---       #1004
      00FF6354H   LINE      ---      ---       #1007
      00FF6354H   LINE      ---      ---       #1010
      00FF635AH   LINE      ---      ---       #1012
      00FF635EH   LINE      ---      ---       #1014
      00FF6360H   LINE      ---      ---       #1018
      00FF6363H   LINE      ---      ---       #1025
      00FF636AH   LINE      ---      ---       #1026
      00FF636DH   LINE      ---      ---       #1027
      00FF636DH   LINE      ---      ---       #1030
      00FF6388H   LINE      ---      ---       #1034
      00FF638BH   LINE      ---      ---       #1037
      00FF6393H   LINE      ---      ---       #1038
      00FF6393H   LINE      ---      ---       #1040
      WR6         REGSYM    ---      WORD      macFunEventQueue
      ---         BLOCKEND  CODE     ---       LVL=1
      ---         BLOCKEND  CODE     ---       LVL=0

      00FF78AFH   BLOCK     CODE     ---       LVL=0
      00FF78AFH   LINE      ---      ---       #1043
      00FF78AFH   LINE      ---      ---       #1044
      00FF78AFH   BLOCK     CODE     NEAR LAB  LVL=1
      00FF78AFH   LINE      ---      ---       #1045
      00FF78AFH   LINE      ---      ---       #1047
      00FF78B2H   LINE      ---      ---       #1048
      00FF78B8H   LINE      ---      ---       #1050
      00FF78BBH   LINE      ---      ---       #1052
      00FF78C3H   LINE      ---      ---       #1053
      00FF78C4H   LINE      ---      ---       #1054
      00FF78CAH   LINE      ---      ---       #1056
      00FF78CDH   LINE      ---      ---       #1059
      00FF78D7H   LINE      ---      ---       #1061
      00FF78DAH   LINE      ---      ---       #1063
      00FF78DEH   LINE      ---      ---       #1064
      00FF78E0H   LINE      ---      ---       #1067
      00FF78E3H   LINE      ---      ---       #1071
      00FF78EAH   LINE      ---      ---       #1075
      00FF78EDH   LINE      ---      ---       #1078
      00FF78F0H   LINE      ---      ---       #1080
      00FF78F8H   LINE      ---      ---       #1081
L251 LINKER/LOCATER V4.66.93.0                                                        12/18/2023  14:26:43  PAGE 111


      00FF78F8H   LINE      ---      ---       #1082
      00FF7901H   LINE      ---      ---       #1083
      WR6         REGSYM    ---      WORD      macFunEventQueue
      ---         BLOCKEND  CODE     ---       LVL=1
      ---         BLOCKEND  CODE     ---       LVL=0

      00FF2694H   BLOCK     CODE     ---       LVL=0
      00FF2694H   LINE      ---      ---       #1086
      00FF2694H   LINE      ---      ---       #1087
      00FF2694H   BLOCK     CODE     NEAR LAB  LVL=1
      00FF2694H   LINE      ---      ---       #1088
      00FF2694H   LINE      ---      ---       #1090
      00FF2697H   LINE      ---      ---       #1091
      00FF26A7H   LINE      ---      ---       #1092
      WR6         REGSYM    ---      WORD      macFunEventQueue
      00FF26A7H   BLOCK     CODE     NEAR LAB  LVL=2
      00FF26A7H   LINE      ---      ---       #1095
      00FF26AAH   LINE      ---      ---       #1098
      00FF26AFH   LINE      ---      ---       #1100
      00FF26B8H   LINE      ---      ---       #1101
      00FF26BCH   LINE      ---      ---       #1103
      00FF26C9H   LINE      ---      ---       #1104
      R11         REGSYM    ---      BYTE      macRxInfo
      00FF26C9H   BLOCK     CODE     NEAR LAB  LVL=3
      00FF26C9H   LINE      ---      ---       #1107
      00FF26CCH   LINE      ---      ---       #1117
      00FF26D9H   LINE      ---      ---       #1118
      00FF26DDH   LINE      ---      ---       #1123
      00FF26E0H   LINE      ---      ---       #1126
      00FF26F2H   LINE      ---      ---       #1127
      00FF26F8H   LINE      ---      ---       #1135
      00FF2722H   LINE      ---      ---       #1139
      00FF2726H   LINE      ---      ---       #1140
      00FF2728H   LINE      ---      ---       #1141
      00FF2730H   LINE      ---      ---       #1142
      00FF2730H   LINE      ---      ---       #1143
      00FF2732H   LINE      ---      ---       #1150
      00FF273AH   LINE      ---      ---       #1151
      00FF273DH   LINE      ---      ---       #1152
      00FF273DH   LINE      ---      ---       #1154
      00FF2749H   LINE      ---      ---       #1155
      R11         REGSYM    ---      BYTE      trx_state
      ---         BLOCKEND  CODE     ---       LVL=3
      00FF2749H   LINE      ---      ---       #1156
      00FF2749H   LINE      ---      ---       #1162
      00FF274CH   LINE      ---      ---       #1163
      00FF274CH   LINE      ---      ---       #1164
      00FF274EH   LINE      ---      ---       #1170
      00FF2751H   LINE      ---      ---       #1171
      00FF2751H   LINE      ---      ---       #1172
      00FF2754H   LINE      ---      ---       #1173
      00FF2760H   LINE      ---      ---       #1177
      00FF276AH   LINE      ---      ---       #1180
      00FF276EH   LINE      ---      ---       #1181
      00FF2770H   LINE      ---      ---       #1184
      00FF2773H   LINE      ---      ---       #1188
      00FF2779H   LINE      ---      ---       #1192
      00FF277CH   LINE      ---      ---       #1194
      00FF2784H   LINE      ---      ---       #1195
      00FF2784H   LINE      ---      ---       #1196
      00FF2784H   LINE      CODE     ---       #1196
      ---         BLOCKEND  CODE     ---       LVL=1
      00FF278DH   LINE      ---      ---       #1197
      00FF278DH   LINE      CODE     ---       #1197

L251 LINKER/LOCATER V4.66.93.0                                                        12/18/2023  14:26:43  PAGE 112


      00FF1DEEH   BLOCK     CODE     ---       LVL=0
      00FF1DEEH   LINE      ---      ---       #1200
      00FF1DEEH   LINE      ---      ---       #1201
      00FF1DEEH   BLOCK     CODE     NEAR LAB  LVL=1
      00FF1DEEH   LINE      ---      ---       #1202
      00FF1DEEH   LINE      ---      ---       #1204
      00FF1DF1H   LINE      ---      ---       #1205
      00FF1DF4H   LINE      ---      ---       #1206
      00FF1DF8H   LINE      ---      ---       #1207
      00FF1DFBH   LINE      ---      ---       #1208
      00FF1E82H   LINE      ---      ---       #1210
      00FF1E82H   LINE      ---      ---       #1211
      00FF1E82H   LINE      ---      ---       #1212
      00FF1E82H   LINE      ---      ---       #1213
      00FF1E82H   LINE      ---      ---       #1214
      00FF1E82H   LINE      ---      ---       #1215
      00FF1E86H   LINE      ---      ---       #1216
      00FF1E88H   LINE      ---      ---       #1217
      00FF1E88H   LINE      ---      ---       #1218
      00FF1E8BH   LINE      ---      ---       #1219
      00FF1E8DH   LINE      ---      ---       #1220
      00FF1E8DH   LINE      ---      ---       #1221
      00FF1E8DH   LINE      ---      ---       #1222
      WR6         REGSYM    ---      WORD      macFunEventQueue
      00FF1E8DH   BLOCK     CODE     NEAR LAB  LVL=2
      00FF1E8DH   LINE      ---      ---       #1226
      00FF1E95H   LINE      ---      ---       #1227
      00FF1EA1H   LINE      ---      ---       #1228
      00FF1EA3H   LINE      ---      ---       #1229
      00FF1EA5H   LINE      ---      ---       #1233
      00FF1EA8H   LINE      ---      ---       #1235
      00FF1EB3H   LINE      ---      ---       #1236
      00FF1EB5H   LINE      ---      ---       #1238
      00FF1EB9H   LINE      ---      ---       #1239
      00FF1EBBH   LINE      ---      ---       #1243
      00FF1EC2H   LINE      ---      ---       #1245
      00FF1EC5H   LINE      ---      ---       #1249
      00FF1EC5H   LINE      ---      ---       #1251
      00FF1EC9H   LINE      ---      ---       #1252
      00FF1EC9H   LINE      ---      ---       #1253
      DR4         REGSYM    ---      DWORD     rtc
      ---         BLOCKEND  CODE     ---       LVL=2
      00FF1EC9H   LINE      ---      ---       #1255
      00FF1ECBH   LINE      ---      ---       #1257
      00FF1ECBH   LINE      ---      ---       #1258
      00FF1ECBH   LINE      ---      ---       #1259
      00FF1ECBH   LINE      ---      ---       #1260
      00FF1ECEH   LINE      ---      ---       #1262
      00FF1ED9H   LINE      ---      ---       #1263
      00FF1EDBH   LINE      ---      ---       #1265
      00FF1EDFH   LINE      ---      ---       #1266
      00FF1EE1H   LINE      ---      ---       #1270
      00FF1EE8H   LINE      ---      ---       #1272
      00FF1EEBH   LINE      ---      ---       #1276
      00FF1EEBH   LINE      ---      ---       #1278
      00FF1EF3H   LINE      ---      ---       #1279
      00FF1EF3H   LINE      ---      ---       #1281
      00FF1EF5H   LINE      ---      ---       #1282
      00FF1EF5H   LINE      ---      ---       #1283
      00FF1EF8H   LINE      ---      ---       #1284
      00FF1EF8H   LINE      ---      ---       #1285
      00FF1EF8H   LINE      ---      ---       #1286
      00FF1EF8H   LINE      CODE     ---       #1286
      ---         BLOCKEND  CODE     ---       LVL=0

L251 LINKER/LOCATER V4.66.93.0                                                        12/18/2023  14:26:43  PAGE 113


      00FF1FC8H   BLOCK     CODE     ---       LVL=0
      00FF1FC8H   LINE      ---      ---       #1289
      00FF1FC8H   LINE      ---      ---       #1290
      00FF1FC8H   BLOCK     CODE     NEAR LAB  LVL=1
      00FF1FC8H   LINE      ---      ---       #1293
      00FF1FCBH   LINE      ---      ---       #1294
      00FF1FCEH   LINE      ---      ---       #1295
      00FF1FD4H   LINE      ---      ---       #1297
      00FF1FD7H   LINE      ---      ---       #1299
      00FF1FE2H   LINE      ---      ---       #1300
      00FF1FE4H   LINE      ---      ---       #1302
      00FF1FE8H   LINE      ---      ---       #1303
      00FF1FEAH   LINE      ---      ---       #1307
      00FF1FF1H   LINE      ---      ---       #1309
      00FF1FF4H   LINE      ---      ---       #1314
      00FF1FF4H   LINE      ---      ---       #1316
      00FF1FFCH   LINE      ---      ---       #1317
      00FF1FFCH   LINE      ---      ---       #1319
      WR6         REGSYM    ---      WORD      macFunEventQueue
      ---         BLOCKEND  CODE     ---       LVL=1
      ---         BLOCKEND  CODE     ---       LVL=0

      00FF7902H   BLOCK     CODE     ---       LVL=0
      00FF7902H   LINE      ---      ---       #1322
      00FF7902H   LINE      ---      ---       #1324
      00FF7905H   LINE      ---      ---       #1355
      00FF790AH   LINE      ---      ---       #1359
      00FF7910H   LINE      ---      ---       #1360
      00FF7916H   LINE      ---      ---       #1363
      00FF791BH   LINE      ---      ---       #1364
      00FF791DH   LINE      ---      ---       #1368
      00FF7923H   LINE      ---      ---       #1369
      00FF792BH   LINE      ---      ---       #1370
      00FF792BH   LINE      ---      ---       #1373
      ---         BLOCKEND  ---      ---       LVL=0

      00FF7932H   BLOCK     CODE     ---       LVL=0
      00FF7932H   LINE      ---      ---       #1382
      00FF7932H   LINE      ---      ---       #1384
      ---         BLOCKEND  ---      ---       LVL=0

      00FF68BFH   BLOCK     CODE     ---       LVL=0
      00FF68BFH   LINE      ---      ---       #1386
      00FF68BFH   LINE      ---      ---       #1390
      00FF68C6H   LINE      ---      ---       #1392
      00FF68C6H   LINE      ---      ---       #1393
      00FF68C6H   LINE      ---      ---       #1398
      00FF68D2H   LINE      ---      ---       #1400
      ---         BLOCKEND  ---      ---       LVL=0

      00FF27D1H   BLOCK     CODE     ---       LVL=0
      00FF27D1H   LINE      ---      ---       #1402
      00FF27D1H   LINE      ---      ---       #1404
      00FF27E2H   LINE      ---      ---       #1405
      00FF27E8H   LINE      ---      ---       #1406
      ---         BLOCKEND  ---      ---       LVL=0

      00FF27A6H   BLOCK     CODE     ---       LVL=0
      00FF27A6H   LINE      ---      ---       #1410
      00FF27A6H   LINE      ---      ---       #1412
      ---         BLOCKEND  ---      ---       LVL=0

      ---         MODULE    ---      ---       mac_cad

      ---         MODULE    ---      ---       mac_scheduler
L251 LINKER/LOCATER V4.66.93.0                                                        12/18/2023  14:26:43  PAGE 114



      ---         MODULE    ---      ---       mac_RfeRx
      00FF240BH   PUBLIC    CODE     ---       MAC_RfeRxDisable
      00FF55C3H   PUBLIC    CODE     ---       MAC_RfeRxRptGet
      00FF5109H   PUBLIC    CODE     ---       MAC_RfeRxParInit
      00FF1ACDH   PUBLIC    CODE     ---       MAC_RfeRxSchedule
      00FF24A4H   PUBLIC    CODE     ---       MAC_RfeRxAonTaskDisable
      00FF79D7H   PUBLIC    CODE     ---       MAC_RfeSecLbHwSet
      00FF61C3H   PUBLIC    CODE     ---       MAC_RfeRxDataConfirm
      0000ADECH   PUBLIC    EDATA    INT       gMacRfeRxState
      0000ADEEH   PUBLIC    EDATA    ---       gMacRfeRxCtrl
      0000ADFDH   PUBLIC    EDATA    ---       gMacRfeRpt
      000000A8H.7 SFRSYM    DATA     BIT       EA
      00000080H   SFRSYM    DATA     BYTE      P0

      00FF240BH   BLOCK     CODE     ---       LVL=0
      00FF240BH   LINE      ---      ---       #55
      00FF240FH   LINE      ---      ---       #57
      00FF2411H   LINE      ---      ---       #61
      00FF2414H   LINE      ---      ---       #62
      00FF242FH   LINE      ---      ---       #63
      00FF2432H   LINE      ---      ---       #64
      00FF2438H   LINE      ---      ---       #65
      00FF243DH   LINE      ---      ---       #66
      00FF2443H   LINE      ---      ---       #67
      00FF2447H   LINE      ---      ---       #68
      00FF2449H   LINE      ---      ---       #69
      R15         REGSYM    ---      BYTE      bTxSecClr
      ---         BLOCKEND  ---      ---       LVL=0

      00FF24A4H   BLOCK     CODE     ---       LVL=0
      00FF24A4H   LINE      ---      ---       #71
      00FF24A4H   LINE      ---      ---       #73
      00FF24A6H   LINE      ---      ---       #74
      00FF24ACH   LINE      ---      ---       #75
      00FF24AFH   LINE      ---      ---       #76
      00FF24B1H   LINE      ---      ---       #77
      ---         BLOCKEND  ---      ---       LVL=0

      00FF55C3H   BLOCK     CODE     ---       LVL=0
      00FF55C3H   LINE      ---      ---       #79
      00FF55C3H   LINE      ---      ---       #81
      00FF55C9H   LINE      ---      ---       #82
      00FF55D4H   LINE      ---      ---       #83
      REG=3       REGSYM    ---      ---       pPassCnt
      REG=2       REGSYM    ---      ---       pFailCnt
      ---         BLOCKEND  ---      ---       LVL=0

      00FF79D7H   BLOCK     CODE     ---       LVL=0
      00FF79D7H   LINE      ---      ---       #85
      00FF79D9H   LINE      ---      ---       #86
      WR8         REGSYM    ---      WORD      pktLen
      00FF79D9H   BLOCK     CODE     NEAR LAB  LVL=1
      00FF79D9H   LINE      ---      ---       #90
      00FF79DDH   LINE      ---      ---       #91
      00FF79E1H   LINE      ---      ---       #92
      00FF7A02H   LINE      ---      ---       #93
      00FF7A08H   LINE      ---      ---       #94
      00FF7A0AH   LINE      ---      ---       #95
      00FF7A10H   LINE      ---      ---       #96
      00FF7A16H   LINE      ---      ---       #98
      00FF7A1AH   LINE      ---      ---       #99
      00FF7A1CH   LINE      ---      ---       #101
      00FF7A20H   LINE      ---      ---       #102
      00FF7A22H   LINE      ---      ---       #103
L251 LINKER/LOCATER V4.66.93.0                                                        12/18/2023  14:26:43  PAGE 115


      00FF7A28H   LINE      ---      ---       #105
      00FF7A2CH   LINE      ---      ---       #106
      00FF7A2EH   LINE      ---      ---       #108
      00FF7A32H   LINE      ---      ---       #109
      00FF7A32H   LINE      ---      ---       #111
      WR4         REGSYM    ---      WORD      aDataLen
      WR2         REGSYM    ---      WORD      mDataLen
      WR6         REGSYM    ---      WORD      payloadLen
      R7          REGSYM    ---      BYTE      micLen
      ---         BLOCKEND  CODE     ---       LVL=1
      ---         BLOCKEND  CODE     ---       LVL=0

      00FF61C3H   BLOCK     CODE     ---       LVL=0
      00FF61C3H   LINE      ---      ---       #114
      00FF61C5H   LINE      ---      ---       #115
      00FF61C5H   BLOCK     CODE     NEAR LAB  LVL=1
      00FF61C5H   LINE      ---      ---       #120
      00FF61D7H   LINE      ---      ---       #122
      00FF61FCH   LINE      ---      ---       #123
      00FF6202H   LINE      ---      ---       #126
      00FF6208H   LINE      ---      ---       #127
      00FF621DH   LINE      ---      ---       #129
      00FF622BH   LINE      ---      ---       #131
      00FF6233H   LINE      ---      ---       #133
      00FF6237H   LINE      ---      ---       #135
      00FF6254H   LINE      ---      ---       #136
      00FF6257H   LINE      ---      ---       #137
      00FF625DH   LINE      ---      ---       #138
      00FF625FH   LINE      ---      ---       #141
      00FF626EH   LINE      ---      ---       #142
      00FF6272H   LINE      ---      ---       #144
      00FF627EH   LINE      ---      ---       #145
      00FF6281H   LINE      ---      ---       #146
      00FF6287H   LINE      ---      ---       #147
      00FF6287H   LINE      ---      ---       #148
      00FF6287H   LINE      ---      ---       #149
      R7          REGSYM    ---      BYTE      dataTemp
      0000AF98H   SYMBOL    EDATA    BYTE      phrLenTemp
      WR12        REGSYM    ---      WORD      dataLenTemp
      WR14        REGSYM    ---      WORD      idx
      ---         BLOCKEND  CODE     ---       LVL=1
      00FF6289H   LINE      ---      ---       #150
      00FF6289H   LINE      CODE     ---       #150

      00FF5109H   BLOCK     CODE     ---       LVL=0
      00FF5109H   LINE      ---      ---       #152
      00FF5113H   LINE      ---      ---       #154
      00FF5118H   LINE      ---      ---       #155
      00FF511EH   LINE      ---      ---       #156
      00FF5124H   LINE      ---      ---       #157
      00FF5128H   LINE      ---      ---       #158
      00FF512CH   LINE      ---      ---       #159
      00FF5130H   LINE      ---      ---       #160
      00FF513AH   LINE      ---      ---       #161
      00FF5144H   LINE      ---      ---       #163
      00FF5148H   LINE      ---      ---       #164
      00FF514CH   LINE      ---      ---       #165
      00FF5150H   LINE      ---      ---       #171
      00FF5154H   LINE      ---      ---       #173
      00FF515CH   LINE      ---      ---       #174
      00FF516AH   LINE      ---      ---       #175
      00FF5178H   LINE      ---      ---       #176
      R1          REGSYM    ---      BYTE      pktType
      R2          REGSYM    ---      BYTE      queueType
      R3          REGSYM    ---      BYTE      rxType
L251 LINKER/LOCATER V4.66.93.0                                                        12/18/2023  14:26:43  PAGE 116


      R10         REGSYM    ---      BYTE      ackEnable
      WR8         REGSYM    ---      WORD      ackInterval
      ---         BLOCKEND  ---      ---       LVL=0

      00FF1ACDH   BLOCK     CODE     ---       LVL=0
      00FF1ACDH   LINE      ---      ---       #179
      00FF1ACFH   LINE      ---      ---       #180
      00FF1ACFH   BLOCK     CODE     NEAR LAB  LVL=1
      00FF1ACFH   LINE      ---      ---       #181
      00FF1ACFH   LINE      ---      ---       #185
      00FF1ADAH   LINE      ---      ---       #187
      00FF1ADAH   LINE      ---      ---       #188
      00FF1ADAH   LINE      ---      ---       #191
      00FF1B0AH   LINE      ---      ---       #193
      00FF1B0AH   LINE      ---      ---       #194
      00FF1B0DH   LINE      ---      ---       #196
      WR6         REGSYM    ---      WORD      macFunEventQueue
      R15         REGSYM    ---      BYTE      retValue
      00FF1B0DH   BLOCK     CODE     NEAR LAB  LVL=2
      00FF1B0DH   LINE      ---      ---       #198
      00FF1B15H   LINE      ---      ---       #199
      00FF1B1DH   LINE      ---      ---       #200
      00FF1B25H   LINE      ---      ---       #201
      00FF1B2DH   LINE      ---      ---       #202
      0000AF0EH   SYMBOL    EDATA    ---       cb
      ---         BLOCKEND  CODE     ---       LVL=2
      00FF1B34H   LINE      ---      ---       #203
      00FF1B34H   LINE      ---      ---       #206
      00FF1B37H   LINE      ---      ---       #209
      00FF1B4DH   LINE      ---      ---       #211
      00FF1B51H   LINE      ---      ---       #214
      00FF1B51H   LINE      ---      ---       #215
      00FF1B53H   LINE      ---      ---       #218
      00FF1B59H   LINE      ---      ---       #219
      00FF1B5FH   LINE      ---      ---       #221
      00FF1B64H   LINE      ---      ---       #240
      00FF1B6AH   LINE      ---      ---       #243
      00FF1B70H   LINE      ---      ---       #245
      00FF1B72H   LINE      ---      ---       #246
      00FF1B77H   LINE      ---      ---       #247
      00FF1B77H   LINE      ---      ---       #251
      00FF1B7DH   LINE      ---      ---       #252
      00FF1B85H   LINE      ---      ---       #253
      00FF1B8BH   LINE      ---      ---       #255
      00FF1B8DH   LINE      ---      ---       #256
      00FF1B92H   LINE      ---      ---       #257
      00FF1B92H   LINE      ---      ---       #260
      00FF1B96H   LINE      ---      ---       #261
      00FF1B96H   LINE      ---      ---       #286
      00FF1B98H   LINE      ---      ---       #288
      00FF1B98H   LINE      ---      ---       #289
      00FF1B9BH   LINE      ---      ---       #290
      00FF1BA1H   LINE      ---      ---       #292
      00FF1BA4H   LINE      ---      ---       #293
      00FF1BA8H   LINE      ---      ---       #296
      00FF1BA8H   LINE      ---      ---       #297
      00FF1BAAH   LINE      ---      ---       #298
      00FF1BB0H   LINE      ---      ---       #300
      00FF1BB7H   LINE      ---      ---       #301
      00FF1BBAH   LINE      ---      ---       #302
      00FF1BBEH   LINE      ---      ---       #303
      00FF1BC0H   LINE      ---      ---       #304
      00FF1BC8H   LINE      ---      ---       #306
      00FF1BCBH   LINE      ---      ---       #307
      00FF1BCFH   LINE      ---      ---       #310
L251 LINKER/LOCATER V4.66.93.0                                                        12/18/2023  14:26:43  PAGE 117


      00FF1BCFH   LINE      ---      ---       #311
      00FF1BCFH   LINE      ---      ---       #330
      00FF1BD1H   LINE      ---      ---       #332
      00FF1BD1H   LINE      ---      ---       #333
      00FF1BD4H   LINE      ---      ---       #334
      00FF1BDCH   LINE      ---      ---       #336
      00FF1BDFH   LINE      ---      ---       #339
      00FF1BFFH   LINE      ---      ---       #342
      00FF1C10H   LINE      ---      ---       #343
      00FF1C13H   LINE      ---      ---       #346
      00FF1C1AH   LINE      ---      ---       #348
      00FF1C2EH   LINE      ---      ---       #352
      00FF1C36H   LINE      ---      ---       #355
      00FF1C3CH   LINE      ---      ---       #357
      00FF1C3FH   LINE      ---      ---       #358
      00FF1C45H   LINE      ---      ---       #359
      00FF1C45H   LINE      ---      ---       #362
      00FF1C50H   LINE      ---      ---       #365
      00FF1C52H   LINE      ---      ---       #366
      00FF1C58H   LINE      ---      ---       #369
      00FF1C5CH   LINE      ---      ---       #372
      00FF1C5CH   LINE      ---      ---       #373
      00FF1C5CH   LINE      ---      ---       #374
      00FF1C5EH   LINE      ---      ---       #378
      00FF1C62H   LINE      ---      ---       #381
      00FF1C62H   LINE      ---      ---       #382
      00FF1C62H   LINE      ---      ---       #383
      00FF1C62H   LINE      ---      ---       #384
      00FF1C64H   LINE      ---      ---       #386
      00FF1C64H   LINE      ---      ---       #387
      00FF1C67H   LINE      ---      ---       #388
      00FF1C6FH   LINE      ---      ---       #390
      00FF1C72H   LINE      ---      ---       #393
      00FF1C75H   LINE      ---      ---       #396
      00FF1C79H   LINE      ---      ---       #399
      00FF1C79H   LINE      ---      ---       #400
      00FF1C79H   LINE      ---      ---       #401
      00FF1C7BH   LINE      ---      ---       #403
      00FF1C7BH   LINE      ---      ---       #406
      00FF1C7EH   LINE      ---      ---       #408
      00FF1C8DH   LINE      ---      ---       #410
      00FF1C93H   LINE      ---      ---       #411
      00FF1C98H   LINE      ---      ---       #413
      00FF1C9BH   LINE      ---      ---       #414
      00FF1CA5H   LINE      ---      ---       #415
      00FF1CBEH   LINE      ---      ---       #416
      00FF1CC0H   LINE      ---      ---       #417
      00FF1CC5H   LINE      ---      ---       #420
      00FF1CCBH   LINE      ---      ---       #421
      00FF1CCEH   LINE      ---      ---       #423
      00FF1CD3H   LINE      ---      ---       #424
      00FF1CD6H   LINE      ---      ---       #425
      00FF1CE0H   LINE      ---      ---       #426
      00FF1CE2H   LINE      ---      ---       #429
      00FF1CE5H   LINE      ---      ---       #430
      00FF1CEFH   LINE      ---      ---       #431
      00FF1CEFH   LINE      ---      ---       #434
      00FF1CF5H   LINE      ---      ---       #435
      00FF1CF8H   LINE      ---      ---       #437
      00FF1CFFH   LINE      ---      ---       #440
      00FF1D05H   LINE      ---      ---       #443
      00FF1D11H   LINE      ---      ---       #445
      00FF1D14H   LINE      ---      ---       #446
      00FF1D1AH   LINE      ---      ---       #447
      00FF1D1AH   LINE      ---      ---       #450
L251 LINKER/LOCATER V4.66.93.0                                                        12/18/2023  14:26:43  PAGE 118


      00FF1D1DH   LINE      ---      ---       #453
      00FF1D23H   LINE      ---      ---       #456
      00FF1D26H   LINE      ---      ---       #457
      00FF1D38H   LINE      ---      ---       #458
      00FF1D3CH   LINE      ---      ---       #461
      00FF1D4EH   LINE      ---      ---       #462
      00FF1D56H   LINE      ---      ---       #464
      00FF1D5DH   LINE      ---      ---       #467
      00FF1D61H   LINE      ---      ---       #468
      00FF1D63H   LINE      ---      ---       #472
      00FF1D67H   LINE      ---      ---       #473
      00FF1D67H   LINE      ---      ---       #474
      00FF1D69H   LINE      ---      ---       #478
      00FF1D71H   LINE      ---      ---       #481
      00FF1D74H   LINE      ---      ---       #482
      00FF1D74H   LINE      ---      ---       #483
      00FF1D76H   LINE      ---      ---       #485
      00FF1D76H   LINE      ---      ---       #486
      00FF1D79H   LINE      ---      ---       #487
      00FF1D7FH   LINE      ---      ---       #489
      00FF1D82H   LINE      ---      ---       #492
      00FF1D93H   LINE      ---      ---       #493
      00FF1D96H   LINE      ---      ---       #496
      00FF1DA3H   LINE      ---      ---       #499
      00FF1DABH   LINE      ---      ---       #502
      00FF1DAFH   LINE      ---      ---       #505
      00FF1DB5H   LINE      ---      ---       #506
      00FF1DB5H   LINE      ---      ---       #507
      00FF1DB7H   LINE      ---      ---       #509
      00FF1DB7H   LINE      ---      ---       #511
      00FF1DBAH   LINE      ---      ---       #514
      00FF1DBDH   LINE      ---      ---       #519
      00FF1DC5H   LINE      ---      ---       #520
      00FF1DC5H   LINE      ---      ---       #522
      00FF1DC5H   LINE      ---      ---       #523
      00FF1DC5H   LINE      ---      ---       #525
      00FF1DC5H   LINE      ---      ---       #527
      00FF1DC5H   LINE      CODE     ---       #527
      ---         BLOCKEND  CODE     ---       LVL=0
      00FF1DC8H   LINE      ---      ---       #528

      ---         MODULE    ---      ---       mac_RfeTx
      00FF6F2BH   PUBLIC    CODE     ---       MAC_RfeTxParInit
      00FF1376H   PUBLIC    CODE     ---       MAC_RfeTxSchedule
      00FF7A3BH   PUBLIC    CODE     ---       MAC_RfeTxTaskSet
      00FF7A82H   PUBLIC    CODE     ---       MAC_RfeTxPktLenUpdate
      00FF7AF5H   PUBLIC    CODE     ---       MAC_RfeTxHwSecSet
      00FF7B45H   PUBLIC    CODE     ---       MAC_RfeDataGen
      0000AE41H   PUBLIC    EDATA    INT       gMacRfeTxState
      0000AE43H   PUBLIC    EDATA    ---       gMacRfeTxCtrl
      00FF0E74H   PUBLIC    HCONST   ---       MACRfeDataType
      00FF0E7AH   PUBLIC    HCONST   ---       MACRfePrbs9
      00000080H   SFRSYM    DATA     BYTE      P0

      00FF7A3BH   BLOCK     CODE     ---       LVL=0
      00FF7A3BH   LINE      ---      ---       #58
      00FF7A3DH   LINE      ---      ---       #60
      00FF7A43H   LINE      ---      ---       #63
      00FF7A47H   LINE      ---      ---       #64
      00FF7A63H   LINE      ---      ---       #66
      00FF7A77H   LINE      ---      ---       #67
      00FF7A77H   LINE      ---      ---       #71
      R10         REGSYM    ---      BYTE      bRtcAutoEn
      ---         BLOCKEND  ---      ---       LVL=0

L251 LINKER/LOCATER V4.66.93.0                                                        12/18/2023  14:26:43  PAGE 119


      00FF7A82H   BLOCK     CODE     ---       LVL=0
      00FF7A82H   LINE      ---      ---       #75
      00FF7A82H   LINE      ---      ---       #77
      00FF7A8EH   LINE      ---      ---       #78
      00FF7ABFH   LINE      ---      ---       #80
      00FF7ACEH   LINE      ---      ---       #81
      00FF7AD0H   LINE      ---      ---       #84
      00FF7AE8H   LINE      ---      ---       #85
      00FF7AECH   LINE      ---      ---       #86
      00FF7AF4H   LINE      ---      ---       #87
      00FF7AF4H   LINE      ---      ---       #88
      ---         BLOCKEND  ---      ---       LVL=0

      00FF7AF5H   BLOCK     CODE     ---       LVL=0
      00FF7AF5H   LINE      ---      ---       #91
      00FF7AF7H   LINE      ---      ---       #92
      00FF7AF7H   BLOCK     CODE     NEAR LAB  LVL=1
      00FF7AF7H   LINE      ---      ---       #95
      00FF7B06H   LINE      ---      ---       #97
      00FF7B08H   LINE      ---      ---       #98
      00FF7B0CH   LINE      ---      ---       #99
      00FF7B0EH   LINE      ---      ---       #102
      00FF7B12H   LINE      ---      ---       #103
      00FF7B16H   LINE      ---      ---       #104
      00FF7B1CH   LINE      ---      ---       #105
      00FF7B24H   LINE      ---      ---       #106
      00FF7B2AH   LINE      ---      ---       #107
      00FF7B30H   LINE      ---      ---       #108
      00FF7B30H   LINE      ---      ---       #110
      WR12        REGSYM    ---      WORD      aDataLen
      WR14        REGSYM    ---      WORD      mDataLen
      ---         BLOCKEND  CODE     ---       LVL=1
      00FF7B42H   LINE      ---      ---       #111
      00FF7B42H   LINE      CODE     ---       #111

      00FF7B45H   BLOCK     CODE     ---       LVL=0
      00FF7B45H   LINE      ---      ---       #113
      00FF7B4FH   LINE      ---      ---       #114
      REG=6       REGSYM    ---      ---       pbuf
      WR14        REGSYM    ---      WORD      len
      0000AF89H   SYMBOL    EDATA    BYTE      dataType
      00FF7B4FH   BLOCK     CODE     NEAR LAB  LVL=1
      00FF7B4FH   LINE      ---      ---       #117
      00FF7B55H   LINE      ---      ---       #120
      00FF7B58H   LINE      ---      ---       #121
      00FF7B8EH   LINE      ---      ---       #122
      00FF7B96H   LINE      ---      ---       #123
      00FF7BAFH   LINE      ---      ---       #124
      00FF7BB3H   LINE      ---      ---       #125
      00FF7BB3H   LINE      ---      ---       #126
      00FF7BBCH   LINE      ---      ---       #128
      00FF7BD6H   LINE      ---      ---       #129
      00FF7BDAH   LINE      ---      ---       #130
      00FF7BDAH   LINE      ---      ---       #135
      0000AF8AH   SYMBOL    EDATA    BYTE      idx
      ---         BLOCKEND  CODE     ---       LVL=1
      00FF7BDBH   LINE      ---      ---       #136
      00FF7BDBH   LINE      CODE     ---       #136

      00FF6F2BH   BLOCK     CODE     ---       LVL=0
      00FF6F2BH   LINE      ---      ---       #138
      00FF6F33H   LINE      ---      ---       #140
      00FF6F38H   LINE      ---      ---       #141
      00FF6F3EH   LINE      ---      ---       #142
      00FF6F42H   LINE      ---      ---       #143
L251 LINKER/LOCATER V4.66.93.0                                                        12/18/2023  14:26:43  PAGE 120


      00FF6F46H   LINE      ---      ---       #144
      00FF6F4CH   LINE      ---      ---       #145
      00FF6F51H   LINE      ---      ---       #146
      00FF6F57H   LINE      ---      ---       #147
      00FF6F5BH   LINE      ---      ---       #148
      00FF6F61H   LINE      ---      ---       #149
      00FF6F65H   LINE      ---      ---       #152
      00FF6F6DH   LINE      ---      ---       #153
      00FF6FA1H   LINE      ---      ---       #154
      00FF6FB0H   LINE      ---      ---       #155
      00FF6FBFH   LINE      ---      ---       #158
      00FF6FC2H   LINE      ---      ---       #159
      WR2         REGSYM    ---      WORD      txTarget
      WR4         REGSYM    ---      WORD      txStepSize
      R14         REGSYM    ---      BYTE      pktType
      R15         REGSYM    ---      BYTE      pktPhrType
      ---         BLOCKEND  ---      ---       LVL=0

      00FF1376H   BLOCK     CODE     ---       LVL=0
      00FF1376H   LINE      ---      ---       #161
      00FF1376H   LINE      ---      ---       #162
      00FF1376H   BLOCK     CODE     NEAR LAB  LVL=1
      00FF1376H   LINE      ---      ---       #163
      00FF1376H   LINE      ---      ---       #167
      00FF1381H   LINE      ---      ---       #169
      00FF1381H   LINE      ---      ---       #170
      00FF1381H   LINE      ---      ---       #173
      00FF13A3H   LINE      ---      ---       #175
      00FF13A3H   LINE      ---      ---       #177
      00FF13A6H   LINE      ---      ---       #179
      WR6         REGSYM    ---      WORD      macFunEventQueue
      R11         REGSYM    ---      BYTE      retValue
      00FF13A6H   BLOCK     CODE     NEAR LAB  LVL=2
      00FF13A6H   LINE      ---      ---       #181
      00FF13AEH   LINE      ---      ---       #182
      00FF13B6H   LINE      ---      ---       #183
      00FF13BEH   LINE      ---      ---       #184
      00FF13C6H   LINE      ---      ---       #185
      0000AECFH   SYMBOL    EDATA    ---       cb
      ---         BLOCKEND  CODE     ---       LVL=2
      00FF13CDH   BLOCK     CODE     NEAR LAB  LVL=2
      00FF13CDH   LINE      ---      ---       #186
      00FF13CDH   LINE      ---      ---       #188
      00FF13DDH   LINE      ---      ---       #192
      00FF13E0H   LINE      ---      ---       #196
      00FF13E0H   LINE      ---      ---       #197
      00FF13E2H   LINE      ---      ---       #201
      00FF140CH   LINE      ---      ---       #204
      00FF140FH   LINE      ---      ---       #207
      00FF1412H   LINE      ---      ---       #210
      00FF1421H   LINE      ---      ---       #212
      00FF1423H   LINE      ---      ---       #215
      00FF1427H   LINE      ---      ---       #216
      00FF1429H   LINE      ---      ---       #219
      00FF142FH   LINE      ---      ---       #221
      00FF1434H   LINE      ---      ---       #240
      00FF143AH   LINE      ---      ---       #243
      00FF143BH   LINE      ---      ---       #244
      00FF143DH   LINE      ---      ---       #245
      00FF1443H   LINE      ---      ---       #247
      00FF1448H   LINE      ---      ---       #250
      00FF144EH   LINE      ---      ---       #253
      00FF1453H   LINE      ---      ---       #254
      00FF1455H   LINE      ---      ---       #255
      00FF1461H   LINE      ---      ---       #258
L251 LINKER/LOCATER V4.66.93.0                                                        12/18/2023  14:26:43  PAGE 121


      00FF1463H   LINE      ---      ---       #259
      00FF1463H   LINE      ---      ---       #262
      00FF1469H   LINE      ---      ---       #263
      00FF146CH   LINE      ---      ---       #266
      00FF1470H   LINE      ---      ---       #267
      00FF1470H   LINE      ---      ---       #268
      00FF1470H   LINE      ---      ---       #269
      00FF1472H   LINE      ---      ---       #271
      00FF1472H   LINE      ---      ---       #272
      00FF1474H   LINE      ---      ---       #273
      00FF147CH   LINE      ---      ---       #276
      00FF147FH   LINE      ---      ---       #279
      00FF1490H   LINE      ---      ---       #280
      00FF1492H   LINE      ---      ---       #282
      00FF1498H   LINE      ---      ---       #285
      00FF149EH   LINE      ---      ---       #288
      00FF14A5H   LINE      ---      ---       #291
      00FF14B3H   LINE      ---      ---       #294
      00FF14B5H   LINE      ---      ---       #295
      00FF14B5H   LINE      ---      ---       #298
      00FF14BFH   LINE      ---      ---       #301
      00FF14CCH   LINE      ---      ---       #304
      00FF14CFH   LINE      ---      ---       #307
      00FF14D5H   LINE      ---      ---       #308
      00FF14DBH   LINE      ---      ---       #310
      00FF14DFH   LINE      ---      ---       #311
      00FF14DFH   LINE      ---      ---       #312
      00FF14E1H   LINE      ---      ---       #314
      00FF14E1H   LINE      ---      ---       #315
      00FF14E3H   LINE      ---      ---       #316
      00FF14EBH   LINE      ---      ---       #319
      00FF14F2H   LINE      ---      ---       #322
      00FF1503H   LINE      ---      ---       #323
      00FF1505H   LINE      ---      ---       #327
      00FF1510H   LINE      ---      ---       #329
      00FF151AH   LINE      ---      ---       #330
      00FF151DH   LINE      ---      ---       #331
      00FF151FH   LINE      ---      ---       #333
      0000AED7H   SYMBOL    EDATA    ---       ackContent
      ---         BLOCKEND  CODE     ---       LVL=2
      00FF151FH   LINE      ---      ---       #337
      00FF152FH   LINE      ---      ---       #338
      00FF153FH   LINE      ---      ---       #340
      00FF1549H   LINE      ---      ---       #341
      00FF154CH   LINE      ---      ---       #342
      00FF154EH   LINE      ---      ---       #345
      00FF1558H   LINE      ---      ---       #346
      00FF155BH   LINE      ---      ---       #347
      00FF155BH   LINE      CODE     ---       #347
      ---         BLOCKEND  CODE     ---       LVL=0
      00FF155BH   LINE      ---      ---       #348
      00FF155BH   LINE      ---      ---       #352
      00FF1562H   LINE      ---      ---       #354
      00FF1568H   LINE      ---      ---       #357
      00FF156CH   LINE      ---      ---       #358
      00FF156EH   LINE      ---      ---       #359
      00FF1574H   LINE      ---      ---       #362
      00FF157BH   LINE      ---      ---       #364
      00FF157EH   LINE      ---      ---       #367
      00FF1580H   LINE      ---      ---       #371
      00FF1586H   LINE      ---      ---       #374
      00FF158AH   LINE      ---      ---       #375
      00FF158AH   LINE      ---      ---       #376
      00FF158CH   LINE      ---      ---       #378
      00FF158CH   LINE      ---      ---       #380
L251 LINKER/LOCATER V4.66.93.0                                                        12/18/2023  14:26:43  PAGE 122


      00FF158FH   LINE      ---      ---       #385
      00FF1597H   LINE      ---      ---       #386
      00FF1599H   LINE      ---      ---       #388
      00FF1599H   LINE      ---      ---       #390
      00FF159BH   LINE      ---      ---       #399
      00FF159BH   LINE      ---      ---       #401
      00FF159BH   LINE      ---      ---       #402
      00FF159BH   LINE      ---      ---       #403
      00FF159BH   LINE      ---      ---       #405
      00FF159EH   LINE      ---      ---       #406

      ---         MODULE    ---      ---       mac_DtmRx

      ---         MODULE    ---      ---       mac_DtmTx

      ---         MODULE    ---      ---       mac_htrp_control

      ---         MODULE    ---      ---       mac_htrp_rx

      ---         MODULE    ---      ---       mac_htrp_tx

      ---         MODULE    ---      ---       mac_srcmatch

      ---         MODULE    ---      ---       msg_ctrl
      00FF1299H   PUBLIC    CODE     ---       MSG_HdlrInit
      00FF2FE3H   PUBLIC    CODE     ---       MSG_Hdlr
      00FF7BDEH   PUBLIC    CODE     ---       MSG_Isr?_
      00FF7C29H   PUBLIC    CODE     ---       MSG_Idle
      00FF3FC1H   PUBLIC    CODE     ---       MSG_OutMsgForceHandle
      00FF3E5BH   PUBLIC    CODE     ---       MSG_OutStateSet
      00FF7C57H   PUBLIC    CODE     ---       MSG_EventClr
      00FF1613H   PUBLIC    CODE     ---       MSG_InMsgProc
      00FF395FH   PUBLIC    CODE     ---       MSG_OutMsgToBmu
      00FF3E30H   PUBLIC    CODE     ---       MSG_OutMsgProc
      0000AF40H   PUBLIC    EDATA    ---       sMsgCtrl
      000000A8H.7 SFRSYM    DATA     BIT       EA

      00FF3E5BH   BLOCK     CODE     ---       LVL=0
      00FF3E5BH   LINE      ---      ---       #89
      00FF3E5BH   LINE      ---      ---       #93
      00FF3E5DH   LINE      ---      ---       #94
      00FF3E61H   LINE      ---      ---       #95
      00FF3E63H   LINE      ---      ---       #96
      WR6         REGSYM    ---      INT       outMsgState
      ---         BLOCKEND  ---      ---       LVL=0

      00FF7C57H   BLOCK     CODE     ---       LVL=0
      00FF7C57H   LINE      ---      ---       #98
      00FF7C57H   LINE      ---      ---       #102
      00FF7C59H   LINE      ---      ---       #103
      00FF7C65H   LINE      ---      ---       #104
      00FF7C67H   LINE      ---      ---       #105
      WR6         REGSYM    ---      INT       inType
      ---         BLOCKEND  ---      ---       LVL=0

      00FF1299H   BLOCK     CODE     ---       LVL=0
      00FF1299H   LINE      ---      ---       #127
      00FF1299H   LINE      ---      ---       #130
      00FF129CH   LINE      ---      ---       #133
      00FF12A2H   LINE      ---      ---       #134
      00FF12A6H   LINE      ---      ---       #135
      00FF12ABH   LINE      ---      ---       #139
      ---         BLOCKEND  ---      ---       LVL=0

      00FF1613H   BLOCK     CODE     ---       LVL=0
L251 LINKER/LOCATER V4.66.93.0                                                        12/18/2023  14:26:43  PAGE 123


      00FF1613H   LINE      ---      ---       #234
      00FF1617H   LINE      ---      ---       #235
      00FF1617H   BLOCK     CODE     NEAR LAB  LVL=1
      00FF1617H   LINE      ---      ---       #245
      00FF161BH   LINE      ---      ---       #249
      00FF1623H   LINE      ---      ---       #250
      00FF162EH   LINE      ---      ---       #251
      00FF1630H   LINE      ---      ---       #254
      00FF1630H   LINE      ---      ---       #255
      00FF163CH   LINE      ---      ---       #256
      00FF164DH   LINE      ---      ---       #259
      00FF164DH   LINE      ---      ---       #266
      00FF1652H   LINE      ---      ---       #268
      00FF1654H   LINE      ---      ---       #272
      00FF1654H   LINE      ---      ---       #273
      00FF1654H   LINE      ---      ---       #283
      00FF1661H   LINE      ---      ---       #285
      00FF1663H   LINE      ---      ---       #288
      00FF1663H   LINE      ---      ---       #289
      00FF1665H   LINE      ---      ---       #290
      00FF1665H   LINE      ---      ---       #291
      R15         REGSYM    ---      BYTE      qIdx
      REG=6       REGSYM    ---      ---       pQPayload
      REG=6       REGSYM    ---      ---       pRuciHead
      0000AF8BH   SYMBOL    EDATA    WORD      cmdLength
      ---         BLOCKEND  CODE     ---       LVL=1
      00FF1665H   LINE      ---      ---       #297
      00FF1665H   LINE      CODE     ---       #297

      00FF395FH   BLOCK     CODE     ---       LVL=0
      00FF395FH   LINE      ---      ---       #300
      00FF3961H   LINE      ---      ---       #301
      00FF3961H   BLOCK     CODE     NEAR LAB  LVL=1
      00FF3961H   LINE      ---      ---       #314
      00FF3969H   LINE      ---      ---       #317
      00FF3971H   LINE      ---      ---       #364
      00FF3978H   LINE      ---      ---       #369
      00FF397EH   LINE      ---      ---       #373
      REG=7       REGSYM    ---      ---       pQPayload
      WR4         REGSYM    ---      WORD      msgLength
      R15         REGSYM    ---      BYTE      retValue
      ---         BLOCKEND  CODE     ---       LVL=1
      00FF3985H   LINE      ---      ---       #375
      00FF3985H   LINE      CODE     ---       #375

      00FF3E30H   BLOCK     CODE     ---       LVL=0
      00FF3E30H   LINE      ---      ---       #378
      00FF3E30H   LINE      ---      ---       #380
      00FF3E42H   LINE      ---      ---       #382
      00FF3E42H   LINE      ---      ---       #384
      00FF3E46H   LINE      ---      ---       #386
      00FF3E46H   LINE      ---      ---       #389
      00FF3E4FH   LINE      ---      ---       #390
      00FF3E4FH   LINE      ---      ---       #393
      00FF3E55H   LINE      ---      ---       #396
      00FF3E57H   LINE      ---      ---       #398
      00FF3E57H   LINE      ---      ---       #400
      00FF3E57H   LINE      ---      ---       #403
      00FF3E57H   LINE      ---      ---       #405
      00FF3E57H   LINE      ---      ---       #406
      00FF3E5AH   LINE      ---      ---       #407
      00FF3E5AH   LINE      ---      ---       #408
      00FF3E5AH   LINE      ---      ---       #409
      ---         BLOCKEND  ---      ---       LVL=0

L251 LINKER/LOCATER V4.66.93.0                                                        12/18/2023  14:26:43  PAGE 124


      00FF2FE3H   BLOCK     CODE     ---       LVL=0
      00FF2FE3H   LINE      ---      ---       #411
      00FF2FE3H   LINE      ---      ---       #437
      00FF2FE6H   LINE      ---      ---       #440
      00FF2FF0H   LINE      ---      ---       #443
      00FF2FF7H   LINE      ---      ---       #446
      00FF2FFAH   LINE      ---      ---       #447
      ---         BLOCKEND  ---      ---       LVL=0

      00FF7BDEH   BLOCK     CODE     ---       LVL=0
      00FF7BDEH   LINE      ---      ---       #455
      00FF7BE0H   LINE      ---      ---       #460
      00FF7BE3H   LINE      ---      ---       #461
      00FF7BEEH   LINE      ---      ---       #464
      00FF7BF3H   LINE      ---      ---       #465
      00FF7BFBH   LINE      ---      ---       #468
      00FF7C00H   LINE      ---      ---       #469
      R4          REGSYM    ---      BYTE      statusBmu
      00FF7C00H   BLOCK     CODE     NEAR LAB  LVL=1
      00FF7C00H   LINE      ---      ---       #472
      00FF7C10H   LINE      ---      ---       #473
      R5          REGSYM    ---      BYTE      regValue
      ---         BLOCKEND  CODE     ---       LVL=1
      00FF7C20H   LINE      ---      ---       #474
      00FF7C20H   LINE      ---      ---       #477
      00FF7C28H   LINE      ---      ---       #490
      00FF7C28H   LINE      CODE     ---       #490

      00FF7C29H   BLOCK     CODE     ---       LVL=0
      00FF7C29H   LINE      ---      ---       #492
      00FF7C2BH   LINE      ---      ---       #493
      00FF7C2BH   BLOCK     CODE     NEAR LAB  LVL=1
      00FF7C2BH   LINE      ---      ---       #497
      00FF7C3BH   LINE      ---      ---       #498
      00FF7C3EH   LINE      ---      ---       #501
      00FF7C40H   LINE      ---      ---       #503
      00FF7C47H   LINE      ---      ---       #504
      00FF7C4AH   LINE      ---      ---       #505
      00FF7C52H   LINE      ---      ---       #507
      WR14        REGSYM    ---      INT       qIdx
      ---         BLOCKEND  CODE     ---       LVL=1
      00FF7C54H   LINE      ---      ---       #508
      00FF7C54H   LINE      CODE     ---       #508

      00FF3FC1H   BLOCK     CODE     ---       LVL=0
      00FF3FC1H   LINE      ---      ---       #510
      00FF3FC3H   LINE      ---      ---       #511
      00FF3FC3H   BLOCK     CODE     NEAR LAB  LVL=1
      00FF3FC3H   LINE      ---      ---       #515
      00FF3FC5H   LINE      ---      ---       #516
      00FF3FC7H   LINE      ---      ---       #517
      R15         REGSYM    ---      BYTE      msgState
      ---         BLOCKEND  CODE     ---       LVL=1
      00FF3FCEH   LINE      ---      ---       #518
      00FF3FCEH   LINE      CODE     ---       #518

      ---         MODULE    ---      ---       hal
      00FF4FDEH   PUBLIC    CODE     ---       HAL_IsBleHw
      00FF7C68H   PUBLIC    CODE     ---       HAL_IsWisunHw
      00FF7C7DH   PUBLIC    CODE     ---       HAL_IsZigbeeHw
      00FF7FFEH   PUBLIC    CODE     ---       HAL_IsSubgRf
      00FF800CH   PUBLIC    CODE     ---       HAL_Is2gRf
      00FF2FADH   PUBLIC    CODE     ---       HAL_HwModeGet
      00FF5644H   PUBLIC    CODE     ---       HAL_ClkModeSet
      00FF52B3H   PUBLIC    CODE     ---       HAL_HwModeInit?_
L251 LINKER/LOCATER V4.66.93.0                                                        12/18/2023  14:26:43  PAGE 125


      00FF801BH   PUBLIC    CODE     ---       HAL_Watchdog
      00FF568CH   PUBLIC    CODE     ---       HAL_PktTypeSet

      00FF568CH   BLOCK     CODE     ---       LVL=0
      00FF568CH   LINE      ---      ---       #35
      00FF568CH   LINE      ---      ---       #36
      00FF568CH   BLOCK     CODE     NEAR LAB  LVL=1
      00FF568CH   LINE      ---      ---       #46
      00FF5699H   LINE      ---      ---       #47
      00FF569EH   LINE      ---      ---       #50
      00FF56A0H   LINE      ---      ---       #51
      00FF56BAH   LINE      ---      ---       #52
      00FF56D5H   LINE      ---      ---       #59
      00FF56D9H   LINE      ---      ---       #60
      00FF56E4H   LINE      ---      ---       #63
      R10         REGSYM    ---      BYTE      regValue
      ---         BLOCKEND  CODE     ---       LVL=1
      00FF56F0H   LINE      ---      ---       #64
      00FF56F0H   LINE      CODE     ---       #64

      00FF4FDEH   BLOCK     CODE     ---       LVL=0
      00FF4FDEH   LINE      ---      ---       #70
      00FF4FDEH   LINE      ---      ---       #72
      00FF4FF0H   LINE      ---      ---       #73
      ---         BLOCKEND  ---      ---       LVL=0

      00FF7C68H   BLOCK     CODE     ---       LVL=0
      00FF7C68H   LINE      ---      ---       #77
      00FF7C68H   LINE      ---      ---       #79
      00FF7C7CH   LINE      ---      ---       #80
      ---         BLOCKEND  ---      ---       LVL=0

      00FF7C7DH   BLOCK     CODE     ---       LVL=0
      00FF7C7DH   LINE      ---      ---       #84
      00FF7C7DH   LINE      ---      ---       #86
      00FF7C91H   LINE      ---      ---       #87
      ---         BLOCKEND  ---      ---       LVL=0

      00FF7FDDH   BLOCK     CODE     ---       LVL=0
      00FF7FFEH   LINE      ---      ---       #98
      00FF7FFEH   LINE      ---      ---       #100
      00FF800BH   LINE      ---      ---       #101
      00FF7FDDH   SYMBOL    CODE     NEAR LAB  ?L?COM000B
      ---         BLOCKEND  ---      ---       LVL=0

      00FF800CH   BLOCK     CODE     ---       LVL=0
      00FF800CH   LINE      ---      ---       #105
      00FF800CH   LINE      ---      ---       #107
      00FF801AH   LINE      ---      ---       #108
      ---         BLOCKEND  ---      ---       LVL=0

      00FF5644H   BLOCK     CODE     ---       LVL=0
      00FF5644H   LINE      ---      ---       #111
      00FF5646H   LINE      ---      ---       #115
      00FF564EH   LINE      ---      ---       #117
      00FF564EH   LINE      ---      ---       #119
      00FF564EH   LINE      ---      ---       #120
      00FF565AH   LINE      ---      ---       #121
      00FF5666H   LINE      ---      ---       #122
      00FF5667H   LINE      ---      ---       #124
      00FF5669H   LINE      ---      ---       #127
      00FF5669H   LINE      ---      ---       #128
      00FF5675H   LINE      ---      ---       #129
      00FF5681H   LINE      ---      ---       #133
      00FF5687H   LINE      ---      ---       #134
L251 LINKER/LOCATER V4.66.93.0                                                        12/18/2023  14:26:43  PAGE 126


      00FF5687H   LINE      ---      ---       #136
      00FF5687H   LINE      ---      ---       #137
      00FF568BH   LINE      ---      ---       #138
      WR4         REGSYM    ---      INT       clkMode
      ---         BLOCKEND  ---      ---       LVL=0

      00FF2FADH   BLOCK     CODE     ---       LVL=0
      00FF2FADH   LINE      ---      ---       #140
      00FF2FADH   LINE      ---      ---       #142
      00FF2FB4H   LINE      ---      ---       #162
      ---         BLOCKEND  ---      ---       LVL=0

      00FF52B3H   BLOCK     CODE     ---       LVL=0
      00FF52B3H   LINE      ---      ---       #269
      00FF52BDH   LINE      ---      ---       #276
      WR12        REGSYM    ---      INT       halType
      FFFFFFFBH   STKSYM    ---      INT       rfkBand
      WR14        REGSYM    ---      INT       clkMode
      FFFFFFF3H   STKSYM    ---      INT       rxqOpMode
      00FF52BDH   BLOCK     CODE     NEAR LAB  LVL=1
      00FF52BDH   LINE      ---      ---       #290
      00FF52C0H   LINE      ---      ---       #294
      00FF52CAH   LINE      ---      ---       #298
      00FF52CEH   LINE      ---      ---       #299
      00FF52E6H   LINE      ---      ---       #300
      00FF52F6H   LINE      ---      ---       #301
      00FF5302H   LINE      ---      ---       #304
      00FF5306H   LINE      ---      ---       #306
      00FF530AH   LINE      ---      ---       #307
      00FF530CH   LINE      ---      ---       #311
      00FF5318H   LINE      ---      ---       #312
      00FF5318H   LINE      ---      ---       #315
      00FF5321H   LINE      ---      ---       #318
      00FF5325H   LINE      ---      ---       #321
      00FF5343H   LINE      ---      ---       #325
      00FF5345H   LINE      ---      ---       #328
      00FF5351H   LINE      ---      ---       #330
      00FF5351H   LINE      ---      ---       #332
      00FF5351H   LINE      ---      ---       #333
      00FF5361H   LINE      ---      ---       #336
      00FF5363H   LINE      ---      ---       #338
      00FF5363H   LINE      ---      ---       #339
      00FF537DH   LINE      ---      ---       #341
      00FF537DH   LINE      ---      ---       #343
      00FF537DH   LINE      ---      ---       #346
      00FF5383H   LINE      ---      ---       #349
      00FF5389H   LINE      ---      ---       #352
      00FF538FH   LINE      ---      ---       #355
      00FF539DH   LINE      ---      ---       #358
      00FF53BBH   LINE      ---      ---       #362
      00FF53C1H   LINE      ---      ---       #364
      00FF53CBH   LINE      ---      ---       #365
      00FF53E9H   LINE      ---      ---       #366
      00FF53F3H   LINE      ---      ---       #367
      00FF5411H   LINE      ---      ---       #368
      00FF5411H   LINE      ---      ---       #372
      00FF541CH   LINE      ---      ---       #375
      00FF5429H   LINE      ---      ---       #379
      00FF5433H   LINE      ---      ---       #383
      00FF543DH   LINE      ---      ---       #386
      00FF544AH   LINE      ---      ---       #389
      00FF5452H   LINE      ---      ---       #393
      00FF545AH   LINE      ---      ---       #394
      00FF545EH   LINE      ---      ---       #428
      FFFFFFFFH   STKSYM    ---      INT       clkModeCurrent
L251 LINKER/LOCATER V4.66.93.0                                                        12/18/2023  14:26:43  PAGE 127


      FFFFFFFDH   STKSYM    ---      INT       rfBandTemp
      WR4         REGSYM    ---      INT       rfkBandTemp
      WR2         REGSYM    ---      INT       modemTemp
      ---         BLOCKEND  CODE     ---       LVL=1
      00FF545EH   LINE      ---      ---       #430
      00FF545EH   LINE      CODE     ---       #430

      00FF801BH   BLOCK     CODE     ---       LVL=0
      00FF801BH   LINE      ---      ---       #433
      00FF801BH   LINE      ---      ---       #448
      ---         BLOCKEND  ---      ---       LVL=0

      ---         MODULE    ---      ---       hal_cfg
      00FF0F7AH   PUBLIC    HCONST   ---       sHalFwCfg
      00FF0F88H   PUBLIC    HCONST   ---       sHalHwCfgBLE
      00FF0FBEH   PUBLIC    HCONST   ---       sHalHwCfgWisun
      00FF0FF4H   PUBLIC    HCONST   ---       sHalHwCfgZigbee

      ---         MODULE    ---      ---       hal_mac
      00FF5485H   PUBLIC    CODE     ---       HALMAC_WhitenSet
      00FF5594H   PUBLIC    CODE     ---       HALMAC_CrcInitDftGet
      00FF54A8H   PUBLIC    CODE     ---       HALMAC_CrcSet
      00FF5465H   PUBLIC    CODE     ---       HALMAC_TxPreambleSet
      00FF5475H   PUBLIC    CODE     ---       HALMAC_RxPreambleSet
      00FF50AAH   PUBLIC    CODE     ---       HALMAC_TxSfdSet
      00FF51FCH   PUBLIC    CODE     ---       HALMAC_RxSfdSet
      00FF2F35H   PUBLIC    CODE     ---       HALMAC_PhrSet
      00FF3FB6H   PUBLIC    CODE     ---       HALMAC_RxMhrRptLenSet
      00FF55D5H   PUBLIC    CODE     ---       HALMAC_RxMaxPktLenSet
      00FF5615H   PUBLIC    CODE     ---       HALMAC_PktBitEndianSet
      00FF801CH   PUBLIC    CODE     ---       HALMAC_WhitenDftGet
      00FF5537H   PUBLIC    CODE     ---       HALMAC_WhitenInitDftGet
      00FF2E29H   PUBLIC    CODE     ---       HALMAC_CrcLenCfgGet
      00FF628CH   PUBLIC    CODE     ---       HALMAC_PhrLenCfgGet
      00FF8025H   PUBLIC    CODE     ---       HALMAC_SfdDftGet
      00FF2F56H   PUBLIC    CODE     ---       HALMAC_RxPayloadLenGet
      00FF2F2CH   PUBLIC    CODE     ---       HALMAC_MaxPayloadDftGet
      00FF6FC5H   PUBLIC    CODE     ---       HALMAC_MaxPayloadLenGet
      00FF8040H   PUBLIC    CODE     ---       HALMAC_TxTypeSet
      00FF80B9H   PUBLIC    CODE     ---       HALMAC_IfsT2T
      00FF8145H   PUBLIC    CODE     ---       HALMAC_IfsT2R
      00FF81A7H   PUBLIC    CODE     ---       HALMAC_IfsR2R
      00FF8229H   PUBLIC    CODE     ---       HALMAC_IfsR2T

      00FF5485H   BLOCK     CODE     ---       LVL=0
      00FF5485H   LINE      ---      ---       #23
      00FF5487H   LINE      ---      ---       #29
      00FF54A0H   LINE      ---      ---       #32
      00FF54A7H   LINE      ---      ---       #33
      WR6         REGSYM    ---      INT       whitenType
      R10         REGSYM    ---      BYTE      initValue
      ---         BLOCKEND  ---      ---       LVL=0

      00FF54A8H   BLOCK     CODE     ---       LVL=0
      00FF54A8H   LINE      ---      ---       #35
      00FF54ACH   LINE      ---      ---       #41
      00FF54C5H   LINE      ---      ---       #44
      00FF54C9H   LINE      ---      ---       #45
      00FF54DBH   LINE      ---      ---       #47
      00FF54E6H   LINE      ---      ---       #48
      WR2         REGSYM    ---      INT       crcType
      DR28        REGSYM    ---      DWORD     initValue
      ---         BLOCKEND  ---      ---       LVL=0

      00FF5465H   BLOCK     CODE     ---       LVL=0
L251 LINKER/LOCATER V4.66.93.0                                                        12/18/2023  14:26:43  PAGE 128


      00FF5465H   LINE      ---      ---       #51
      00FF5465H   LINE      ---      ---       #56
      WR6         REGSYM    ---      INT       preambleType
      ---         BLOCKEND  ---      ---       LVL=0

      00FF5475H   BLOCK     CODE     ---       LVL=0
      00FF5475H   LINE      ---      ---       #59
      00FF5475H   LINE      ---      ---       #64
      WR6         REGSYM    ---      INT       preambleType
      ---         BLOCKEND  ---      ---       LVL=0

      00FF50AAH   BLOCK     CODE     ---       LVL=0
      00FF50AAH   LINE      ---      ---       #67
      00FF50AAH   LINE      ---      ---       #73
      00FF50B7H   LINE      ---      ---       #76
      WR6         REGSYM    ---      INT       sfdType
      DR0         REGSYM    ---      DWORD     sfdData
      ---         BLOCKEND  ---      ---       LVL=0

      00FF51FCH   BLOCK     CODE     ---       LVL=0
      00FF51FCH   LINE      ---      ---       #80
      00FF5200H   LINE      ---      ---       #85
      00FF5215H   LINE      ---      ---       #89
      00FF5215H   LINE      ---      ---       #90
      00FF521BH   LINE      ---      ---       #92
      00FF522AH   LINE      ---      ---       #93
      00FF5241H   LINE      ---      ---       #94
      00FF524CH   LINE      ---      ---       #95
      00FF5250H   LINE      ---      ---       #96
      00FF5252H   LINE      ---      ---       #99
      00FF5262H   LINE      ---      ---       #100
      00FF5279H   LINE      ---      ---       #101
      00FF5284H   LINE      ---      ---       #102
      00FF5297H   LINE      ---      ---       #103
      00FF5297H   LINE      ---      ---       #107
      00FF5297H   LINE      ---      ---       #109
      00FF52A7H   LINE      ---      ---       #110
      00FF52B2H   LINE      ---      ---       #111
      00FF52B2H   LINE      ---      ---       #114
      00FF52B2H   LINE      ---      ---       #115
      00FF52B2H   LINE      ---      ---       #116
      00FF52B2H   LINE      ---      ---       #117
      WR10        REGSYM    ---      INT       sfdType
      DR28        REGSYM    ---      DWORD     sfdData
      ---         BLOCKEND  ---      ---       LVL=0

      00FF2F35H   BLOCK     CODE     ---       LVL=0
      00FF2F35H   LINE      ---      ---       #120
      00FF2F35H   LINE      ---      ---       #127
      00FF2F46H   LINE      ---      ---       #133
      00FF2F55H   LINE      ---      ---       #134
      WR6         REGSYM    ---      INT       phrType
      DR0         REGSYM    ---      DWORD     phrData
      ---         BLOCKEND  ---      ---       LVL=0

      00FF3FB6H   BLOCK     CODE     ---       LVL=0
      00FF3FB6H   LINE      ---      ---       #136
      00FF3FB6H   LINE      ---      ---       #140
      WR6         REGSYM    ---      WORD      rptLen
      ---         BLOCKEND  ---      ---       LVL=0

      00FF55D5H   BLOCK     CODE     ---       LVL=0
      00FF55D5H   LINE      ---      ---       #144
      WR2         REGSYM    ---      WORD      pktLen
      00FF55D5H   BLOCK     CODE     NEAR LAB  LVL=1
L251 LINKER/LOCATER V4.66.93.0                                                        12/18/2023  14:26:43  PAGE 129


      00FF55E3H   LINE      ---      ---       #157
      00FF55E8H   LINE      ---      ---       #158
      DR8         REGSYM    ---      DWORD     regVal
      ---         BLOCKEND  CODE     ---       LVL=1
      00FF55F3H   LINE      ---      ---       #159
      00FF55F3H   LINE      CODE     ---       #159

      00FF5615H   BLOCK     CODE     ---       LVL=0
      00FF5615H   LINE      ---      ---       #162
      WR2         REGSYM    ---      INT       bitEndian
      00FF5615H   BLOCK     CODE     NEAR LAB  LVL=1
      00FF5623H   LINE      ---      ---       #175
      00FF5634H   LINE      ---      ---       #176
      DR28        REGSYM    ---      DWORD     regVal
      ---         BLOCKEND  CODE     ---       LVL=1
      00FF5643H   LINE      ---      ---       #177
      00FF5643H   LINE      CODE     ---       #177

      00FF801CH   BLOCK     CODE     ---       LVL=0
      00FF801CH   LINE      ---      ---       #181
      00FF801CH   LINE      ---      ---       #183
      00FF8024H   LINE      ---      ---       #184
      ---         BLOCKEND  ---      ---       LVL=0

      00FF5537H   BLOCK     CODE     ---       LVL=0
      00FF5537H   LINE      ---      ---       #186
      00FF5537H   LINE      ---      ---       #189
      00FF553FH   LINE      ---      ---       #190
      ---         BLOCKEND  ---      ---       LVL=0

      00FF5590H   BLOCK     CODE     ---       LVL=0
      00FF5594H   LINE      ---      ---       #192
      00FF5594H   LINE      ---      ---       #197
      00FF55AAH   LINE      ---      ---       #198
      00FF5590H   SYMBOL    CODE     NEAR LAB  ?L?COM0032
      WR6         REGSYM    ---      INT       crcType
      ---         BLOCKEND  ---      ---       LVL=0

      00FF2E29H   BLOCK     CODE     ---       LVL=0
      00FF2E29H   LINE      ---      ---       #201
      00FF2E29H   LINE      ---      ---       #202
      00FF2E29H   BLOCK     CODE     NEAR LAB  LVL=1
      00FF2E29H   LINE      ---      ---       #206
      00FF2E36H   LINE      ---      ---       #207
      R7          REGSYM    ---      BYTE      regValue
      ---         BLOCKEND  CODE     ---       LVL=1
      00FF2E41H   LINE      ---      ---       #208
      00FF2E41H   LINE      CODE     ---       #208

      00FF628CH   BLOCK     CODE     ---       LVL=0
      00FF628CH   LINE      ---      ---       #210
      00FF628CH   LINE      ---      ---       #214
      00FF6297H   LINE      ---      ---       #215
      00FF629AH   LINE      ---      ---       #219
      00FF62A0H   LINE      ---      ---       #220
      00FF62A3H   LINE      ---      ---       #224
      00FF62A9H   LINE      ---      ---       #225
      00FF62ACH   LINE      ---      ---       #238
      00FF62ADH   LINE      ---      ---       #239
      ---         BLOCKEND  ---      ---       LVL=0

      00FF2F56H   BLOCK     CODE     ---       LVL=0
      00FF2F56H   LINE      ---      ---       #254
      00FF2F56H   LINE      ---      ---       #256
      00FF2F69H   LINE      ---      ---       #259
L251 LINKER/LOCATER V4.66.93.0                                                        12/18/2023  14:26:43  PAGE 130


      00FF2F69H   LINE      ---      ---       #260
      00FF2F7BH   LINE      ---      ---       #264
      00FF2F7BH   LINE      ---      ---       #265
      00FF2F92H   LINE      ---      ---       #269
      00FF2F92H   LINE      ---      ---       #270
      00FF2FAAH   LINE      ---      ---       #278
      00FF2FAAH   LINE      ---      ---       #279
      00FF2FACH   LINE      ---      ---       #280
      00FF2FACH   LINE      ---      ---       #281
      ---         BLOCKEND  ---      ---       LVL=0

      00FF8025H   BLOCK     CODE     ---       LVL=0
      00FF8025H   LINE      ---      ---       #283
      00FF8025H   LINE      ---      ---       #288
      00FF803BH   LINE      ---      ---       #289
      WR6         REGSYM    ---      INT       sfdType
      ---         BLOCKEND  ---      ---       LVL=0

      00FF2F2CH   BLOCK     CODE     ---       LVL=0
      00FF2F2CH   LINE      ---      ---       #292
      00FF2F2CH   LINE      ---      ---       #295
      00FF2F34H   LINE      ---      ---       #296
      ---         BLOCKEND  ---      ---       LVL=0

      00FF6FC5H   BLOCK     CODE     ---       LVL=0
      00FF6FC5H   LINE      ---      ---       #299
      00FF6FC5H   LINE      ---      ---       #301
      00FF6FD8H   LINE      ---      ---       #305
      00FF6FD8H   LINE      ---      ---       #310
      00FF6FDDH   LINE      ---      ---       #315
      00FF6FDDH   LINE      ---      ---       #318
      00FF6FDDH   LINE      ---      ---       #320
      00FF6FEDH   LINE      ---      ---       #322
      00FF6FEDH   LINE      ---      ---       #324
      00FF6FEFH   LINE      ---      ---       #325
      ---         BLOCKEND  ---      ---       LVL=0

      00FF803CH   BLOCK     CODE     ---       LVL=0
      00FF8040H   LINE      ---      ---       #328
      00FF8040H   LINE      ---      ---       #330
      00FF804CH   LINE      ---      ---       #332
      00FF804CH   LINE      ---      ---       #334
      00FF8058H   LINE      ---      ---       #335
      00FF805AH   LINE      ---      ---       #336
      00FF805AH   LINE      ---      ---       #337
      00FF805AH   LINE      ---      ---       #338
      00FF805AH   LINE      ---      ---       #339
      00FF805CH   LINE      ---      ---       #340
      00FF805CH   LINE      ---      ---       #342
      00FF8068H   LINE      ---      ---       #343
      00FF806DH   LINE      ---      ---       #344
      00FF8079H   LINE      ---      ---       #345
      00FF8082H   LINE      ---      ---       #346
      00FF808AH   LINE      ---      ---       #347
      00FF808BH   LINE      ---      ---       #348
      00FF808BH   LINE      ---      ---       #350
      00FF8097H   LINE      ---      ---       #351
      00FF8099H   LINE      ---      ---       #352
      00FF8099H   LINE      ---      ---       #353
      00FF809BH   LINE      ---      ---       #354
      00FF809BH   LINE      ---      ---       #356
      00FF80A7H   LINE      ---      ---       #357
      00FF80ACH   LINE      ---      ---       #358
      00FF80B8H   LINE      ---      ---       #359
      00FF80B8H   LINE      ---      ---       #360
L251 LINKER/LOCATER V4.66.93.0                                                        12/18/2023  14:26:43  PAGE 131


      00FF80B8H   LINE      ---      ---       #361
      00FF803CH   SYMBOL    CODE     NEAR LAB  ?L?COM002D
      WR6         REGSYM    ---      INT       type
      ---         BLOCKEND  ---      ---       LVL=0

      00FF80B9H   BLOCK     CODE     ---       LVL=0
      00FF80B9H   LINE      ---      ---       #363
      00FF80BFH   LINE      ---      ---       #368
      WR14        REGSYM    ---      WORD      ifs
      WR4         REGSYM    ---      INT       txBw
      R3          REGSYM    ---      BYTE      bEndTimer
      00FF80BFH   BLOCK     CODE     NEAR LAB  LVL=1
      00FF80BFH   LINE      ---      ---       #371
      00FF80C3H   LINE      ---      ---       #372
      00FF80D4H   LINE      ---      ---       #374
      00FF80EEH   LINE      ---      ---       #376
      00FF8102H   LINE      ---      ---       #377
      00FF8116H   LINE      ---      ---       #379
      R13         REGSYM    ---      BYTE      txTailDelay
      ---         BLOCKEND  CODE     ---       LVL=1
      00FF8118H   LINE      ---      ---       #380
      00FF8118H   LINE      CODE     ---       #380

      00FF8145H   BLOCK     CODE     ---       LVL=0
      00FF8145H   LINE      ---      ---       #383
      00FF814BH   LINE      ---      ---       #388
      WR14        REGSYM    ---      WORD      ifs
      WR4         REGSYM    ---      INT       txBw
      R3          REGSYM    ---      BYTE      bEndTimer
      00FF814BH   BLOCK     CODE     NEAR LAB  LVL=1
      00FF814BH   LINE      ---      ---       #391
      00FF814FH   LINE      ---      ---       #392
      00FF8160H   LINE      ---      ---       #394
      00FF817AH   LINE      ---      ---       #396
      00FF818EH   LINE      ---      ---       #397
      00FF81A2H   LINE      ---      ---       #399
      R13         REGSYM    ---      BYTE      txTailDelay
      ---         BLOCKEND  CODE     ---       LVL=1
      00FF81A4H   LINE      ---      ---       #400
      00FF81A4H   LINE      CODE     ---       #400

      00FF81A7H   BLOCK     CODE     ---       LVL=0
      00FF81A7H   LINE      ---      ---       #402
      WR14        REGSYM    ---      WORD      ifs
      WR4         REGSYM    ---      INT       rxBw
      00FF81A9H   BLOCK     CODE     NEAR LAB  LVL=1
      00FF81ADH   LINE      ---      ---       #409
      00FF81C1H   LINE      ---      ---       #410
      00FF81D7H   LINE      ---      ---       #412
      R10         REGSYM    ---      BYTE      rxTailDelay
      ---         BLOCKEND  CODE     ---       LVL=1
      00FF81D9H   LINE      ---      ---       #413
      00FF81D9H   LINE      CODE     ---       #413

      00FF8229H   BLOCK     CODE     ---       LVL=0
      00FF8229H   LINE      ---      ---       #415
      WR14        REGSYM    ---      WORD      ifs
      WR4         REGSYM    ---      INT       rxBw
      00FF822BH   BLOCK     CODE     NEAR LAB  LVL=1
      00FF822FH   LINE      ---      ---       #422
      00FF8243H   LINE      ---      ---       #423
      00FF8259H   LINE      ---      ---       #425
      R10         REGSYM    ---      BYTE      rxTailDelay
      ---         BLOCKEND  CODE     ---       LVL=1
      00FF825BH   LINE      ---      ---       #426
L251 LINKER/LOCATER V4.66.93.0                                                        12/18/2023  14:26:43  PAGE 132


      00FF825BH   LINE      CODE     ---       #426

      ---         MODULE    ---      ---       hal_para
      00FF080CH   PUBLIC    HCONST   ---       phyTabBpFir15Tap
      00FF0814H   PUBLIC    HCONST   ---       phyTabBpFir31Tap
      00FF0824H   PUBLIC    HCONST   ---       phyTabIfMap
      00FF082CH   PUBLIC    HCONST   ---       phyTabIfMapDclk
      00FF0832H   PUBLIC    HCONST   ---       sHalHwPara
      00FF08ABH   PUBLIC    HCONST   ---       sHalHwTab

      ---         MODULE    ---      ---       hal_phy
      00FF825EH   PUBLIC    CODE     ---       HALPHY_DfeSet
      00FF4CBEH   PUBLIC    CODE     ---       HALPHY_ParaSet
      00FF37BEH   PUBLIC    CODE     ---       HALPHY_GaussianFiltSet
      00FF82D7H   PUBLIC    CODE     ---       HALPHY_RxDisable
      00FF82F1H   PUBLIC    CODE     ---       HALPHY_RxEnable
      00FF839EH   PUBLIC    CODE     ---       HALPHY_TxEnable
      00FF3F02H   PUBLIC    CODE     ---       HALPHY_PreamNumSet
      00FF8572H   PUBLIC    CODE     ---       HALPHY_TxBwSet
      00FF482AH   PUBLIC    CODE     ---       HALPHY_RxBwSet
      00FF882FH   PUBLIC    CODE     ---       HALPHY_InputPwrGet
      00FF4BF2H   PUBLIC    CODE     ---       HALPHY_BleRxParaSet
      00FF4C46H   PUBLIC    CODE     ---       HALPHY_FskRxParaSet
      00FF4C9DH   PUBLIC    CODE     ---       HALPHY_ModIdxSet

      00FF4BF2H   BLOCK     CODE     ---       LVL=0
      00FF4BF2H   LINE      ---      ---       #25
      00FF4BFAH   LINE      ---      ---       #34
      00FF4C0DH   LINE      ---      ---       #35
      00FF4C20H   LINE      ---      ---       #36
      00FF4C28H   LINE      ---      ---       #37
      00FF4C33H   LINE      ---      ---       #38
      00FF4C3AH   LINE      ---      ---       #39
      00FF4C45H   LINE      ---      ---       #40
      R11         REGSYM    ---      BYTE      detectionOffset
      R8          REGSYM    ---      BYTE      rxPreamBase
      R9          REGSYM    ---      BYTE      syncBitTh
      WR2         REGSYM    ---      WORD      syncCorrTh
      R10         REGSYM    ---      BYTE      trackBitTh
      WR0         REGSYM    ---      WORD      trackCorrTh
      ---         BLOCKEND  ---      ---       LVL=0

      00FF4C46H   BLOCK     CODE     ---       LVL=0
      00FF4C46H   LINE      ---      ---       #44
      00FF4C48H   LINE      ---      ---       #50
      00FF4C5CH   LINE      ---      ---       #51
      00FF4C72H   LINE      ---      ---       #52
      R2          REGSYM    ---      BYTE      trackKp
      R3          REGSYM    ---      BYTE      trackKq
      R6          REGSYM    ---      BYTE      cfoEstAlphaIdx
      ---         BLOCKEND  ---      ---       LVL=0

      00FF825EH   BLOCK     CODE     ---       LVL=0
      00FF825EH   LINE      ---      ---       #59
      00FF825EH   LINE      ---      ---       #61
      00FF8271H   LINE      ---      ---       #65
      00FF8271H   LINE      ---      ---       #68
      00FF8271H   LINE      ---      ---       #71
      00FF8284H   LINE      ---      ---       #73
      00FF828CH   LINE      ---      ---       #74
      00FF828EH   LINE      ---      ---       #78
      00FF828EH   LINE      ---      ---       #81
      00FF8294H   LINE      ---      ---       #83
      00FF829CH   LINE      ---      ---       #84
      00FF829EH   LINE      ---      ---       #88
L251 LINKER/LOCATER V4.66.93.0                                                        12/18/2023  14:26:43  PAGE 133


      00FF82B1H   LINE      ---      ---       #89
      00FF82B1H   LINE      ---      ---       #91
      00FF82C4H   LINE      ---      ---       #92
      00FF82C4H   LINE      ---      ---       #103
      00FF82C4H   LINE      ---      ---       #107
      ---         BLOCKEND  ---      ---       LVL=0

      00FF4CBEH   BLOCK     CODE     ---       LVL=0
      00FF4CBEH   LINE      ---      ---       #111
      00FF4CBEH   LINE      ---      ---       #114
      00FF4CD5H   LINE      ---      ---       #117
      00FF4CD5H   LINE      ---      ---       #121
      00FF4CF1H   LINE      ---      ---       #122
      00FF4D04H   LINE      ---      ---       #123
      00FF4D17H   LINE      ---      ---       #124
      00FF4D29H   LINE      ---      ---       #125
      00FF4D3EH   LINE      ---      ---       #128
      00FF4D40H   LINE      ---      ---       #132
      00FF4D40H   LINE      ---      ---       #133
      00FF4D5AH   LINE      ---      ---       #134
      00FF4D6DH   LINE      ---      ---       #135
      00FF4D6FH   LINE      ---      ---       #139
      00FF4D6FH   LINE      ---      ---       #140
      00FF4D89H   LINE      ---      ---       #141
      00FF4D94H   LINE      ---      ---       #142
      00FF4DA0H   LINE      ---      ---       #143
      00FF4DB7H   LINE      ---      ---       #144
      00FF4DCAH   LINE      ---      ---       #145
      00FF4DD5H   LINE      ---      ---       #146
      00FF4DF0H   LINE      ---      ---       #148
      00FF4DF6H   LINE      ---      ---       #150
      00FF4E09H   LINE      ---      ---       #151
      00FF4E14H   LINE      ---      ---       #152
      00FF4E18H   LINE      ---      ---       #153
      00FF4E1AH   LINE      ---      ---       #157
      00FF4E2DH   LINE      ---      ---       #158
      00FF4E38H   LINE      ---      ---       #159
      00FF4E50H   LINE      ---      ---       #160
      00FF4E50H   LINE      ---      ---       #161
      00FF4E66H   LINE      ---      ---       #162
      00FF4E66H   LINE      ---      ---       #177
      00FF4E66H   LINE      ---      ---       #178
      00FF4E66H   LINE      ---      ---       #179
      00FF4E66H   LINE      ---      ---       #180
      ---         BLOCKEND  ---      ---       LVL=0

      00FF37BEH   BLOCK     CODE     ---       LVL=0
      00FF37BEH   LINE      ---      ---       #182
      00FF37BEH   LINE      ---      ---       #186
      WR6         REGSYM    ---      INT       type
      ---         BLOCKEND  ---      ---       LVL=0

      00FF82D7H   BLOCK     CODE     ---       LVL=0
      00FF82D7H   LINE      ---      ---       #285
      00FF82D7H   LINE      ---      ---       #288
      00FF82E0H   LINE      ---      ---       #291
      00FF82E8H   LINE      ---      ---       #292
      00FF82F0H   LINE      ---      ---       #293
      ---         BLOCKEND  ---      ---       LVL=0

      00FF82F1H   BLOCK     CODE     ---       LVL=0
      00FF82F1H   LINE      ---      ---       #295
      00FF82F1H   LINE      ---      ---       #308
      00FF8300H   LINE      ---      ---       #314
      00FF830CH   LINE      ---      ---       #315
L251 LINKER/LOCATER V4.66.93.0                                                        12/18/2023  14:26:43  PAGE 134


      00FF8318H   LINE      ---      ---       #317
      00FF831DH   LINE      ---      ---       #318
      00FF8329H   LINE      ---      ---       #322
      ---         BLOCKEND  ---      ---       LVL=0

      00FF839EH   BLOCK     CODE     ---       LVL=0
      00FF839EH   LINE      ---      ---       #328
      00FF83A0H   LINE      ---      ---       #329
      00FF83A0H   BLOCK     CODE     NEAR LAB  LVL=1
      00FF83A0H   LINE      ---      ---       #330
      00FF83A8H   LINE      ---      ---       #332
      00FF83ACH   LINE      ---      ---       #347
      00FF83B9H   LINE      ---      ---       #348
      00FF83D9H   LINE      ---      ---       #354
      00FF83EFH   LINE      ---      ---       #355
      REG=7       REGSYM    ---      ---       pPllCfg
      WR12        REGSYM    ---      INT       modIdx
      00FF83EFH   BLOCK     CODE     NEAR LAB  LVL=2
      00FF83EFH   LINE      ---      ---       #356
      00FF83F6H   LINE      ---      ---       #357
      00FF83FAH   LINE      ---      ---       #360
      00FF842AH   LINE      ---      ---       #361
      00FF8446H   LINE      ---      ---       #362
      00FF8477H   LINE      ---      ---       #363
      00FF84A3H   LINE      ---      ---       #364
      00FF84ADH   LINE      ---      ---       #367
      00FF84B6H   LINE      ---      ---       #368
      00FF84C2H   LINE      ---      ---       #369
      00FF84C4H   LINE      ---      ---       #373
      00FF8506H   LINE      ---      ---       #374
      00FF853BH   LINE      ---      ---       #375
      00FF853BH   LINE      ---      ---       #377
      00FF853FH   LINE      ---      ---       #382
      00FF854BH   LINE      ---      ---       #383
      00FF8557H   LINE      ---      ---       #385
      00FF855CH   LINE      ---      ---       #386
      WR2         REGSYM    ---      INT       dataBwIdx
      WR30        REGSYM    ---      INT       subgBand
      ---         BLOCKEND  CODE     ---       LVL=2
      00FF8568H   LINE      ---      ---       #387
      00FF8568H   LINE      ---      ---       #392
      00FF856CH   LINE      ---      ---       #396
      00FF856EH   LINE      ---      ---       #400
      00FF856EH   LINE      CODE     ---       #400
      ---         BLOCKEND  CODE     ---       LVL=0

      00FF4C9DH   BLOCK     CODE     ---       LVL=0
      00FF4C9DH   LINE      ---      ---       #404
      00FF4C9DH   LINE      ---      ---       #409
      00FF4CA1H   LINE      ---      ---       #418
      00FF4CA9H   LINE      ---      ---       #419
      00FF4CABH   LINE      ---      ---       #429
      WR6         REGSYM    ---      INT       modIdx
      ---         BLOCKEND  ---      ---       LVL=0

      00FF3F02H   BLOCK     CODE     ---       LVL=0
      00FF3F02H   LINE      ---      ---       #435
      00FF3F02H   LINE      ---      ---       #439
      R7          REGSYM    ---      BYTE      preambleNum
      ---         BLOCKEND  ---      ---       LVL=0

      00FF8572H   BLOCK     CODE     ---       LVL=0
      00FF8572H   LINE      ---      ---       #443
      00FF857AH   LINE      ---      ---       #449
      WR30        REGSYM    ---      INT       dataBw
L251 LINKER/LOCATER V4.66.93.0                                                        12/18/2023  14:26:43  PAGE 135


      WR8         REGSYM    ---      INT       modIdx
      WR28        REGSYM    ---      INT       codingType
      R11         REGSYM    ---      BYTE      bAutoCfg
      00FF857AH   BLOCK     CODE     NEAR LAB  LVL=1
      00FF857AH   LINE      ---      ---       #454
      00FF858CH   LINE      ---      ---       #456
      00FF8592H   LINE      ---      ---       #474
      00FF8596H   LINE      ---      ---       #476
      00FF85ADH   LINE      ---      ---       #479
      00FF85ADH   LINE      ---      ---       #488
      00FF85B3H   LINE      ---      ---       #489
      00FF85BDH   LINE      ---      ---       #492
      00FF85CCH   LINE      ---      ---       #494
      00FF85CEH   LINE      ---      ---       #498
      00FF85CEH   LINE      ---      ---       #501
      00FF85D4H   LINE      ---      ---       #502
      00FF85DEH   LINE      ---      ---       #506
      00FF85E9H   LINE      ---      ---       #509
      00FF85E9H   LINE      ---      ---       #514
      00FF85F9H   LINE      ---      ---       #516
      00FF85FBH   LINE      ---      ---       #520
      00FF85FBH   LINE      ---      ---       #525
      00FF860BH   LINE      ---      ---       #527
      00FF860DH   LINE      ---      ---       #529
      00FF860DH   LINE      ---      ---       #530
      00FF860DH   LINE      ---      ---       #531
      00FF860DH   LINE      ---      ---       #535
      00FF860DH   LINE      ---      ---       #537
      00FF8618H   LINE      ---      ---       #540
      00FF8618H   LINE      ---      ---       #545
      00FF8628H   LINE      ---      ---       #547
      00FF862AH   LINE      ---      ---       #551
      00FF862AH   LINE      ---      ---       #556
      00FF864CH   LINE      ---      ---       #558
      00FF864CH   LINE      ---      ---       #560
      00FF864CH   LINE      ---      ---       #561
      00FF864CH   LINE      ---      ---       #574
      00FF864CH   LINE      ---      ---       #580
      00FF864CH   LINE      ---      ---       #583
      00FF8662H   LINE      ---      ---       #587
      00FF8662H   LINE      ---      ---       #590
      00FF8662H   LINE      ---      ---       #593
      00FF8662H   LINE      ---      ---       #596
      00FF8669H   LINE      ---      ---       #598
      00FF8671H   LINE      ---      ---       #600
      00FF8679H   LINE      ---      ---       #603
      00FF869BH   LINE      ---      ---       #605
      00FF86B7H   LINE      ---      ---       #611
      00FF86C1H   LINE      ---      ---       #613
      00FF86C1H   LINE      ---      ---       #615
      00FF86C1H   LINE      ---      ---       #618
      00FF86C3H   LINE      ---      ---       #630
      00FF86E8H   LINE      ---      ---       #631
      00FF8701H   LINE      ---      ---       #634
      00FF8727H   LINE      ---      ---       #636
      00FF872FH   LINE      ---      ---       #642
      00FF8731H   LINE      ---      ---       #645
      00FF8731H   LINE      ---      ---       #648
      00FF8741H   LINE      ---      ---       #660
      00FF8771H   LINE      ---      ---       #661
      00FF878AH   LINE      ---      ---       #664
      00FF87B1H   LINE      ---      ---       #666
      00FF87BAH   LINE      ---      ---       #671
      00FF87BAH   LINE      ---      ---       #673
      00FF87BAH   LINE      ---      ---       #677
L251 LINKER/LOCATER V4.66.93.0                                                        12/18/2023  14:26:43  PAGE 136


      00FF87DCH   LINE      ---      ---       #678
      00FF87F3H   LINE      ---      ---       #680
      00FF8801H   LINE      ---      ---       #683
      00FF8807H   LINE      ---      ---       #684
      00FF8811H   LINE      ---      ---       #686
      00FF8824H   LINE      ---      ---       #691
      00FF8824H   LINE      ---      ---       #717
      00FF8824H   LINE      ---      ---       #721
      00FF882CH   LINE      ---      ---       #728
      WR12        REGSYM    ---      INT       dataBwEff
      WR14        REGSYM    ---      INT       dataBwIdx
      WR6         REGSYM    ---      INT       dataBwIdxDclk
      ---         BLOCKEND  CODE     ---       LVL=1
      00FF882CH   LINE      ---      ---       #729
      00FF882CH   LINE      CODE     ---       #729

      00FF482AH   BLOCK     CODE     ---       LVL=0
      00FF482AH   LINE      ---      ---       #731
      00FF4838H   LINE      ---      ---       #737
      WR14        REGSYM    ---      INT       dataBw
      0000AF16H   SYMBOL    EDATA    INT       modIdx
      WR12        REGSYM    ---      INT       codingType
      0000AF18H   SYMBOL    EDATA    BYTE      bAutoCfg
      00FF4838H   BLOCK     CODE     NEAR LAB  LVL=1
      00FF4838H   LINE      ---      ---       #742
      00FF484EH   LINE      ---      ---       #744
      00FF4858H   LINE      ---      ---       #768
      00FF4871H   LINE      ---      ---       #772
      00FF4871H   LINE      ---      ---       #775
      00FF4883H   LINE      ---      ---       #781
      00FF4889H   LINE      ---      ---       #783
      00FF48A7H   LINE      ---      ---       #786
      00FF48B0H   LINE      ---      ---       #787
      00FF48B2H   LINE      ---      ---       #791
      00FF48B8H   LINE      ---      ---       #793
      00FF48D4H   LINE      ---      ---       #796
      00FF48D6H   LINE      ---      ---       #799
      00FF48F4H   LINE      ---      ---       #802
      00FF48F4H   LINE      ---      ---       #803
      00FF4900H   LINE      ---      ---       #804
      00FF4900H   LINE      ---      ---       #808
      00FF4900H   LINE      ---      ---       #811
      00FF4900H   LINE      ---      ---       #815
      00FF490FH   LINE      ---      ---       #817
      00FF491FH   LINE      ---      ---       #819
      00FF4921H   LINE      ---      ---       #832
      00FF493DH   LINE      ---      ---       #835
      00FF493DH   LINE      ---      ---       #839
      00FF4943H   LINE      ---      ---       #840
      00FF494DH   LINE      ---      ---       #842
      00FF495FH   LINE      ---      ---       #846
      00FF4965H   LINE      ---      ---       #850
      00FF497EH   LINE      ---      ---       #852
      00FF498CH   LINE      ---      ---       #854
      00FF4995H   LINE      ---      ---       #859
      00FF499BH   LINE      ---      ---       #860
      00FF49A5H   LINE      ---      ---       #862
      00FF49B8H   LINE      ---      ---       #890
      00FF49DCH   LINE      ---      ---       #892
      00FF49DCH   LINE      ---      ---       #895
      00FF49E8H   LINE      ---      ---       #897
      00FF49F4H   LINE      ---      ---       #899
      00FF4A00H   LINE      ---      ---       #902
      00FF4A0FH   LINE      ---      ---       #905
      00FF4A0FH   LINE      ---      ---       #908
L251 LINKER/LOCATER V4.66.93.0                                                        12/18/2023  14:26:43  PAGE 137


      00FF4A38H   LINE      ---      ---       #909
      00FF4A4EH   LINE      ---      ---       #912
      00FF4A72H   LINE      ---      ---       #913
      00FF4A8BH   LINE      ---      ---       #915
      00FF4AAFH   LINE      ---      ---       #917
      00FF4AC5H   LINE      ---      ---       #918
      00FF4AD3H   LINE      ---      ---       #931
      00FF4ADFH   LINE      ---      ---       #932
      00FF4AE1H   LINE      ---      ---       #936
      00FF4AE1H   LINE      ---      ---       #939
      00FF4B0AH   LINE      ---      ---       #940
      00FF4B20H   LINE      ---      ---       #943
      00FF4B44H   LINE      ---      ---       #944
      00FF4B5DH   LINE      ---      ---       #946
      00FF4B81H   LINE      ---      ---       #948
      00FF4B97H   LINE      ---      ---       #949
      00FF4BA5H   LINE      ---      ---       #965
      00FF4BB2H   LINE      ---      ---       #966
      00FF4BB2H   LINE      ---      ---       #968
      00FF4BB2H   LINE      ---      ---       #971
      00FF4BC3H   LINE      ---      ---       #977
      00FF4BDCH   LINE      ---      ---       #981
      00FF4BDCH   LINE      ---      ---       #1014
      00FF4BDCH   LINE      ---      ---       #1015
      00FF4BDCH   LINE      ---      ---       #1016
      00FF4BDCH   LINE      ---      ---       #1020
      00FF4BE9H   LINE      ---      ---       #1021
      00FF4BEFH   LINE      ---      ---       #1030
      WR6         REGSYM    ---      INT       dataBwEff
      0000AF19H   SYMBOL    EDATA    INT       dataBwIdx
      0000AF1BH   SYMBOL    EDATA    INT       dataBwIdxDclk
      ---         BLOCKEND  CODE     ---       LVL=1
      00FF4BEFH   LINE      ---      ---       #1031
      00FF4BEFH   LINE      CODE     ---       #1031

      00FF882FH   BLOCK     CODE     ---       LVL=0
      00FF882FH   LINE      ---      ---       #1033
      00FF8837H   LINE      ---      ---       #1039
      R15         REGSYM    ---      BYTE      LNAGainIndex
      R8          REGSYM    ---      BYTE      TIAGainindex
      R9          REGSYM    ---      BYTE      VGAGainindex
      R10         REGSYM    ---      CHAR      RSSIvalue
      00FF8837H   BLOCK     CODE     NEAR LAB  LVL=1
      00FF8837H   LINE      ---      ---       #1041
      00FF883BH   LINE      ---      ---       #1042
      00FF8844H   LINE      ---      ---       #1053
      00FF8883H   LINE      ---      ---       #1057
      00FF8889H   LINE      ---      ---       #1058
      00FF888FH   LINE      ---      ---       #1060
      00FF88A3H   LINE      ---      ---       #1061
      00FF88B3H   LINE      ---      ---       #1062
      00FF88B5H   LINE      ---      ---       #1066
      WR6         REGSYM    ---      INT       RSSIvalueTemp
      R5          REGSYM    ---      BYTE      rfkBand
      REG=1       REGSYM    ---      ---       pRssiCtrl
      ---         BLOCKEND  CODE     ---       LVL=1
      00FF88B7H   LINE      ---      ---       #1067
      00FF88B7H   LINE      CODE     ---       #1067
      00FF856EH   LINE      ---      ---       #401

      ---         MODULE    ---      ---       hal_pkt
      00FF2454H   PUBLIC    CODE     ---       HALPKT_TxqDoneSet
      00FF22FFH   PUBLIC    CODE     ---       HALPKT_RxqDoneSet
      00FF24D1H   PUBLIC    CODE     ---       HALPKT_PhyStatusGet

L251 LINKER/LOCATER V4.66.93.0                                                        12/18/2023  14:26:43  PAGE 138


      00FF244CH   BLOCK     CODE     ---       LVL=0
      00FF2454H   LINE      ---      ---       #23
      00FF245CH   LINE      ---      ---       #31
      00FF2468H   LINE      ---      ---       #34
      00FF2472H   LINE      ---      ---       #35
      00FF2476H   LINE      ---      ---       #38
      00FF247EH   LINE      ---      ---       #40
      00FF2487H   LINE      ---      ---       #41
      00FF248AH   LINE      ---      ---       #42
      00FF248AH   LINE      ---      ---       #44
      00FF248EH   LINE      ---      ---       #47
      00FF2493H   LINE      ---      ---       #48
      00FF2493H   LINE      ---      ---       #50
      00FF2495H   LINE      ---      ---       #51
      00FF244CH   SYMBOL    CODE     NEAR LAB  ?L?COM0013
      R14         REGSYM    ---      BYTE      bLocalTxQueue
      R15         REGSYM    ---      BYTE      txQueueId
      R10         REGSYM    ---      BYTE      txPktId
      WR4         REGSYM    ---      INT       txProcess
      ---         BLOCKEND  ---      ---       LVL=0

      00FF22F9H   BLOCK     CODE     ---       LVL=0
      00FF22FFH   LINE      ---      ---       #53
      00FF2303H   LINE      ---      ---       #59
      00FF230FH   LINE      ---      ---       #62
      00FF231DH   LINE      ---      ---       #63
      00FF2320H   LINE      ---      ---       #66
      00FF232CH   LINE      ---      ---       #68
      00FF232CH   LINE      ---      ---       #69
      00FF232EH   LINE      ---      ---       #70
      00FF2330H   LINE      ---      ---       #72
      00FF2330H   LINE      ---      ---       #73
      00FF233AH   LINE      ---      ---       #74
      00FF233CH   LINE      ---      ---       #76
      00FF233EH   LINE      ---      ---       #77
      00FF2340H   LINE      ---      ---       #79
      00FF2340H   LINE      ---      ---       #80
      00FF2349H   LINE      ---      ---       #81
      00FF234BH   LINE      ---      ---       #83
      00FF234BH   LINE      ---      ---       #84
      00FF234DH   LINE      ---      ---       #85
      00FF234DH   LINE      ---      ---       #87
      00FF234FH   LINE      ---      ---       #88
      00FF22F9H   SYMBOL    CODE     NEAR LAB  ?L?COM0018
      R10         REGSYM    ---      BYTE      bLocalRxQueue
      WR4         REGSYM    ---      INT       rxProcess
      ---         BLOCKEND  ---      ---       LVL=0

      00FF24CDH   BLOCK     CODE     ---       LVL=0
      00FF24D1H   LINE      ---      ---       #91
      00FF24D7H   LINE      ---      ---       #95
      00FF24CDH   SYMBOL    CODE     NEAR LAB  ?L?COM002E
      R1          REGSYM    ---      BYTE      bLocalRxQueue
      REG=1       REGSYM    ---      ---       pRxPhyStatus
      00FF24D7H   BLOCK     CODE     NEAR LAB  LVL=1
      00FF24D7H   LINE      ---      ---       #100
      00FF24E4H   LINE      ---      ---       #101
      00FF24E8H   LINE      ---      ---       #103
      00FF24ECH   LINE      ---      ---       #104
      00FF24F7H   LINE      ---      ---       #106
      00FF24FFH   LINE      ---      ---       #112
      WR4         REGSYM    ---      WORD      rxPktLength
      R15         REGSYM    ---      BYTE      retValue
      WR4         REGSYM    ---      WORD      offset
      ---         BLOCKEND  CODE     ---       LVL=1
L251 LINKER/LOCATER V4.66.93.0                                                        12/18/2023  14:26:43  PAGE 139


      00FF2501H   LINE      ---      ---       #113
      00FF2501H   LINE      CODE     ---       #113

      ---         MODULE    ---      ---       hal_rf
      00FF88BAH   PUBLIC    CODE     ---       HALRF_AgcSet
      00FF88CDH   PUBLIC    CODE     ---       HALRF_TxPwrSet
      00FF8915H   PUBLIC    CODE     ---       HALRF_TemperatureRptGet
      00FF892CH   PUBLIC    CODE     ---       HALRF_VoltageRptGet
      00FF8943H   PUBLIC    CODE     ---       HALRF_RssiOffsetSet
      00FF7FABH   PUBLIC    CODE     ---       HALRF_AllPathDisable
      0000AF8DH   PUBLIC    EDATA    ---       txPwrCtrlArray

      00FF88BAH   BLOCK     CODE     ---       LVL=0
      00FF88BAH   LINE      ---      ---       #32
      00FF88BAH   LINE      ---      ---       #40
      00FF88BEH   LINE      ---      ---       #41
      00FF88C2H   LINE      ---      ---       #42
      00FF88C6H   LINE      ---      ---       #43
      00FF88CAH   LINE      ---      ---       #46
      WR6         REGSYM    ---      INT       type
      R3          REGSYM    ---      BYTE      lnaGain
      R5          REGSYM    ---      BYTE      tiaGain
      R4          REGSYM    ---      BYTE      vgaGain
      ---         BLOCKEND  ---      ---       LVL=0

      00FF88CDH   BLOCK     CODE     ---       LVL=0
      00FF88CDH   LINE      ---      ---       #50
      00FF88D7H   LINE      ---      ---       #56
      WR30        REGSYM    ---      INT       rfkBand
      WR8         REGSYM    ---      INT       modem
      R15         REGSYM    ---      BYTE      gainTab
      R10         REGSYM    ---      BYTE      offset
      00FF88D7H   BLOCK     CODE     NEAR LAB  LVL=1
      00FF88D7H   LINE      ---      ---       #58
      00FF88EBH   LINE      ---      ---       #60
      00FF88F3H   LINE      ---      ---       #62
      00FF88F7H   LINE      ---      ---       #63
      00FF88FBH   LINE      ---      ---       #69
      00FF890FH   LINE      ---      ---       #71
      00FF8912H   LINE      ---      ---       #72
      REG=14      REGSYM    ---      ---       pTxPwrCtrl
      ---         BLOCKEND  CODE     ---       LVL=1
      ---         BLOCKEND  CODE     ---       LVL=0

      00FF8943H   BLOCK     CODE     ---       LVL=0
      00FF8943H   LINE      ---      ---       #221
      00FF8945H   LINE      ---      ---       #225
      WR6         REGSYM    ---      INT       rfkBand
      R10         REGSYM    ---      BYTE      offset
      00FF8945H   BLOCK     CODE     NEAR LAB  LVL=1
      00FF8945H   LINE      ---      ---       #227
      00FF894DH   LINE      ---      ---       #229
      00FF8955H   LINE      ---      ---       #230
      REG=4       REGSYM    ---      ---       pRssiCtrl
      ---         BLOCKEND  CODE     ---       LVL=1
      00FF8959H   LINE      ---      ---       #231
      00FF8959H   LINE      CODE     ---       #231

      00FF8915H   BLOCK     CODE     ---       LVL=0
      00FF8915H   LINE      ---      ---       #233
      00FF8919H   LINE      ---      ---       #238
      00FF8924H   LINE      ---      ---       #239
      00FF892BH   LINE      ---      ---       #240
      REG=4       REGSYM    ---      ---       pTimeStamp
      REG=5       REGSYM    ---      ---       pValue
L251 LINKER/LOCATER V4.66.93.0                                                        12/18/2023  14:26:43  PAGE 140


      ---         BLOCKEND  ---      ---       LVL=0

      00FF892CH   BLOCK     CODE     ---       LVL=0
      00FF892CH   LINE      ---      ---       #242
      00FF8930H   LINE      ---      ---       #247
      00FF893BH   LINE      ---      ---       #248
      00FF8942H   LINE      ---      ---       #249
      REG=4       REGSYM    ---      ---       pTimeStamp
      REG=5       REGSYM    ---      ---       pValue
      ---         BLOCKEND  ---      ---       LVL=0

      00FF7FABH   BLOCK     CODE     ---       LVL=0
      00FF7FABH   LINE      ---      ---       #252
      00FF7FABH   LINE      ---      ---       #254
      00FF7FB7H   LINE      ---      ---       #256
      00FF7FBCH   LINE      ---      ---       #257
      00FF7FC1H   LINE      ---      ---       #258
      00FF7FC6H   LINE      ---      ---       #260
      00FF7FD2H   LINE      ---      ---       #261
      00FF7FD7H   LINE      ---      ---       #262
      00FF7FDCH   LINE      ---      ---       #268
      ---         BLOCKEND  ---      ---       LVL=0

      ---         MODULE    ---      ---       hal_rfdb

      ---         MODULE    ---      ---       hal_sec
      00FF895AH   PUBLIC    CODE     ---       HALSEC_AesKeySet
      00FF89A0H   PUBLIC    CODE     ---       HALSEC_AesKeyOnlySet
      00FF89B5H   PUBLIC    CODE     ---       HALSEC_NonceOnlySet
      00FF89C2H   PUBLIC    CODE     ---       HALSEC_AesLevelOnlySet
      00FF2FFBH   PUBLIC    CODE     ---       HALSEC_AesSet
      00FF89ECH   PUBLIC    CODE     ---       HALSEC_AesTxSet
      0000AF58H   PUBLIC    EDATA    BYTE      ?HALSEC_AesSet?BYTE

      00FF895AH   BLOCK     CODE     ---       LVL=0
      00FF895AH   LINE      ---      ---       #23
      00FF8960H   LINE      ---      ---       #35
      00FF8973H   LINE      ---      ---       #39
      00FF8980H   LINE      ---      ---       #40
      WR2         REGSYM    ---      INT       aesKeyType
      REG=0       REGSYM    ---      ---       pAesKey
      REG=7       REGSYM    ---      ---       pNonce
      ---         BLOCKEND  ---      ---       LVL=0

      00FF89A0H   BLOCK     CODE     ---       LVL=0
      00FF89A0H   LINE      ---      ---       #42
      00FF89A2H   LINE      ---      ---       #53
      WR2         REGSYM    ---      INT       aesKeyType
      REG=0       REGSYM    ---      ---       pAesKey
      ---         BLOCKEND  ---      ---       LVL=0

      00FF89B5H   BLOCK     CODE     ---       LVL=0
      00FF89B5H   LINE      ---      ---       #57
      00FF89B7H   LINE      ---      ---       #63
      REG=2       REGSYM    ---      ---       pNonce
      ---         BLOCKEND  ---      ---       LVL=0

      00FF89C2H   BLOCK     CODE     ---       LVL=0
      00FF89C2H   LINE      ---      ---       #66
      00FF89C4H   LINE      ---      ---       #74
      00FF89E0H   LINE      ---      ---       #77
      WR6         REGSYM    ---      INT       aesLevel
      R10         REGSYM    ---      BYTE      bLoopback
      ---         BLOCKEND  ---      ---       LVL=0

L251 LINKER/LOCATER V4.66.93.0                                                        12/18/2023  14:26:43  PAGE 141


      00FF2FFBH   BLOCK     CODE     ---       LVL=0
      00FF2FFBH   LINE      ---      ---       #80
      00FF2FFFH   LINE      ---      ---       #93
      00FF301DH   LINE      ---      ---       #96
      00FF3032H   LINE      ---      ---       #100
      00FF303DH   LINE      ---      ---       #104
      00FF3048H   LINE      ---      ---       #107
      00FF3055H   LINE      ---      ---       #108
      00FF3062H   LINE      ---      ---       #111
      00FF3072H   LINE      ---      ---       #112
      WR6         REGSYM    ---      INT       aesLevel
      WR8         REGSYM    ---      INT       aesMode
      R10         REGSYM    ---      BYTE      bLoopback
      WR2         REGSYM    ---      WORD      aDataLength
      WR0         REGSYM    ---      WORD      mDataLength
      0000AF61H   SYMBOL    EDATA    WORD      bypassLen0
      0000AF63H   SYMBOL    EDATA    WORD      bypassLen1
      ---         BLOCKEND  ---      ---       LVL=0

      00FF89ECH   BLOCK     CODE     ---       LVL=0
      00FF89ECH   LINE      ---      ---       #114
      00FF89F0H   LINE      ---      ---       #121
      00FF89FBH   LINE      ---      ---       #125
      00FF8A06H   LINE      ---      ---       #126
      WR0         REGSYM    ---      WORD      aDataLength
      WR2         REGSYM    ---      WORD      mDataLength
      ---         BLOCKEND  ---      ---       LVL=0

      ---         MODULE    ---      ---       hal_rfk
      00FF42A5H   PUBLIC    CODE     ---       HALRFK_Calibration
      00FF8A07H   PUBLIC    CODE     ---       HALRFK_kValueSet?_
      00FF8A5FH   PUBLIC    CODE     ---       HALRFK_kValueSet2Hw
      00FF8AECH   PUBLIC    CODE     ---       HALRFK_kValueGet?_

      00FF42A5H   BLOCK     CODE     ---       LVL=0
      00FF42A5H   LINE      ---      ---       #40
      00FF42A7H   LINE      ---      ---       #41
      00FF42A7H   BLOCK     CODE     NEAR LAB  LVL=1
      00FF42A7H   LINE      ---      ---       #42
      00FF42ADH   LINE      ---      ---       #43
      00FF42B3H   LINE      ---      ---       #44
      00FF42BFH   LINE      ---      ---       #51
      00FF42C3H   LINE      ---      ---       #55
      00FF42C7H   LINE      ---      ---       #56
      00FF42C7H   LINE      ---      ---       #68
      00FF42CAH   LINE      ---      ---       #71
      00FF42D1H   LINE      ---      ---       #76
      00FF42D6H   LINE      ---      ---       #103
      00FF42D8H   LINE      ---      ---       #105
      00FF42DCH   LINE      ---      ---       #106
      00FF42DEH   LINE      ---      ---       #107
      00FF42E4H   LINE      ---      ---       #108
      00FF42E6H   LINE      ---      ---       #109
      00FF42E8H   LINE      ---      ---       #110
      00FF42F0H   LINE      ---      ---       #115
      00FF42F5H   LINE      ---      ---       #125
      00FF42FAH   LINE      ---      ---       #143
      00FF42FCH   LINE      ---      ---       #145
      00FF4300H   LINE      ---      ---       #146
      00FF4302H   LINE      ---      ---       #147
      00FF430BH   LINE      ---      ---       #148
      00FF430DH   LINE      ---      ---       #149
      00FF430FH   LINE      ---      ---       #150
      00FF4317H   LINE      ---      ---       #155
      00FF431DH   LINE      ---      ---       #157
L251 LINKER/LOCATER V4.66.93.0                                                        12/18/2023  14:26:43  PAGE 142


      00FF4321H   LINE      ---      ---       #158
      00FF4323H   LINE      ---      ---       #159
      00FF432CH   LINE      ---      ---       #160
      00FF432EH   LINE      ---      ---       #161
      00FF4330H   LINE      ---      ---       #162
      00FF4338H   LINE      ---      ---       #167
      00FF433DH   LINE      ---      ---       #174
      WR14        REGSYM    ---      INT       rfBand
      WR6         REGSYM    ---      INT       rfkBand
      REG=6       REGSYM    ---      ---       pRfkCtrl
      0000ADADH   SYMBOL    EDATA    ---       sHalrfkParaBackup
      ---         BLOCKEND  CODE     ---       LVL=1
      00FF4343H   LINE      ---      ---       #187
      00FF4343H   LINE      CODE     ---       #187

      00FF8A07H   BLOCK     CODE     ---       LVL=0
      00FF8A07H   LINE      ---      ---       #218
      00FF8A0DH   LINE      ---      ---       #226
      WR0         REGSYM    ---      INT       rfkBand
      R11         REGSYM    ---      BYTE      status
      R10         REGSYM    ---      BYTE      rxFilt
      REG=1       REGSYM    ---      ---       pTxLo
      FFFFFFFDH   STKSYM    ---      ---       pTxSb
      00FF8A0DH   BLOCK     CODE     NEAR LAB  LVL=1
      00FF8A0DH   LINE      ---      ---       #227
      00FF8A19H   LINE      ---      ---       #231
      00FF8A1CH   LINE      ---      ---       #232
      00FF8A20H   LINE      ---      ---       #239
      00FF8A20H   LINE      ---      ---       #241
      00FF8A27H   LINE      ---      ---       #242
      00FF8A2FH   LINE      ---      ---       #243
      00FF8A3AH   LINE      ---      ---       #244
      00FF8A46H   LINE      ---      ---       #245
      00FF8A52H   LINE      ---      ---       #248
      00FF8A5CH   LINE      ---      ---       #249
      REG=4       REGSYM    ---      ---       pRfkCtrl
      ---         BLOCKEND  CODE     ---       LVL=1
      00FF8A5EH   LINE      ---      ---       #250
      00FF8A5EH   LINE      CODE     ---       #250

      00FF8A5FH   BLOCK     CODE     ---       LVL=0
      00FF8A5FH   LINE      ---      ---       #253
      00FF8A5FH   LINE      ---      ---       #254
      00FF8A5FH   BLOCK     CODE     NEAR LAB  LVL=1
      00FF8A5FH   LINE      ---      ---       #255
      00FF8A6CH   LINE      ---      ---       #258
      00FF8A74H   LINE      ---      ---       #263
      00FF8A78H   LINE      ---      ---       #265
      00FF8A7AH   LINE      ---      ---       #271
      00FF8A85H   LINE      ---      ---       #273
      00FF8A85H   LINE      ---      ---       #292
      00FF8A8AH   LINE      ---      ---       #294
      00FF8A95H   LINE      ---      ---       #295
      00FF8A99H   LINE      ---      ---       #296
      00FF8A9BH   LINE      ---      ---       #299
      00FF8AA3H   LINE      ---      ---       #300
      00FF8AAAH   LINE      ---      ---       #301
      00FF8AAAH   LINE      ---      ---       #303
      00FF8AAFH   LINE      ---      ---       #305
      00FF8ABAH   LINE      ---      ---       #306
      00FF8AC5H   LINE      ---      ---       #307
      00FF8AD0H   LINE      ---      ---       #308
      00FF8AD1H   LINE      ---      ---       #311
      00FF8ADAH   LINE      ---      ---       #312
      00FF8AE2H   LINE      ---      ---       #313
L251 LINKER/LOCATER V4.66.93.0                                                        12/18/2023  14:26:43  PAGE 143


      00FF8AEBH   LINE      ---      ---       #314
      00FF8AEBH   LINE      ---      ---       #319
      REG=3       REGSYM    ---      ---       pRfkCtrl
      ---         BLOCKEND  CODE     ---       LVL=1
      00FF8AEBH   LINE      ---      ---       #321
      00FF8AEBH   LINE      CODE     ---       #321

      00FF8AECH   BLOCK     CODE     ---       LVL=0
      00FF8AECH   LINE      ---      ---       #324
      00FF8AF4H   LINE      ---      ---       #331
      REG=5       REGSYM    ---      ---       pStatus
      REG=0       REGSYM    ---      ---       pRxFilt
      REG=1       REGSYM    ---      ---       pRxTiaDc
      REG=7       REGSYM    ---      ---       pTxLo
      FFFFFFF9H   STKSYM    ---      ---       pTxSb
      00FF8AF4H   BLOCK     CODE     NEAR LAB  LVL=1
      00FF8AF4H   LINE      ---      ---       #332
      00FF8B01H   LINE      ---      ---       #334
      00FF8B07H   LINE      ---      ---       #335
      00FF8B0EH   LINE      ---      ---       #336
      00FF8B1DH   LINE      ---      ---       #337
      00FF8B2CH   LINE      ---      ---       #338
      REG=6       REGSYM    ---      ---       pRfkCtrl
      ---         BLOCKEND  CODE     ---       LVL=1
      00FF8B3DH   LINE      ---      ---       #339
      00FF8B3DH   LINE      CODE     ---       #339

      ---         MODULE    ---      ---       hal_io
      00FF8B40H   PUBLIC    CODE     ---       HALIO_dioSet
      00000080H   SFRSYM    DATA     BYTE      P0

      00FF8B40H   BLOCK     CODE     ---       LVL=0
      00FF8B40H   LINE      ---      ---       #24
      00FF8B40H   LINE      ---      ---       #33
      00FF8B5EH   LINE      ---      ---       #34
      00FF8B69H   LINE      ---      ---       #53
      00FF8B6CH   LINE      ---      ---       #54
      ---         BLOCKEND  ---      ---       LVL=0

      ---         MODULE    ---      ---       hal_init
      00FF8B6DH   PUBLIC    CODE     ---       HAL_ParaInit
      00FF8C56H   PUBLIC    CODE     ---       HAL_ColdInit
      00FF55F4H   PUBLIC    CODE     ---       HAL_DftParaGet
      0000AB53H   PUBLIC    EDATA    ---       pHalFwCfg
      0000AB57H   PUBLIC    EDATA    ---       pHalRegPatch
      0000AB5BH   PUBLIC    EDATA    ---       pHalHwCfg
      0000AB5FH   PUBLIC    EDATA    ---       pHalMdmDefaultCfg
      0000AB63H   PUBLIC    EDATA    ---       pHalRfDefaultCfg2G
      0000AB67H   PUBLIC    EDATA    ---       pHalRfDefaultCfgSubG
      0000AB6BH   PUBLIC    EDATA    ---       pHalPmuDefaultCfg2G
      0000AB6FH   PUBLIC    EDATA    ---       pHalPmuDefaultCfgSubG
      0000AB73H   PUBLIC    EDATA    ---       pHalBmuMemSizeHwRxq
      0000AB77H   PUBLIC    EDATA    ---       pHalBmuMemSizeHwSwRxq
      0000AB7BH   PUBLIC    EDATA    ---       pHalHwPara
      0000AB7FH   PUBLIC    EDATA    ---       pHalHwTab
      0000AB83H   PUBLIC    EDATA    ---       sHalCtrl
      0000AC1BH   PUBLIC    EDATA    ---       sHalPktCfg
      0000AC4AH   PUBLIC    EDATA    ---       pHalPktCfg
      0000AC4CH   PUBLIC    EDATA    ---       sHalFuncHdlr
      0000AC90H   PUBLIC    EDATA    ---       pHalPrtclCfg
      00FF10D7H   PUBLIC    HCONST   ---       sHalParaIndDefault

      00FF55F4H   BLOCK     CODE     ---       LVL=0
      00FF55F4H   LINE      ---      ---       #263
      00FF55F6H   LINE      ---      ---       #266
L251 LINKER/LOCATER V4.66.93.0                                                        12/18/2023  14:26:43  PAGE 144


      WR2         REGSYM    ---      INT       halType
      00FF55F6H   BLOCK     CODE     NEAR LAB  LVL=1
      00FF55F6H   LINE      ---      ---       #274
      00FF55FEH   LINE      ---      ---       #276
      REG=1       REGSYM    ---      ---       pHalParaInd
      ---         BLOCKEND  CODE     ---       LVL=1
      00FF5614H   LINE      ---      ---       #277
      00FF5614H   LINE      CODE     ---       #277

      00FF8B6DH   BLOCK     CODE     ---       LVL=0
      00FF8B6DH   LINE      ---      ---       #279
      00FF8B6DH   LINE      ---      ---       #296
      00FF8B7BH   LINE      ---      ---       #297
      00FF8B89H   LINE      ---      ---       #306
      00FF8B9BH   LINE      ---      ---       #317
      00FF8BADH   LINE      ---      ---       #334
      00FF8BBFH   LINE      ---      ---       #337
      00FF8BD1H   LINE      ---      ---       #356
      00FF8BE3H   LINE      ---      ---       #359
      00FF8BF5H   LINE      ---      ---       #373
      00FF8C07H   LINE      ---      ---       #374
      00FF8C19H   LINE      ---      ---       #383
      00FF8C2BH   LINE      ---      ---       #391
      00FF8C3DH   LINE      ---      ---       #399
      00FF8C4FH   LINE      ---      ---       #407
      00FF8C55H   LINE      ---      ---       #410
      ---         BLOCKEND  ---      ---       LVL=0

      00FF8C56H   BLOCK     CODE     ---       LVL=0
      00FF8C56H   LINE      ---      ---       #412
      00FF8C56H   LINE      ---      ---       #420
      00FF8C5CH   LINE      ---      ---       #421
      00FF8C60H   LINE      ---      ---       #422
      00FF8C76H   LINE      ---      ---       #423
      ---         BLOCKEND  ---      ---       LVL=0

      ---         MODULE    ---      ---       hal_patch

      ---         MODULE    ---      ---       hal_prtcl
      00FF1189H   PUBLIC    HCONST   ---       sHalPrtclCfg

      ---         MODULE    ---      ---       hal_rt569mp_init
      00FF7C92H   PUBLIC    CODE     ---       HAL_HwInit

      00FF7C92H   BLOCK     CODE     ---       LVL=0
      00FF7C92H   LINE      ---      ---       #27
      00FF7CA0H   LINE      ---      ---       #34
      00FF7CA4H   LINE      ---      ---       #35
      00FF7CA8H   LINE      ---      ---       #36
      00FF7CACH   LINE      ---      ---       #145
      00FF7CBBH   LINE      ---      ---       #148
      00FF7CCBH   LINE      ---      ---       #151
      00FF7CCBH   LINE      ---      ---       #152
      00FF7CDAH   LINE      ---      ---       #153
      00FF7CE9H   LINE      ---      ---       #154
      00FF7CF5H   LINE      ---      ---       #158
      00FF7CF9H   LINE      ---      ---       #159
      00FF7D04H   LINE      ---      ---       #162
      00FF7D0DH   LINE      ---      ---       #164
      00FF7D0FH   LINE      ---      ---       #168
      00FF7D0FH   LINE      ---      ---       #169
      00FF7D1EH   LINE      ---      ---       #170
      00FF7D2DH   LINE      ---      ---       #171
      00FF7D39H   LINE      ---      ---       #174
      00FF7D45H   LINE      ---      ---       #175
L251 LINKER/LOCATER V4.66.93.0                                                        12/18/2023  14:26:43  PAGE 145


      00FF7D51H   LINE      ---      ---       #176
      00FF7D56H   LINE      ---      ---       #177
      00FF7D62H   LINE      ---      ---       #178
      00FF7D6BH   LINE      ---      ---       #179
      00FF7D77H   LINE      ---      ---       #180
      00FF7D83H   LINE      ---      ---       #182
      00FF7D9AH   LINE      ---      ---       #191
      00FF7DA6H   LINE      ---      ---       #192
      00FF7DB4H   LINE      ---      ---       #193
      00FF7DB9H   LINE      ---      ---       #194
      00FF7DC5H   LINE      ---      ---       #196
      00FF7DCDH   LINE      ---      ---       #198
      00FF7DD6H   LINE      ---      ---       #199
      00FF7DE2H   LINE      ---      ---       #200
      00FF7DEEH   LINE      ---      ---       #203
      00FF7DFAH   LINE      ---      ---       #204
      00FF7E08H   LINE      ---      ---       #205
      00FF7E14H   LINE      ---      ---       #206
      00FF7E22H   LINE      ---      ---       #210
      00FF7E30H   LINE      ---      ---       #211
      00FF7E3CH   LINE      ---      ---       #212
      00FF7E48H   LINE      ---      ---       #213
      00FF7E4FH   LINE      ---      ---       #241
      00FF7E57H   LINE      ---      ---       #243
      00FF7E57H   LINE      ---      ---       #244
      00FF7E63H   LINE      ---      ---       #245
      00FF7E71H   LINE      ---      ---       #246
      00FF7E71H   LINE      ---      ---       #247
      00FF7E71H   LINE      ---      ---       #249
      00FF7E71H   LINE      ---      ---       #251
      00FF7E71H   LINE      ---      ---       #254
      00FF7E77H   LINE      ---      ---       #257
      00FF7E7DH   LINE      ---      ---       #260
      00FF7E7FH   LINE      ---      ---       #263
      00FF7E96H   LINE      ---      ---       #275
      00FF7EA2H   LINE      ---      ---       #290
      00FF7EC0H   LINE      ---      ---       #292
      00FF7ECBH   LINE      ---      ---       #295
      00FF7ECDH   LINE      ---      ---       #301
      00FF7EDEH   LINE      ---      ---       #304
      00FF7EE1H   LINE      ---      ---       #307
      00FF7EEBH   LINE      ---      ---       #318
      00FF7EF4H   LINE      ---      ---       #319
      00FF7EFCH   LINE      ---      ---       #325
      0000AF65H   SYMBOL    EDATA    INT       rfBand
      WR14        REGSYM    ---      INT       rfkBand
      WR12        REGSYM    ---      INT       modem
      0000AF67H   SYMBOL    EDATA    INT       clkMode
      ---         BLOCKEND  ---      ---       LVL=0

      ---         MODULE    ---      ---       rt569mp_mem
      00FF1246H   PUBLIC    HCONST   ---       pMemMapSharedBuffer
      00FF1248H   PUBLIC    HCONST   ---       pMemMapExtData
      00FF124AH   PUBLIC    HCONST   ---       pMemMapBmuLinkTable

      ---         MODULE    ---      ---       rt569mp_reg
      00FF0006H   PUBLIC    HCONST   ---       pBmuMacIntrSts

      ---         MODULE    ---      ---       hal_rt569mp_rfk
      00FF8C77H   PUBLIC    CODE     ---       HALRFK_ParaBackUp
      00FF46C9H   PUBLIC    CODE     ---       HALRFK_ParaRecover
      00FF4375H   PUBLIC    CODE     ---       HALRFK_SingleToneEnable
      00FF4346H   PUBLIC    CODE     ---       HALRFK_SingleToneDisable
      00FF44ACH   PUBLIC    CODE     ---       HALRFK_PllForLokSet
      00FF8DE8H   PUBLIC    CODE     ---       HALRFK_TxLok
L251 LINKER/LOCATER V4.66.93.0                                                        12/18/2023  14:26:43  PAGE 146


      00FF44CBH   PUBLIC    CODE     ---       HALRFK_PllForSideBandKSet
      00FF8E6CH   PUBLIC    CODE     ---       HALRFK_TxSbk
      00FF8F3AH   PUBLIC    CODE     ---       HALRFK_LbPathEnable
      00FF8FF2H   PUBLIC    CODE     ---       HALRFK_LbPathDisable
      00FF4235H   PUBLIC    CODE     ---       HALRFK_LbTrxEnable
      00FF4353H   PUBLIC    CODE     ---       HALRFK_LbTrxDisable
      00FF4547H   PUBLIC    CODE     ---       HALRFK_PllForFiltKSet
      00FF4408H   PUBLIC    CODE     ---       HALRFK_RxFiltK
      00FF9019H   PUBLIC    CODE     ---       HALRFK_RxPathEnable
      00FF9089H   PUBLIC    CODE     ---       HALRFK_RxPathDisable
      00FF90B4H   PUBLIC    CODE     ---       HALRFK_RxEnable
      00FF9133H   PUBLIC    CODE     ---       HALRFK_RxDisable
      00FF9151H   PUBLIC    CODE     ---       HALRFK_RingPllSet
      00FF439EH   PUBLIC    CODE     ---       HALRFK_RssiGet
      00FF44F1H   PUBLIC    CODE     ---       HALRFK_RfGainCfg
      00FF465EH   PUBLIC    CODE     ---       HALRFK_RfPllCfg
      00FF45AEH   PUBLIC    CODE     ---       HALRFK_RfTxCfg
      00FF8D73H   PUBLIC    CODE     ---       HALRFK_RxBwCfg
      0000AF69H   PUBLIC    EDATA    ---       sHalRfkCtrl
      0000AF75H   PUBLIC    EDATA    BYTE      ?HALRFK_RingPllSet?BYTE

      00FF9151H   BLOCK     CODE     ---       LVL=0
      00FF9151H   LINE      ---      ---       #211
      00FF9153H   LINE      ---      ---       #225
      00FF9166H   LINE      ---      ---       #226
      00FF9179H   LINE      ---      ---       #227
      00FF918DH   LINE      ---      ---       #228
      00FF91A3H   LINE      ---      ---       #229
      00FF91B7H   LINE      ---      ---       #230
      00FF91C9H   LINE      ---      ---       #231
      00FF91DEH   LINE      ---      ---       #232
      00FF91F4H   LINE      ---      ---       #233
      00FF920AH   LINE      ---      ---       #234
      00FF9210H   LINE      ---      ---       #235
      00FF9223H   LINE      ---      ---       #237
      00FF9240H   LINE      ---      ---       #238
      WR30        REGSYM    ---      INT       band
      R11         REGSYM    ---      BYTE      divNum
      R9          REGSYM    ---      BYTE      divNum2
      R10         REGSYM    ---      BYTE      calDiv
      R3          REGSYM    ---      BYTE      div2ClkRing
      R2          REGSYM    ---      BYTE      manuBank
      R1          REGSYM    ---      BYTE      bank1
      R0          REGSYM    ---      BYTE      iniBank
      0000AF7EH   SYMBOL    EDATA    BYTE      bypRst
      0000AF7FH   SYMBOL    EDATA    BYTE      tuneBuff
      0000AF80H   SYMBOL    EDATA    BYTE      calBuf
      ---         BLOCKEND  ---      ---       LVL=0

      00FF4392H   BLOCK     CODE     ---       LVL=0
      00FF439EH   LINE      ---      ---       #240
      00FF43A4H   LINE      ---      ---       #244
      00FF4392H   SYMBOL    CODE     NEAR LAB  ?L?COM0019
      WR4         REGSYM    ---      WORD      extraDelay
      R15         REGSYM    ---      BYTE      rssiAvg
      00FF43A4H   BLOCK     CODE     NEAR LAB  LVL=1
      00FF43A4H   LINE      ---      ---       #251
      00FF43B0H   LINE      ---      ---       #253
      00FF43B6H   LINE      ---      ---       #255
      00FF43C2H   LINE      ---      ---       #258
      00FF43C4H   LINE      ---      ---       #259
      00FF43C8H   LINE      ---      ---       #261
      00FF43CEH   LINE      ---      ---       #262
      00FF43D9H   LINE      ---      ---       #263
      00FF43E1H   LINE      ---      ---       #264
L251 LINKER/LOCATER V4.66.93.0                                                        12/18/2023  14:26:43  PAGE 147


      00FF43F8H   LINE      ---      ---       #266
      WR12        REGSYM    ---      INT       rssiAcc
      0000AF99H   SYMBOL    EDATA    CHAR      rssiTemp
      R14         REGSYM    ---      BYTE      idx
      ---         BLOCKEND  CODE     ---       LVL=1
      00FF4405H   LINE      ---      ---       #267
      00FF4405H   LINE      CODE     ---       #267

      00FF44EAH   BLOCK     CODE     ---       LVL=0
      00FF44F1H   LINE      ---      ---       #269
      00FF44F7H   LINE      ---      ---       #275
      00FF4505H   LINE      ---      ---       #276
      00FF4519H   LINE      ---      ---       #277
      00FF4529H   LINE      ---      ---       #278
      00FF4530H   LINE      ---      ---       #279
      00FF44EAH   SYMBOL    CODE     NEAR LAB  ?L?COM0027
      R10         REGSYM    ---      BYTE      lnaGain
      R2          REGSYM    ---      BYTE      vgaGain
      R3          REGSYM    ---      BYTE      tiaGain
      ---         BLOCKEND  ---      ---       LVL=0

      00FF465EH   BLOCK     CODE     ---       LVL=0
      00FF465EH   LINE      ---      ---       #282
      00FF4664H   LINE      ---      ---       #291
      00FF4677H   LINE      ---      ---       #292
      00FF468EH   LINE      ---      ---       #293
      00FF4699H   LINE      ---      ---       #294
      00FF46ADH   LINE      ---      ---       #295
      00FF46C1H   LINE      ---      ---       #296
      00FF46C8H   LINE      ---      ---       #297
      R11         REGSYM    ---      BYTE      pllN
      R9          REGSYM    ---      BYTE      pllS
      WR0         REGSYM    ---      WORD      pllSDM
      R10         REGSYM    ---      BYTE      mod
      R3          REGSYM    ---      BYTE      mod46
      R2          REGSYM    ---      BYTE      selVco
      ---         BLOCKEND  ---      ---       LVL=0

      00FF459AH   BLOCK     CODE     ---       LVL=0
      00FF45AEH   LINE      ---      ---       #315
      00FF45B8H   LINE      ---      ---       #326
      00FF45CBH   LINE      ---      ---       #327
      00FF45E4H   LINE      ---      ---       #328
      00FF45FBH   LINE      ---      ---       #329
      00FF460FH   LINE      ---      ---       #330
      00FF4622H   LINE      ---      ---       #331
      00FF4632H   LINE      ---      ---       #332
      00FF464CH   LINE      ---      ---       #333
      00FF459AH   SYMBOL    CODE     NEAR LAB  ?L?COM0008
      R11         REGSYM    ---      BYTE      regGainAttRefBle
      R8          REGSYM    ---      BYTE      gainPre
      R9          REGSYM    ---      BYTE      pwPa
      R0          REGSYM    ---      BYTE      pwD2s
      R1          REGSYM    ---      BYTE      pabPreSze
      R3          REGSYM    ---      BYTE      gainPa
      R2          REGSYM    ---      BYTE      pabPwPre
      R10         REGSYM    ---      BYTE      gainPaBit2
      ---         BLOCKEND  ---      ---       LVL=0

      00FF8D73H   BLOCK     CODE     ---       LVL=0
      00FF8D73H   LINE      ---      ---       #342
      00FF8D73H   LINE      ---      ---       #345
      00FF8D7CH   LINE      ---      ---       #346
      00FF8D8AH   LINE      ---      ---       #347
      00FF8D91H   LINE      ---      ---       #351
L251 LINKER/LOCATER V4.66.93.0                                                        12/18/2023  14:26:43  PAGE 148


      00FF8DA4H   LINE      ---      ---       #360
      00FF8DB7H   LINE      ---      ---       #367
      00FF8DCAH   LINE      ---      ---       #373
      00FF8DD3H   LINE      ---      ---       #376
      00FF8DDFH   LINE      ---      ---       #377
      00FF8DE7H   LINE      ---      ---       #378
      ---         BLOCKEND  ---      ---       LVL=0

      00FF8C77H   BLOCK     CODE     ---       LVL=0
      00FF8C77H   LINE      ---      ---       #380
      00FF8C7BH   LINE      ---      ---       #392
      00FF8C88H   LINE      ---      ---       #393
      00FF8C96H   LINE      ---      ---       #394
      00FF8CA3H   LINE      ---      ---       #395
      00FF8CAEH   LINE      ---      ---       #396
      00FF8CBBH   LINE      ---      ---       #397
      00FF8CC8H   LINE      ---      ---       #398
      00FF8CD7H   LINE      ---      ---       #399
      00FF8CE2H   LINE      ---      ---       #400
      00FF8CEFH   LINE      ---      ---       #404
      00FF8CFCH   LINE      ---      ---       #405
      00FF8D09H   LINE      ---      ---       #406
      00FF8D17H   LINE      ---      ---       #407
      00FF8D26H   LINE      ---      ---       #411
      00FF8D30H   LINE      ---      ---       #414
      00FF8D3FH   LINE      ---      ---       #415
      00FF8D4AH   LINE      ---      ---       #416
      00FF8D55H   LINE      ---      ---       #417
      00FF8D66H   LINE      ---      ---       #420
      00FF8D6EH   LINE      ---      ---       #423
      00FF8D70H   LINE      ---      ---       #428
      REG=7       REGSYM    ---      ---       pPara
      ---         BLOCKEND  ---      ---       LVL=0

      00FF46C9H   BLOCK     CODE     ---       LVL=0
      00FF46C9H   LINE      ---      ---       #430
      00FF46CDH   LINE      ---      ---       #435
      00FF46D3H   LINE      ---      ---       #436
      00FF46EBH   LINE      ---      ---       #442
      00FF470DH   LINE      ---      ---       #448
      00FF4717H   LINE      ---      ---       #451
      00FF4733H   LINE      ---      ---       #452
      00FF473EH   LINE      ---      ---       #453
      00FF4749H   LINE      ---      ---       #454
      00FF475AH   LINE      ---      ---       #455
      REG=7       REGSYM    ---      ---       pPara
      ---         BLOCKEND  ---      ---       LVL=0

      00FF4371H   BLOCK     CODE     ---       LVL=0
      00FF4375H   LINE      ---      ---       #457
      00FF4377H   LINE      ---      ---       #463
      00FF437EH   LINE      ---      ---       #464
      00FF4385H   LINE      ---      ---       #467
      00FF4391H   LINE      ---      ---       #468
      00FF4371H   SYMBOL    CODE     NEAR LAB  ?L?COM002B
      R11         REGSYM    ---      BYTE      stI
      R4          REGSYM    ---      BYTE      stQ
      ---         BLOCKEND  ---      ---       LVL=0

      00FF4346H   BLOCK     CODE     ---       LVL=0
      00FF4346H   LINE      ---      ---       #470
      00FF4346H   LINE      ---      ---       #473
      00FF4352H   LINE      ---      ---       #474
      ---         BLOCKEND  ---      ---       LVL=0

L251 LINKER/LOCATER V4.66.93.0                                                        12/18/2023  14:26:43  PAGE 149


      00FF44ACH   BLOCK     CODE     ---       LVL=0
      00FF44ACH   LINE      ---      ---       #478
      00FF44B0H   LINE      ---      ---       #486
      00FF44B2H   LINE      ---      ---       #488
      00FF44B6H   LINE      ---      ---       #497
      00FF44B6H   LINE      ---      ---       #499
      00FF44C8H   LINE      ---      ---       #500
      00FF44C8H   LINE      ---      ---       #502
      00FF44C8H   LINE      ---      ---       #503
      WR14        REGSYM    ---      INT       rfBand
      ---         BLOCKEND  ---      ---       LVL=0

      00FF8DE8H   BLOCK     CODE     ---       LVL=0
      00FF8DE8H   LINE      ---      ---       #505
      00FF8DECH   LINE      ---      ---       #508
      REG=7       REGSYM    ---      ---       pDcOffset
      00FF8DECH   BLOCK     CODE     NEAR LAB  LVL=1
      00FF8DECH   LINE      ---      ---       #527
      00FF8DF2H   LINE      ---      ---       #528
      00FF8DF7H   LINE      ---      ---       #529
      00FF8DF9H   LINE      ---      ---       #533
      00FF8DFCH   LINE      ---      ---       #537
      00FF8E03H   LINE      ---      ---       #542
      00FF8E09H   LINE      ---      ---       #546
      00FF8E14H   LINE      ---      ---       #552
      00FF8E1BH   LINE      ---      ---       #554
      00FF8E25H   LINE      ---      ---       #556
      00FF8E2DH   LINE      ---      ---       #557
      00FF8E31H   LINE      ---      ---       #558
      00FF8E35H   LINE      ---      ---       #559
      00FF8E48H   LINE      ---      ---       #571
      00FF8E50H   LINE      ---      ---       #574
      00FF8E5BH   LINE      ---      ---       #575
      00FF8E62H   LINE      ---      ---       #576
      00FF8E65H   LINE      ---      ---       #577
      0000AF6DH   SYMBOL    EDATA    CHAR      rssiMin
      0000AF6EH   SYMBOL    EDATA    CHAR      rssiTemp
      0000AF6FH   SYMBOL    EDATA    CHAR      minI
      R13         REGSYM    ---      CHAR      minQ
      R12         REGSYM    ---      CHAR      iIdx
      0000AF70H   SYMBOL    EDATA    CHAR      qIdx
      ---         BLOCKEND  CODE     ---       LVL=1
      00FF8E69H   LINE      ---      ---       #578
      00FF8E69H   LINE      CODE     ---       #578

      00FF44CBH   BLOCK     CODE     ---       LVL=0
      00FF44CBH   LINE      ---      ---       #582
      00FF44CFH   LINE      ---      ---       #590
      00FF44D1H   LINE      ---      ---       #592
      00FF44D5H   LINE      ---      ---       #601
      00FF44D5H   LINE      ---      ---       #603
      00FF44E7H   LINE      ---      ---       #605
      00FF44E7H   LINE      ---      ---       #606
      WR14        REGSYM    ---      INT       rfBand
      ---         BLOCKEND  ---      ---       LVL=0

      00FF8E6CH   BLOCK     CODE     ---       LVL=0
      00FF8E6CH   LINE      ---      ---       #608
      00FF8E70H   LINE      ---      ---       #611
      REG=7       REGSYM    ---      ---       pIqc
      00FF8E70H   BLOCK     CODE     NEAR LAB  LVL=1
      00FF8E70H   LINE      ---      ---       #632
      00FF8E76H   LINE      ---      ---       #633
      00FF8E7AH   LINE      ---      ---       #634
      00FF8E7FH   LINE      ---      ---       #635
L251 LINKER/LOCATER V4.66.93.0                                                        12/18/2023  14:26:43  PAGE 150


      00FF8E85H   LINE      ---      ---       #636
      00FF8E91H   LINE      ---      ---       #640
      00FF8E95H   LINE      ---      ---       #644
      00FF8EA3H   LINE      ---      ---       #645
      00FF8EAEH   LINE      ---      ---       #646
      00FF8EB9H   LINE      ---      ---       #652
      00FF8EC6H   LINE      ---      ---       #654
      00FF8ED0H   LINE      ---      ---       #656
      00FF8ED8H   LINE      ---      ---       #657
      00FF8EE3H   LINE      ---      ---       #658
      00FF8EEBH   LINE      ---      ---       #659
      00FF8EF3H   LINE      ---      ---       #660
      00FF8EF3H   LINE      ---      ---       #663
      00FF8EFFH   LINE      ---      ---       #674
      00FF8F03H   LINE      ---      ---       #676
      00FF8F0EH   LINE      ---      ---       #677
      00FF8F19H   LINE      ---      ---       #678
      00FF8F24H   LINE      ---      ---       #679
      00FF8F27H   LINE      ---      ---       #680
      00FF8F2FH   LINE      ---      ---       #681
      0000AEE5H   SYMBOL    EDATA    CHAR      rssiMin
      0000AEE6H   SYMBOL    EDATA    CHAR      rssiTemp
      0000AEE7H   SYMBOL    EDATA    CHAR      minA
      0000AEE8H   SYMBOL    EDATA    CHAR      minB
      0000AEE9H   SYMBOL    EDATA    CHAR      minC
      WR12        REGSYM    ---      WORD      idx
      0000AEEAH   SYMBOL    EDATA    ---       pSbkCand
      ---         BLOCKEND  CODE     ---       LVL=1
      00FF8F37H   LINE      ---      ---       #682
      00FF8F37H   LINE      CODE     ---       #682

      00FF8F3AH   BLOCK     CODE     ---       LVL=0
      00FF8F3AH   LINE      ---      ---       #702
      00FF8F3CH   LINE      ---      ---       #707
      00FF8F47H   LINE      ---      ---       #708
      00FF8F52H   LINE      ---      ---       #711
      00FF8F60H   LINE      ---      ---       #712
      00FF8F6EH   LINE      ---      ---       #713
      00FF8F78H   LINE      ---      ---       #716
      00FF8F84H   LINE      ---      ---       #717
      00FF8F89H   LINE      ---      ---       #718
      00FF8F8DH   LINE      ---      ---       #732
      00FF8F8DH   LINE      ---      ---       #735
      00FF8F95H   LINE      ---      ---       #736
      00FF8FC1H   LINE      ---      ---       #738
      00FF8FCDH   LINE      ---      ---       #739
      00FF8FD9H   LINE      ---      ---       #740
      00FF8FE5H   LINE      ---      ---       #741
      00FF8FF1H   LINE      ---      ---       #742
      00FF8FF1H   LINE      ---      ---       #744
      00FF8FF1H   LINE      ---      ---       #745
      WR2         REGSYM    ---      INT       rfBand
      ---         BLOCKEND  ---      ---       LVL=0

      00FF8FF2H   BLOCK     CODE     ---       LVL=0
      00FF8FF2H   LINE      ---      ---       #747
      00FF8FF4H   LINE      ---      ---       #752
      00FF9000H   LINE      ---      ---       #753
      00FF9004H   LINE      ---      ---       #766
      00FF9004H   LINE      ---      ---       #769
      00FF900CH   LINE      ---      ---       #771
      00FF9018H   LINE      ---      ---       #772
      00FF9018H   LINE      ---      ---       #774
      00FF9018H   LINE      ---      ---       #775
      WR4         REGSYM    ---      INT       rfBand
L251 LINKER/LOCATER V4.66.93.0                                                        12/18/2023  14:26:43  PAGE 151


      ---         BLOCKEND  ---      ---       LVL=0

      00FF4235H   BLOCK     CODE     ---       LVL=0
      00FF4235H   LINE      ---      ---       #777
      00FF4237H   LINE      ---      ---       #778
      00FF4237H   BLOCK     CODE     NEAR LAB  LVL=1
      00FF4237H   LINE      ---      ---       #784
      00FF4243H   LINE      ---      ---       #794
      00FF424FH   LINE      ---      ---       #795
      00FF4259H   LINE      ---      ---       #796
      00FF4272H   LINE      ---      ---       #797
      00FF4286H   LINE      ---      ---       #800
      00FF4293H   LINE      ---      ---       #801
      00FF4298H   LINE      ---      ---       #802
      R15         REGSYM    ---      BYTE      bandSel
      ---         BLOCKEND  CODE     ---       LVL=1
      00FF42A2H   LINE      ---      ---       #814
      00FF42A2H   LINE      CODE     ---       #814

      00FF4353H   BLOCK     CODE     ---       LVL=0
      00FF4353H   LINE      ---      ---       #816
      00FF4353H   LINE      ---      ---       #819
      00FF435FH   LINE      ---      ---       #820
      00FF436BH   LINE      ---      ---       #821
      00FF4370H   LINE      ---      ---       #822
      ---         BLOCKEND  ---      ---       LVL=0

      00FF4547H   BLOCK     CODE     ---       LVL=0
      00FF4547H   LINE      ---      ---       #854
      00FF454BH   LINE      ---      ---       #862
      00FF4555H   LINE      ---      ---       #864
      00FF4559H   LINE      ---      ---       #878
      00FF4559H   LINE      ---      ---       #880
      00FF456BH   LINE      ---      ---       #882
      00FF4573H   LINE      ---      ---       #883
      00FF457BH   LINE      ---      ---       #884
      00FF4589H   LINE      ---      ---       #885
      00FF4597H   LINE      ---      ---       #886
      00FF4597H   LINE      ---      ---       #888
      00FF4597H   LINE      ---      ---       #889
      WR14        REGSYM    ---      INT       rfBand
      ---         BLOCKEND  ---      ---       LVL=0

      00FF4408H   BLOCK     CODE     ---       LVL=0
      00FF4408H   LINE      ---      ---       #891
      00FF440CH   LINE      ---      ---       #894
      REG=7       REGSYM    ---      ---       pFiltCap
      00FF440CH   BLOCK     CODE     NEAR LAB  LVL=1
      00FF440CH   LINE      ---      ---       #924
      00FF4412H   LINE      ---      ---       #925
      00FF4416H   LINE      ---      ---       #929
      00FF441CH   LINE      ---      ---       #933
      00FF4427H   LINE      ---      ---       #936
      00FF4439H   LINE      ---      ---       #942
      00FF443FH   LINE      ---      ---       #954
      00FF4453H   LINE      ---      ---       #957
      00FF4477H   LINE      ---      ---       #994
      00FF447DH   LINE      ---      ---       #996
      00FF4481H   LINE      ---      ---       #997
      00FF4489H   LINE      ---      ---       #1013
      00FF449BH   LINE      ---      ---       #1017
      00FF44A6H   LINE      ---      ---       #1018
      0000AF35H   SYMBOL    EDATA    BYTE      minCap
      0000AF36H   SYMBOL    EDATA    BYTE      cIdx
      0000AF37H   SYMBOL    EDATA    CHAR      rssiRef
L251 LINKER/LOCATER V4.66.93.0                                                        12/18/2023  14:26:43  PAGE 152


      0000AF38H   SYMBOL    EDATA    CHAR      rssiTemp1
      WR12        REGSYM    ---      INT       minRssiDiff
      0000AF39H   SYMBOL    EDATA    INT       rssiDiff
      ---         BLOCKEND  CODE     ---       LVL=1
      00FF44A9H   LINE      ---      ---       #1024
      00FF44A9H   LINE      CODE     ---       #1024

      00FF9019H   BLOCK     CODE     ---       LVL=0
      00FF9019H   LINE      ---      ---       #1028
      00FF901BH   LINE      ---      ---       #1033
      00FF9026H   LINE      ---      ---       #1034
      00FF902DH   LINE      ---      ---       #1037
      00FF903BH   LINE      ---      ---       #1038
      00FF9049H   LINE      ---      ---       #1039
      00FF9053H   LINE      ---      ---       #1042
      00FF906CH   LINE      ---      ---       #1043
      00FF9070H   LINE      ---      ---       #1054
      00FF9070H   LINE      ---      ---       #1056
      00FF907CH   LINE      ---      ---       #1057
      00FF9088H   LINE      ---      ---       #1058
      00FF9088H   LINE      ---      ---       #1060
      00FF9088H   LINE      ---      ---       #1061
      WR2         REGSYM    ---      INT       rfBand
      ---         BLOCKEND  ---      ---       LVL=0

      00FF9089H   BLOCK     CODE     ---       LVL=0
      00FF9089H   LINE      ---      ---       #1063
      00FF908BH   LINE      ---      ---       #1068
      00FF9097H   LINE      ---      ---       #1069
      00FF909BH   LINE      ---      ---       #1081
      00FF909BH   LINE      ---      ---       #1084
      00FF90A7H   LINE      ---      ---       #1085
      00FF90B3H   LINE      ---      ---       #1086
      00FF90B3H   LINE      ---      ---       #1088
      00FF90B3H   LINE      ---      ---       #1089
      WR4         REGSYM    ---      INT       rfBand
      ---         BLOCKEND  ---      ---       LVL=0

      00FF90B4H   BLOCK     CODE     ---       LVL=0
      00FF90B4H   LINE      ---      ---       #1091
      00FF90B6H   LINE      ---      ---       #1092
      00FF90B6H   BLOCK     CODE     NEAR LAB  LVL=1
      00FF90B6H   LINE      ---      ---       #1098
      00FF90C2H   LINE      ---      ---       #1108
      00FF90CEH   LINE      ---      ---       #1109
      00FF90D9H   LINE      ---      ---       #1110
      00FF90F0H   LINE      ---      ---       #1111
      00FF910BH   LINE      ---      ---       #1112
      00FF911CH   LINE      ---      ---       #1113
      00FF9125H   LINE      ---      ---       #1116
      R15         REGSYM    ---      BYTE      bandSel
      ---         BLOCKEND  CODE     ---       LVL=1
      00FF9130H   LINE      ---      ---       #1128
      00FF9130H   LINE      CODE     ---       #1128

      00FF9133H   BLOCK     CODE     ---       LVL=0
      00FF9133H   LINE      ---      ---       #1130
      00FF9133H   LINE      ---      ---       #1133
      00FF913FH   LINE      ---      ---       #1134
      00FF914BH   LINE      ---      ---       #1135
      00FF9150H   LINE      ---      ---       #1136
      ---         BLOCKEND  ---      ---       LVL=0

      ---         MODULE    ---      ---       hal_rt569mp_rf
      00FF832FH   PUBLIC    CODE     ---       HALRF_PllCfg
L251 LINKER/LOCATER V4.66.93.0                                                        12/18/2023  14:26:43  PAGE 153


      00FF9241H   PUBLIC    CODE     ---       HALRF_Freq2gCfg
      00FF9406H   PUBLIC    CODE     ---       HALRF_FreqSubgCfg
      00FF95BAH   PUBLIC    CODE     ---       HALRF_AgcInit
      00FF9625H   PUBLIC    CODE     ---       HALRF_TemperatureMeasure
      00FF9626H   PUBLIC    CODE     ---       HALRF_VoltageMeasure
      00FF7EFFH   PUBLIC    CODE     ---       HALRF_TxPwrSet2Hw
      00FF8571H   PUBLIC    CODE     ---       HALRF_TxPwrCompSet2Hw
      00FF475DH   PUBLIC    CODE     ---       HALRF_AgcSet2Hw
      00FF9627H   PUBLIC    CODE     ---       HALRF_ExtFemInit
      00FF9367H   PUBLIC    CODE     ---       HALRF_IfCheck
      00FF92FDH   PUBLIC    CODE     ---       HALRF_Freq2gCal
      00FF7F41H   PUBLIC    CODE     ---       HALRF_TxGainTableCfg
      00FF11EEH   PUBLIC    HCONST   ---       pllFreqBandTab
      0000AF69H   PUBLIC    EDATA    BYTE      ?HALRF_IfCheck?BYTE

      00FF9367H   BLOCK     CODE     ---       LVL=0
      00FF9367H   LINE      ---      ---       #93
      00FF936BH   LINE      ---      ---       #120
      00FF9378H   LINE      ---      ---       #123
      00FF9378H   LINE      ---      ---       #124
      00FF937DH   LINE      ---      ---       #125
      00FF938CH   LINE      ---      ---       #126
      00FF9397H   LINE      ---      ---       #127
      00FF93B6H   LINE      ---      ---       #129
      00FF93BFH   LINE      ---      ---       #133
      00FF93C0H   LINE      ---      ---       #136
      00FF93C0H   LINE      ---      ---       #137
      00FF93C5H   LINE      ---      ---       #138
      00FF93D4H   LINE      ---      ---       #139
      00FF93DFH   LINE      ---      ---       #140
      00FF93FEH   LINE      ---      ---       #144
      00FF9402H   LINE      ---      ---       #146
      00FF9403H   LINE      ---      ---       #148
      00FF9403H   LINE      ---      ---       #149
      WR6         REGSYM    ---      INT       dataBw
      REG=2       REGSYM    ---      ---       pIfNum
      REG=15      REGSYM    ---      ---       pIfTab
      REG=4       REGSYM    ---      ---       pPllCfgRet
      0000AF71H   SYMBOL    EDATA    ---       pIfIdx
      0000AF73H   SYMBOL    EDATA    ---       pIfIdxZero
      ---         BLOCKEND  ---      ---       LVL=0

      00FF92FDH   BLOCK     CODE     ---       LVL=0
      00FF92FDH   LINE      ---      ---       #156
      00FF92FDH   LINE      ---      ---       #161
      WR6         REGSYM    ---      WORD      freq
      WR4         REGSYM    ---      WORD      ifVal
      REG=1       REGSYM    ---      ---       pPllCfgRet
      00FF92FDH   BLOCK     CODE     NEAR LAB  LVL=1
      00FF92FDH   LINE      ---      ---       #165
      00FF9305H   LINE      ---      ---       #177
      00FF930FH   LINE      ---      ---       #178
      00FF9311H   LINE      ---      ---       #179
      00FF9323H   LINE      ---      ---       #180
      00FF9335H   LINE      ---      ---       #181
      00FF934CH   LINE      ---      ---       #182
      00FF935DH   LINE      ---      ---       #183
      00FF9362H   LINE      ---      ---       #184
      DR4         REGSYM    ---      DWORD     freqTarget
      ---         BLOCKEND  CODE     ---       LVL=1
      00FF9366H   LINE      ---      ---       #185
      00FF9366H   LINE      CODE     ---       #185

      00FF832FH   BLOCK     CODE     ---       LVL=0
      00FF832FH   LINE      ---      ---       #191
L251 LINKER/LOCATER V4.66.93.0                                                        12/18/2023  14:26:43  PAGE 154


      00FF8331H   LINE      ---      ---       #196
      00FF8347H   LINE      ---      ---       #197
      00FF835FH   LINE      ---      ---       #198
      00FF8371H   LINE      ---      ---       #199
      00FF8387H   LINE      ---      ---       #200
      00FF839DH   LINE      ---      ---       #208
      REG=1       REGSYM    ---      ---       pPllCfg
      ---         BLOCKEND  ---      ---       LVL=0

      00FF9241H   BLOCK     CODE     ---       LVL=0
      00FF9241H   LINE      ---      ---       #211
      00FF9247H   LINE      ---      ---       #216
      WR14        REGSYM    ---      WORD      freq
      WR4         REGSYM    ---      INT       dataBw
      WR12        REGSYM    ---      INT       mode
      00FF9247H   BLOCK     CODE     NEAR LAB  LVL=1
      00FF9247H   LINE      ---      ---       #221
      00FF924FH   LINE      ---      ---       #225
      00FF926FH   LINE      ---      ---       #228
      00FF927DH   LINE      ---      ---       #236
      00FF928FH   LINE      ---      ---       #238
      00FF928FH   LINE      ---      ---       #245
      00FF928FH   LINE      ---      ---       #251
      00FF928FH   LINE      ---      ---       #254
      00FF92B2H   LINE      ---      ---       #258
      00FF92B4H   LINE      ---      ---       #260
      00FF92B4H   LINE      ---      ---       #262
      00FF92B7H   LINE      ---      ---       #265
      00FF92D1H   LINE      ---      ---       #269
      00FF92DBH   LINE      ---      ---       #270
      00FF92E7H   LINE      ---      ---       #271
      00FF92FAH   LINE      ---      ---       #272
      00FF92FAH   LINE      ---      ---       #273
      0000AEDBH   SYMBOL    EDATA    ---       pIfTab
      0000AEDFH   SYMBOL    EDATA    BYTE      ifNum
      0000AEE0H   SYMBOL    EDATA    BYTE      ifIdx
      0000AEE1H   SYMBOL    EDATA    BYTE      ifZeroIdx
      0000AEE2H   SYMBOL    EDATA    ---       pPllCfgRet
      0000AEE4H   SYMBOL    EDATA    BYTE      ifBitShift
      ---         BLOCKEND  CODE     ---       LVL=1
      00FF92FAH   LINE      ---      ---       #274
      00FF92FAH   LINE      CODE     ---       #274

      00FF9406H   BLOCK     CODE     ---       LVL=0
      00FF9406H   LINE      ---      ---       #278
      00FF940AH   LINE      ---      ---       #281
      DR12        REGSYM    ---      DWORD     freq
      00FF940AH   BLOCK     CODE     NEAR LAB  LVL=1
      00FF940AH   LINE      ---      ---       #286
      00FF9412H   LINE      ---      ---       #289
      00FF9432H   LINE      ---      ---       #292
      00FF943EH   LINE      ---      ---       #294
      00FF9441H   LINE      ---      ---       #297
      00FF944EH   LINE      ---      ---       #298
      00FF9471H   LINE      ---      ---       #302
      00FF9477H   LINE      ---      ---       #303
      00FF9483H   LINE      ---      ---       #305
      00FF9491H   LINE      ---      ---       #306
      00FF94A7H   LINE      ---      ---       #309
      00FF94ACH   LINE      ---      ---       #312
      00FF94CFH   LINE      ---      ---       #313
      00FF94CFH   LINE      ---      ---       #316
      00FF94DBH   LINE      ---      ---       #317
      00FF94E9H   LINE      ---      ---       #318
      00FF94EBH   LINE      ---      ---       #319
L251 LINKER/LOCATER V4.66.93.0                                                        12/18/2023  14:26:43  PAGE 155


      00FF94FBH   LINE      ---      ---       #322
      00FF94FEH   LINE      ---      ---       #323
      00FF94FEH   LINE      ---      ---       #327
      00FF9508H   LINE      ---      ---       #328
      00FF9523H   LINE      ---      ---       #330
      00FF9540H   LINE      ---      ---       #331
      00FF954FH   LINE      ---      ---       #334
      00FF9557H   LINE      ---      ---       #335
      00FF956DH   LINE      ---      ---       #336
      00FF957FH   LINE      ---      ---       #337
      00FF958CH   LINE      ---      ---       #340
      00FF9596H   LINE      ---      ---       #341
      00FF95A2H   LINE      ---      ---       #342
      00FF94FEH   SYMBOL    CODE     NEAR LAB  DONE?440?hal_rt569mp_rf
      0000AE1CH   SYMBOL    EDATA    ---       pIfTab
      0000AE20H   SYMBOL    EDATA    BYTE      ifNum
      0000AE21H   SYMBOL    EDATA    BYTE      ifIdx
      0000AE22H   SYMBOL    EDATA    BYTE      ifZeroIdx
      0000AE23H   SYMBOL    EDATA    BYTE      bandIdx
      0000AE24H   SYMBOL    EDATA    ---       pPllCfgRet
      0000AE26H   SYMBOL    EDATA    DWORD     freqTarget
      0000AE2AH   SYMBOL    EDATA    DWORD     absTrxIf
      0000AE2EH   SYMBOL    EDATA    BYTE      ifBitShift
      00FF9517H   SYMBOL    CODE     NEAR LAB  DONE?440
      ---         BLOCKEND  CODE     ---       LVL=1
      00FF95B7H   LINE      ---      ---       #343
      00FF95B7H   LINE      CODE     ---       #343

      00FF95BAH   BLOCK     CODE     ---       LVL=0
      00FF95BAH   LINE      ---      ---       #346
      00FF95BCH   LINE      ---      ---       #431
      00FF95CAH   LINE      ---      ---       #433
      00FF95CEH   LINE      ---      ---       #435
      00FF95D7H   LINE      ---      ---       #436
      00FF95E5H   LINE      ---      ---       #437
      00FF95EAH   LINE      ---      ---       #438
      00FF95F6H   LINE      ---      ---       #439
      00FF95FFH   LINE      ---      ---       #440
      00FF9606H   LINE      ---      ---       #441
      00FF9611H   LINE      ---      ---       #442
      00FF961DH   LINE      ---      ---       #443
      00FF9624H   LINE      ---      ---       #444
      WR4         REGSYM    ---      INT       clkMode
      ---         BLOCKEND  ---      ---       LVL=0

      00FF9625H   BLOCK     CODE     ---       LVL=0
      00FF9625H   LINE      ---      ---       #562
      00FF9625H   LINE      ---      ---       #565
      ---         BLOCKEND  ---      ---       LVL=0

      00FF9626H   BLOCK     CODE     ---       LVL=0
      00FF9626H   LINE      ---      ---       #567
      00FF9626H   LINE      ---      ---       #570
      ---         BLOCKEND  ---      ---       LVL=0

      00FF7F41H   BLOCK     CODE     ---       LVL=0
      00FF7F41H   LINE      ---      ---       #573
      00FF7F43H   LINE      ---      ---       #576
      WR4         REGSYM    ---      INT       gainTabIdx
      00FF7F43H   BLOCK     CODE     NEAR LAB  LVL=1
      00FF7F43H   LINE      ---      ---       #577
      00FF7F49H   LINE      ---      ---       #579
      00FF7F5FH   LINE      ---      ---       #582
      00FF7F5FH   LINE      ---      ---       #584
      00FF7F65H   LINE      ---      ---       #586
L251 LINKER/LOCATER V4.66.93.0                                                        12/18/2023  14:26:43  PAGE 156


      00FF7F69H   LINE      ---      ---       #587
      00FF7F69H   LINE      ---      ---       #588
      00FF7F88H   LINE      ---      ---       #592
      00FF7F8AH   LINE      ---      ---       #596
      00FF7F8AH   LINE      ---      ---       #597
      00FF7F8AH   LINE      ---      ---       #598
      00FF7F8AH   LINE      ---      ---       #599
      00FF7F8AH   LINE      ---      ---       #600
      00FF7FAAH   LINE      ---      ---       #601
      00FF7FAAH   LINE      ---      ---       #602
      00FF7FAAH   LINE      ---      ---       #604
      WR6         REGSYM    ---      INT       rfkBand
      ---         BLOCKEND  CODE     ---       LVL=1
      00FF7FAAH   LINE      ---      ---       #605
      00FF7FAAH   LINE      CODE     ---       #605

      00FF7EFFH   BLOCK     CODE     ---       LVL=0
      00FF7EFFH   LINE      ---      ---       #608
      00FF7EFFH   LINE      ---      ---       #609
      00FF7EFFH   BLOCK     CODE     NEAR LAB  LVL=1
      00FF7EFFH   LINE      ---      ---       #610
      00FF7F17H   LINE      ---      ---       #613
      00FF7F1DH   LINE      ---      ---       #615
      00FF7F28H   LINE      ---      ---       #617
      00FF7F2CH   LINE      ---      ---       #619
      00FF7F2EH   LINE      ---      ---       #622
      00FF7F39H   LINE      ---      ---       #624
      REG=3       REGSYM    ---      ---       pTxPwrCtrl
      ---         BLOCKEND  CODE     ---       LVL=1
      ---         BLOCKEND  CODE     ---       LVL=0

      00FF8571H   BLOCK     CODE     ---       LVL=0
      00FF8571H   LINE      ---      ---       #633
      00FF8571H   LINE      ---      ---       #651
      ---         BLOCKEND  ---      ---       LVL=0

      00FF475DH   BLOCK     CODE     ---       LVL=0
      00FF475DH   LINE      ---      ---       #653
      00FF475DH   LINE      ---      ---       #654
      00FF475DH   BLOCK     CODE     NEAR LAB  LVL=1
      00FF475DH   LINE      ---      ---       #671
      00FF4763H   LINE      ---      ---       #673
      00FF4784H   LINE      ---      ---       #677
      00FF4795H   LINE      ---      ---       #678
      00FF47ADH   LINE      ---      ---       #679
      00FF47B0H   LINE      ---      ---       #680
      00FF47BFH   LINE      ---      ---       #681
      00FF47CEH   LINE      ---      ---       #683
      00FF47DBH   LINE      ---      ---       #686
      00FF47DEH   LINE      ---      ---       #688
      00FF47E4H   LINE      ---      ---       #689
      00FF47EFH   LINE      ---      ---       #700
      WR6         REGSYM    ---      INT       type
      ---         BLOCKEND  CODE     ---       LVL=1
      00FF47EFH   LINE      ---      ---       #701
      00FF47EFH   LINE      CODE     ---       #701

      00FF9627H   BLOCK     CODE     ---       LVL=0
      00FF9627H   LINE      ---      ---       #703
      00FF9627H   LINE      ---      ---       #706
      ---         BLOCKEND  ---      ---       LVL=0

      ---         MODULE    ---      ---       hal_rt569mp_tcon
      00FF9628H   PUBLIC    CODE     ---       HALTCON_Init
      00FF9752H   PUBLIC    CODE     ---       HALTCON_PreTxTimeSet
L251 LINKER/LOCATER V4.66.93.0                                                        12/18/2023  14:26:43  PAGE 157


      00FF811BH   PUBLIC    CODE     ---       HALTCON_TxTailDelayGet
      00FF81E0H   PUBLIC    CODE     ---       HALTCON_RxTailDelayGet

      00FF9628H   BLOCK     CODE     ---       LVL=0
      00FF9628H   LINE      ---      ---       #25
      00FF9628H   LINE      ---      ---       #28
      00FF9628H   BLOCK     CODE     NEAR LAB  LVL=1
      00FF9628H   LINE      ---      ---       #32
      00FF9628H   LINE      ---      ---       #45
      00FF962CH   LINE      ---      ---       #48
      00FF9636H   LINE      ---      ---       #50
      00FF9636H   LINE      ---      ---       #52
      00FF9636H   LINE      ---      ---       #53
      00FF963EH   LINE      ---      ---       #54
      00FF9642H   LINE      ---      ---       #55
      00FF9646H   LINE      ---      ---       #56
      00FF964AH   LINE      ---      ---       #57
      00FF964EH   LINE      ---      ---       #58
      00FF9650H   LINE      ---      ---       #62
      00FF9650H   LINE      ---      ---       #63
      00FF9658H   LINE      ---      ---       #64
      00FF965CH   LINE      ---      ---       #65
      00FF9660H   LINE      ---      ---       #66
      00FF9664H   LINE      ---      ---       #67
      00FF9668H   LINE      ---      ---       #68
      00FF9668H   LINE      ---      ---       #70
      00FF9668H   LINE      ---      ---       #73
      00FF9670H   LINE      ---      ---       #74
      00FF9684H   LINE      ---      ---       #75
      00FF9690H   LINE      ---      ---       #76
      00FF9699H   LINE      ---      ---       #77
      00FF96B7H   LINE      ---      ---       #78
      00FF96D3H   LINE      ---      ---       #81
      00FF96DEH   LINE      ---      ---       #82
      00FF96E7H   LINE      ---      ---       #83
      00FF96F3H   LINE      ---      ---       #84
      00FF96FCH   LINE      ---      ---       #85
      00FF9707H   LINE      ---      ---       #86
      00FF970EH   LINE      ---      ---       #87
      00FF9715H   LINE      ---      ---       #90
      00FF971CH   LINE      ---      ---       #91
      00FF9723H   LINE      ---      ---       #92
      00FF9737H   LINE      ---      ---       #95
      00FF973EH   LINE      ---      ---       #96
      00FF9745H   LINE      ---      ---       #99
      00FF9751H   LINE      ---      ---       #102
      R10         REGSYM    ---      BYTE      unitShift
      WR4         REGSYM    ---      WORD      txDelayTime
      WR2         REGSYM    ---      WORD      pllLockTime
      WR26        REGSYM    ---      WORD      paOnTime
      WR0         REGSYM    ---      WORD      txOnTime
      WR28        REGSYM    ---      WORD      paOffTime
      WR30        REGSYM    ---      WORD      rxOnTime
      ---         BLOCKEND  CODE     ---       LVL=1
      00FF9751H   LINE      ---      ---       #103
      00FF9751H   LINE      CODE     ---       #103

      00FF9752H   BLOCK     CODE     ---       LVL=0
      00FF9752H   LINE      ---      ---       #105
      00FF9754H   LINE      ---      ---       #108
      WR2         REGSYM    ---      INT       dataBwIdx
      00FF9754H   BLOCK     CODE     NEAR LAB  LVL=1
      00FF9754H   LINE      ---      ---       #123
      00FF975EH   LINE      ---      ---       #125
      00FF975EH   LINE      ---      ---       #127
L251 LINKER/LOCATER V4.66.93.0                                                        12/18/2023  14:26:43  PAGE 158


      00FF975EH   LINE      ---      ---       #128
      00FF9766H   LINE      ---      ---       #129
      00FF9768H   LINE      ---      ---       #133
      00FF9768H   LINE      ---      ---       #134
      00FF9770H   LINE      ---      ---       #135
      00FF9770H   LINE      ---      ---       #137
      00FF9770H   LINE      ---      ---       #140
      00FF9774H   LINE      ---      ---       #148
      00FF978BH   LINE      ---      ---       #151
      00FF978FH   LINE      ---      ---       #152
      00FF979DH   LINE      ---      ---       #154
      00FF97A6H   LINE      ---      ---       #157
      R11         REGSYM    ---      BYTE      unitShift
      WR4         REGSYM    ---      WORD      mdmTxDelayTime
      WR8         REGSYM    ---      WORD      pllLockTime
      ---         BLOCKEND  CODE     ---       LVL=1
      00FF97A6H   LINE      ---      ---       #158
      00FF97A6H   LINE      CODE     ---       #158

      00FF811BH   BLOCK     CODE     ---       LVL=0
      00FF811BH   LINE      ---      ---       #160
      00FF811BH   LINE      ---      ---       #163
      WR6         REGSYM    ---      INT       dataBw
      00FF811BH   BLOCK     CODE     NEAR LAB  LVL=1
      00FF811BH   LINE      ---      ---       #167
      00FF8133H   LINE      ---      ---       #184
      00FF8144H   LINE      ---      ---       #187
      R11         REGSYM    ---      BYTE      delayTime
      ---         BLOCKEND  CODE     ---       LVL=1
      00FF8144H   LINE      ---      ---       #188
      00FF8144H   LINE      CODE     ---       #188

      00FF81DCH   BLOCK     CODE     ---       LVL=0
      00FF81E0H   LINE      ---      ---       #190
      00FF81E0H   LINE      ---      ---       #193
      00FF81DCH   SYMBOL    CODE     NEAR LAB  ?L?COM002C
      WR6         REGSYM    ---      INT       dataBw
      00FF81E0H   BLOCK     CODE     NEAR LAB  LVL=1
      00FF81E0H   LINE      ---      ---       #196
      00FF81E9H   LINE      ---      ---       #198
      00FF81E9H   LINE      ---      ---       #200
      00FF81E9H   LINE      ---      ---       #201
      00FF8201H   LINE      ---      ---       #205
      00FF8203H   LINE      ---      ---       #208
      00FF8203H   LINE      ---      ---       #209
      00FF821BH   LINE      ---      ---       #210
      00FF821BH   LINE      ---      ---       #218
      00FF821BH   LINE      ---      ---       #221
      00FF8226H   LINE      ---      ---       #224
      R9          REGSYM    ---      BYTE      delayTime
      ---         BLOCKEND  CODE     ---       LVL=1
      00FF8228H   LINE      ---      ---       #225
      00FF8228H   LINE      CODE     ---       #225

      ---         MODULE    ---      ---       hal_rt569mp_para
      00FF01C3H   PUBLIC    HCONST   ---       rfConfig
      00FF0293H   PUBLIC    HCONST   ---       pmuConfig
      00FF037BH   PUBLIC    HCONST   ---       rfTabSideBnadK
      00FF072CH   PUBLIC    HCONST   ---       phyConfig

      ---         MODULE    ---      ---       hal_rt569mp_pmu
      00FF97A7H   PUBLIC    CODE     ---       HALPMU_PwrModeSet
      00FF97D4H   PUBLIC    CODE     ---       HALPMU_PwrModeGet

      00FF97A7H   BLOCK     CODE     ---       LVL=0
L251 LINKER/LOCATER V4.66.93.0                                                        12/18/2023  14:26:43  PAGE 159


      00FF97A7H   LINE      ---      ---       #23
      00FF97A9H   LINE      ---      ---       #27
      00FF97B5H   LINE      ---      ---       #28
      00FF97BAH   LINE      ---      ---       #29
      00FF97C0H   LINE      ---      ---       #30
      00FF97C7H   LINE      ---      ---       #31
      00FF97CBH   LINE      ---      ---       #32
      00FF97D3H   LINE      ---      ---       #35
      WR4         REGSYM    ---      INT       pwrMode
      ---         BLOCKEND  ---      ---       LVL=0

      00FF97D4H   BLOCK     CODE     ---       LVL=0
      00FF97D4H   LINE      ---      ---       #37
      00FF97D4H   LINE      ---      ---       #39
      00FF97E1H   LINE      ---      ---       #40
      00FF97E6H   LINE      ---      ---       #41
      00FF97E9H   LINE      ---      ---       #42
      00FF97ECH   LINE      ---      ---       #44
      00FF97F0H   LINE      ---      ---       #45
      ---         BLOCKEND  ---      ---       LVL=0

      ---         MODULE    ---      ---       Ruci
      00FF37F2H   PUBLIC    CODE     ---       RUCI_endianConvert
      0000AE4BH   PUBLIC    EDATA    BYTE      ?RUCI_endianConvert?BYTE

      00FF37F2H   BLOCK     CODE     ---       LVL=0
      00FF37F2H   LINE      ---      ---       #23
      00FF37F6H   LINE      ---      ---       #29
      REG=3       REGSYM    ---      ---       pDataIn
      R15         REGSYM    ---      BYTE      paraNum
      REG=0       REGSYM    ---      ---       pTypeMapIn
      0000AE52H   SYMBOL    EDATA    ---       pElemNumMapIn
      00FF37F6H   BLOCK     CODE     NEAR LAB  LVL=1
      00FF37F6H   LINE      ---      ---       #37
      00FF37F8H   LINE      ---      ---       #38
      00FF37FCH   LINE      ---      ---       #39
      00FF3804H   LINE      ---      ---       #41
      00FF3808H   LINE      ---      ---       #43
      00FF381DH   LINE      ---      ---       #45
      00FF381DH   LINE      ---      ---       #48
      00FF3820H   LINE      ---      ---       #57
      00FF3827H   LINE      ---      ---       #58
      00FF382FH   LINE      ---      ---       #59
      00FF3837H   LINE      ---      ---       #60
      00FF383FH   LINE      ---      ---       #61
      00FF3842H   LINE      ---      ---       #62
      00FF384AH   LINE      ---      ---       #63
      00FF3852H   LINE      ---      ---       #64
      00FF385AH   LINE      ---      ---       #66
      00FF385CH   LINE      ---      ---       #67
      00FF3872H   LINE      ---      ---       #68
      00FF3874H   LINE      ---      ---       #70
      00FF3874H   LINE      ---      ---       #72
      00FF387BH   LINE      ---      ---       #74
      00FF387DH   LINE      ---      ---       #75
      00FF388BH   LINE      ---      ---       #76
      00FF388DH   LINE      ---      ---       #77
      00FF38A3H   LINE      ---      ---       #78
      00FF38A5H   LINE      ---      ---       #80
      00FF38A5H   LINE      ---      ---       #82
      00FF38B0H   LINE      ---      ---       #83
      00FF38B2H   LINE      ---      ---       #85
      00FF38B2H   LINE      ---      ---       #86
      00FF38B5H   LINE      ---      ---       #87
      00FF38B5H   LINE      ---      ---       #88
L251 LINKER/LOCATER V4.66.93.0                                                        12/18/2023  14:26:43  PAGE 160


      00FF38B5H   LINE      ---      ---       #90
      00FF38BFH   LINE      ---      ---       #91
      00FF38C9H   LINE      ---      ---       #92
      R14         REGSYM    ---      BYTE      paraIdx
      0000AE56H   SYMBOL    EDATA    BYTE      elemIdx
      0000AE57H   SYMBOL    EDATA    ---       pDwTemp
      REG=3       REGSYM    ---      ---       pWTemp
      REG=6       REGSYM    ---      ---       pData
      0000AE5BH   SYMBOL    EDATA    ---       pTypeMap
      0000AE5FH   SYMBOL    EDATA    ---       pElemNumMap
      ---         BLOCKEND  CODE     ---       LVL=1
      00FF38D1H   LINE      ---      ---       #93
      00FF38D1H   LINE      CODE     ---       #93

      ---         MODULE    ---      ---       Ruci_Pci15p4MacCmd
      00FF111BH   PUBLIC    HCONST   ---       Ruci_ElmtType_Set15p4AddressFilter
      00FF1123H   PUBLIC    HCONST   ---       Ruci_ElmtNum_Set15p4AddressFilter
      00FF112BH   PUBLIC    HCONST   ---       Ruci_ElmtType_Set15p4MacPib
      00FF1135H   PUBLIC    HCONST   ---       Ruci_ElmtNum_Set15p4MacPib
      00FF113FH   PUBLIC    HCONST   ---       Ruci_ElmtType_Set15p4PhyPib
      00FF1146H   PUBLIC    HCONST   ---       Ruci_ElmtNum_Set15p4PhyPib
      00FF114DH   PUBLIC    HCONST   ---       Ruci_ElmtType_SetCslReceiverCtrl
      00FF1152H   PUBLIC    HCONST   ---       Ruci_ElmtNum_SetCslReceiverCtrl
      00FF1157H   PUBLIC    HCONST   ---       Ruci_ElmtType_UpdateCslSampleTime
      00FF115BH   PUBLIC    HCONST   ---       Ruci_ElmtNum_UpdateCslSampleTime

      ---         MODULE    ---      ---       Ruci_PciBleCmd
      00FF115FH   PUBLIC    HCONST   ---       Ruci_ElmtType_SetBleMac
      00FF1166H   PUBLIC    HCONST   ---       Ruci_ElmtNum_SetBleMac
      00FF116DH   PUBLIC    HCONST   ---       Ruci_ElmtType_SetHtrpPara
      00FF117BH   PUBLIC    HCONST   ---       Ruci_ElmtNum_SetHtrpPara

      ---         MODULE    ---      ---       Ruci_PciCommonCmd
      00FF102AH   PUBLIC    HCONST   ---       Ruci_ElmtType_SetRfFrequency
      00FF102EH   PUBLIC    HCONST   ---       Ruci_ElmtNum_SetRfFrequency
      00FF1032H   PUBLIC    HCONST   ---       Ruci_ElmtType_SetWakeOnRadio
      00FF1038H   PUBLIC    HCONST   ---       Ruci_ElmtNum_SetWakeOnRadio
      00FF103EH   PUBLIC    HCONST   ---       Ruci_ElmtType_SetRxEnable
      00FF1042H   PUBLIC    HCONST   ---       Ruci_ElmtNum_SetRxEnable
      00FF1046H   PUBLIC    HCONST   ---       Ruci_ElmtType_SetDutyCycle
      00FF104BH   PUBLIC    HCONST   ---       Ruci_ElmtNum_SetDutyCycle
      00FF1050H   PUBLIC    HCONST   ---       Ruci_ElmtType_SetRfeTxEnable
      00FF105EH   PUBLIC    HCONST   ---       Ruci_ElmtNum_SetRfeTxEnable
      00FF106CH   PUBLIC    HCONST   ---       Ruci_ElmtType_SetRfeRxEnable
      00FF1079H   PUBLIC    HCONST   ---       Ruci_ElmtNum_SetRfeRxEnable

      ---         MODULE    ---      ---       Ruci_PciData
      00FF1206H   PUBLIC    HCONST   ---       Ruci_ElmtType_SetTxControlField
      00FF120BH   PUBLIC    HCONST   ---       Ruci_ElmtNum_SetTxControlField
      00FF1210H   PUBLIC    HCONST   ---       Ruci_ElmtType_RxControlField
      00FF1216H   PUBLIC    HCONST   ---       Ruci_ElmtNum_RxControlField

      ---         MODULE    ---      ---       Ruci_PciEvent
      00FF121CH   PUBLIC    HCONST   ---       Ruci_ElmtType_GetRegEvent
      00FF1220H   PUBLIC    HCONST   ---       Ruci_ElmtNum_GetRegEvent
      00FF1224H   PUBLIC    HCONST   ---       Ruci_ElmtType_GetCrcReportEvent
      00FF1229H   PUBLIC    HCONST   ---       Ruci_ElmtNum_GetCrcReportEvent

      ---         MODULE    ---      ---       Ruci_PciFskCmd
      00FF123EH   PUBLIC    HCONST   ---       Ruci_ElmtType_SetFskSfd
      00FF1242H   PUBLIC    HCONST   ---       Ruci_ElmtNum_SetFskSfd

      ---         MODULE    ---      ---       Ruci_PciOqpskCmd

      ---         MODULE    ---      ---       Ruci_PciSlinkCmd
L251 LINKER/LOCATER V4.66.93.0                                                        12/18/2023  14:26:43  PAGE 161



      ---         MODULE    ---      ---       Ruci_CmnEvent
      00FF11B0H   PUBLIC    HCONST   ---       Ruci_ElmtType_GetFwVerEvent
      00FF11B8H   PUBLIC    HCONST   ---       Ruci_ElmtNum_GetFwVerEvent
      00FF11C0H   PUBLIC    HCONST   ---       Ruci_ElmtType_GetTemperatureRptEvent
      00FF11C5H   PUBLIC    HCONST   ---       Ruci_ElmtNum_GetTemperatureRptEvent
      00FF11CAH   PUBLIC    HCONST   ---       Ruci_ElmtType_GetVoltageRptEvent
      00FF11CFH   PUBLIC    HCONST   ---       Ruci_ElmtNum_GetVoltageRptEvent

      ---         MODULE    ---      ---       Ruci_CmnHalCmd
      00FF11D4H   PUBLIC    HCONST   ---       Ruci_ElmtType_SetPmuMpkSetting
      00FF11E1H   PUBLIC    HCONST   ---       Ruci_ElmtNum_SetPmuMpkSetting

      ---         MODULE    ---      ---       Ruci_CmnSysCmd

      ---         MODULE    ---      ---       ?C?INITEDATA
      00FF0123H   PUBLIC    CODE     ---       ?C?INITEDATA

      ---         MODULE    ---      ---       ?C?SIDIV
      00FF000EH   PUBLIC    CODE     ---       ?C?SIDIV

      ---         MODULE    ---      ---       ?C?LMUL
      00FF0040H   PUBLIC    CODE     ---       ?C?LMUL

      ---         MODULE    ---      ---       ?C?LIMUL
      00FF0051H   PUBLIC    CODE     ---       ?C?LIMUL

      ---         MODULE    ---      ---       ?C?ULDIV
      00FF005CH   PUBLIC    CODE     NEAR LAB  ?C?ULDIV
      00FF005AH   PUBLIC    CODE     NEAR LAB  ?C?ULIDIV

      ---         MODULE    ---      ---       memset
      00FF01AFH   PUBLIC    CODE     ---       memset?_

      ---         MODULE    ---      ---       hmemcpy
      00FF0190H   PUBLIC    CODE     ---       hmemcpy?_

      ---         MODULE    ---      ---       ?C?INITEDATA_END
      00FF0E72H   PUBLIC    HCONST   WORD      ?C?INITEDATA_END

      ---         MODULE    ---      ---       ?L?COMMON
      00FF47FCH   SYMBOL    CODE     NEAR LAB  ?L?COM0003
      00FF4534H   SYMBOL    CODE     NEAR LAB  ?L?COM0005
      00FF37C9H   SYMBOL    CODE     NEAR LAB  ?L?COM0007
      00FF97F1H   SYMBOL    CODE     NEAR LAB  ?L?COM000C
      00FF2C0DH   SYMBOL    CODE     NEAR LAB  ?L?COM000E
      00FF8983H   SYMBOL    CODE     NEAR LAB  ?L?COM0010
      00FF27ACH   SYMBOL    CODE     NEAR LAB  ?L?COM0015
      00FF3F0DH   SYMBOL    CODE     NEAR LAB  ?L?COM001B
      00FF4C8CH   SYMBOL    CODE     NEAR LAB  ?L?COM001E
      00FF50A2H   SYMBOL    CODE     NEAR LAB  ?L?COM001F
      00FF47F0H   SYMBOL    CODE     NEAR LAB  ?L?COM0022
      00FF55ABH   SYMBOL    CODE     NEAR LAB  ?L?COM0023
      00FF55B7H   SYMBOL    CODE     NEAR LAB  ?L?COM0024
      00FF4C80H   SYMBOL    CODE     NEAR LAB  ?L?COM0025
      00FF1A8DH   SYMBOL    CODE     NEAR LAB  ?L?COM0026
      00FF3255H   SYMBOL    CODE     NEAR LAB  ?L?COM0034

Program Size: data=16.0 edata+hdata=4762 xdata=0 const=4237 code=34686
L251 RUN COMPLETE.  0 WARNING(S),  0 ERROR(S)
